 FilerunDown

 Timestamp is 5e0570b2 (Fri Dec 27 11:47:14 2019)

 Preferred load address is 00400000

 Start         Length     Name                   Class
 0001:00000000 0006ba28H .text                   CODE
 0001:0006ba30 0000434dH .text$x                 CODE
 0001:0006fd80 000003adH .text$yc                CODE
 0001:00070130 000000d5H .text$yd                CODE
 0002:00000000 000007bcH .idata$5                DATA
 0002:000007bc 00000004H .CRT$XCA                DATA
 0002:000007c0 0000000cH .CRT$XCC                DATA
 0002:000007cc 00000010H .CRT$XCL                DATA
 0002:000007dc 00000058H .CRT$XCU                DATA
 0002:00000834 00000004H .CRT$XCZ                DATA
 0002:00000838 00000004H .CRT$XIA                DATA
 0002:0000083c 00000014H .CRT$XIC                DATA
 0002:00000850 00000004H .CRT$XIY                DATA
 0002:00000854 00000004H .CRT$XIZ                DATA
 0002:00000858 00000004H .CRT$XPA                DATA
 0002:0000085c 00000004H .CRT$XPX                DATA
 0002:00000860 00000004H .CRT$XPXA               DATA
 0002:00000864 00000004H .CRT$XPZ                DATA
 0002:00000868 00000004H .CRT$XTA                DATA
 0002:0000086c 00000004H .CRT$XTZ                DATA
 0002:00000870 0000f098H .rdata                  DATA
 0002:0000f908 00000059H .rdata$debug            DATA
 0002:0000f964 000035a8H .rdata$r                DATA
 0002:00012f10 00000524H .rdata$sxdata           DATA
 0002:00013434 00000004H .rtc$IAA                DATA
 0002:00013438 00000004H .rtc$IZZ                DATA
 0002:0001343c 00000004H .rtc$TAA                DATA
 0002:00013440 00000004H .rtc$TZZ                DATA
 0002:00013448 0000649cH .xdata$x                DATA
 0002:000198e4 00000000H ATL$__a                 DATA
 0002:000198e4 00000000H ATL$__z                 DATA
 0002:000198e4 00000020H .didat$2                DATA
 0002:00019904 00000020H .didat$3                DATA
 0002:00019924 00000010H .didat$4                DATA
 0002:00019934 0000004eH .didat$6                DATA
 0002:00019984 00000010H .didat$7                DATA
 0002:00019994 00000140H .idata$2                DATA
 0002:00019ad4 00000014H .idata$3                DATA
 0002:00019ae8 000007bcH .idata$4                DATA
 0002:0001a2a4 00001f16H .idata$6                DATA
 0002:0001c1ba 00000000H .edata                  DATA
 0003:00000000 000033f8H .data                   DATA
 0003:000033f8 00000010H .didat$5                DATA
 0003:00003420 00003ba0H .bss                    DATA
 0004:00000000 00001900H .rsrc$01                DATA
 0004:00001900 002746f8H .rsrc$02                DATA

  Address         Publics by Value              Rva+Base       Lib:Object

 0000:00000000       __except_list              00000000     <absolute>
 0000:00000149       ___safe_se_handler_count   00000149     <absolute>
 0000:00000000       ___ImageBase               00400000     <linker-defined>
 0001:00000000       ?_AtlGetConversionACP@ATL@@YGIXZ 00401000 f i down_client.obj
 0001:00000010       ?_AtlVerifyStackAvailable@_ATL_SAFE_ALLOCA_IMPL@ATL@@YA_NK@Z 00401010 f i down_client.obj
 0001:000000f0       ?AtlThrowImpl@ATL@@YGXJ@Z  004010f0 f i down_client.obj
 0001:00000110       ?AfxCrtErrorCheck@@YAHH@Z  00401110 f i down_client.obj
 0001:000001c0       ?GetMessageMap@down_client@@MBEPBUAFX_MSGMAP@@XZ 004011c0 f   down_client.obj
 0001:000001d0       ?GetThisMessageMap@down_client@@KGPBUAFX_MSGMAP@@XZ 004011d0 f   down_client.obj
 0001:000001e0       ??0down_client@@QAE@XZ     004011e0 f   down_client.obj
 0001:00000210       ?InitInstance@down_client@@UAEHXZ 00401210 f   down_client.obj
 0001:00000640       ?Update_Checking@down_client@@UAGJXZ 00401640 f   down_client.obj
 0001:00000b70       ??_Edown_client@@UAEPAXI@Z 00401b70 f i down_client.obj
 0001:00000b70       ??_Gdown_client@@UAEPAXI@Z 00401b70 f i down_client.obj
 0001:00000ba0       ??1down_client@@UAE@XZ     00401ba0 f i down_client.obj
 0001:00000bc0       ??0CToken@@QAE@PAD@Z       00401bc0 f i down_client.obj
 0001:00000bf0       ?Split@CToken@@QAEXPAD@Z   00401bf0 f i down_client.obj
 0001:00000d40       ?FindString@CToken@@QAEHPAD0@Z 00401d40 f i down_client.obj
 0001:00000da0       ?GetToken@CToken@@QAEPADI@Z 00401da0 f i down_client.obj
 0001:00000dd0       ?GetCount@CToken@@QAEIXZ   00401dd0 f i down_client.obj
 0001:00000df0       ?ReleaseAllToken@CToken@@QAEXXZ 00401df0 f i down_client.obj
 0001:00000e60       ?StringCchLengthW@@YGJPB_WIPAI@Z 00401e60 f i down_client.obj
 0001:00000eb0       ?StringLengthWorkerW@@YGJPB_WIPAI@Z 00401eb0 f i down_client.obj
 0001:00000f20       ??3CObject@@SGXPAX@Z       00401f20 f i down_client.obj
 0001:00000f40       ?AfxGetInstanceHandle@@YGPAUHINSTANCE__@@XZ 00401f40 f i down_client.obj
 0001:00000f50       ?Allocate@CCRTAllocator@ATL@@SAPAXI@Z 00401f50 f i down_client.obj
 0001:00000f70       ?Free@CCRTAllocator@ATL@@SAXPAX@Z 00401f70 f i down_client.obj
 0001:00000f90       ??1?$CTempBuffer@D$0IA@VCCRTAllocator@ATL@@@ATL@@QAE@XZ 00401f90 f i down_client.obj
 0001:00000fb0       ?Allocate@?$CTempBuffer@D$0IA@VCCRTAllocator@ATL@@@ATL@@QAEPADI@Z 00401fb0 f i down_client.obj
 0001:00000fe0       ??0?$CStringT@DV?$StrTraitMFC@DV?$ChTraitsCRT@D@ATL@@@@@ATL@@QAE@XZ 00401fe0 f i down_client.obj
 0001:00001000       ??1?$CStringT@DV?$StrTraitMFC@DV?$ChTraitsCRT@D@ATL@@@@@ATL@@QAE@XZ 00402000 f i down_client.obj
 0001:00001020       ??4?$CStringT@DV?$StrTraitMFC@DV?$ChTraitsCRT@D@ATL@@@@@ATL@@QAEAAV01@PBD@Z 00402020 f i down_client.obj
 0001:00001040       ?GetLength@?$CSimpleStringT@D$0A@@ATL@@QBEHXZ 00402040 f i down_client.obj
 0001:00001060       ?AllocateBytes@?$CTempBuffer@D$0IA@VCCRTAllocator@ATL@@@ATL@@QAEPADI@Z 00402060 f i down_client.obj
 0001:000010a0       ?FreeHeap@?$CTempBuffer@D$0IA@VCCRTAllocator@ATL@@@ATL@@AAEXXZ 004020a0 f i down_client.obj
 0001:000010c0       ??0?$CSimpleStringT@D$0A@@ATL@@QAE@PAUIAtlStringMgr@1@@Z 004020c0 f i down_client.obj
 0001:00001110       ??1?$CSimpleStringT@D$0A@@ATL@@QAE@XZ 00402110 f i down_client.obj
 0001:00001130       ?Release@CStringData@ATL@@QAEXXZ 00402130 f i down_client.obj
 0001:00001170       ??4?$CSimpleStringT@D$0A@@ATL@@QAEAAV01@PBD@Z 00402170 f i down_client.obj
 0001:00001190       ?GetData@?$CSimpleStringT@D$0A@@ATL@@ABEPAUCStringData@2@XZ 00402190 f i down_client.obj
 0001:000011b0       ?GetDefaultManager@?$StrTraitMFC@DV?$ChTraitsCRT@D@ATL@@@@SAPAUIAtlStringMgr@ATL@@XZ 004021b0 f i down_client.obj
 0001:000011c0       ?AllocateHeap@?$CTempBuffer@D$0IA@VCCRTAllocator@ATL@@@ATL@@AAEXI@Z 004021c0 f i down_client.obj
 0001:00001200       ?SetString@?$CSimpleStringT@D$0A@@ATL@@QAEXPBD@Z 00402200 f i down_client.obj
 0001:00001230       ?StringLength@?$CSimpleStringT@D$0A@@ATL@@SAHPBD@Z 00402230 f i down_client.obj
 0001:00001250       ?SetString@?$CSimpleStringT@D$0A@@ATL@@QAEXPBDH@Z 00402250 f i down_client.obj
 0001:00001300       ?GetBuffer@?$CSimpleStringT@D$0A@@ATL@@QAEPADH@Z 00402300 f i down_client.obj
 0001:00001320       ?PrepareWrite@?$CSimpleStringT@D$0A@@ATL@@AAEPADH@Z 00402320 f i down_client.obj
 0001:00001370       ?Empty@?$CSimpleStringT@D$0A@@ATL@@QAEXXZ 00402370 f i down_client.obj
 0001:000013e0       ?IsLocked@CStringData@ATL@@QBE_NXZ 004023e0 f i down_client.obj
 0001:00001400       ?SetLength@?$CSimpleStringT@D$0A@@ATL@@AAEXH@Z 00402400 f i down_client.obj
 0001:00001450       ?ReleaseBufferSetLength@?$CSimpleStringT@D$0A@@ATL@@QAEXH@Z 00402450 f i down_client.obj
 0001:00001470       ?Attach@?$CSimpleStringT@D$0A@@ATL@@AAEXPAUCStringData@2@@Z 00402470 f i down_client.obj
 0001:00001490       ?data@CStringData@ATL@@QAEPAXXZ 00402490 f i down_client.obj
 0001:000014b0       ?PrepareWrite2@?$CSimpleStringT@D$0A@@ATL@@AAEXH@Z 004024b0 f i down_client.obj
 0001:00001550       ?IsShared@CStringData@ATL@@QBE_NXZ 00402550 f i down_client.obj
 0001:00001570       ?CopyChars@?$CSimpleStringT@D$0A@@ATL@@SAXPADIPBDH@Z 00402570 f i down_client.obj
 0001:00001590       ?CopyCharsOverlapped@?$CSimpleStringT@D$0A@@ATL@@SAXPADIPBDH@Z 00402590 f i down_client.obj
 0001:000015b0       ?Fork@?$CSimpleStringT@D$0A@@ATL@@AAEXH@Z 004025b0 f i down_client.obj
 0001:00001670       ?ThrowMemoryException@?$CSimpleStringT@D$0A@@ATL@@KAXXZ 00402670 f i down_client.obj
 0001:00001680       ?Reallocate@?$CSimpleStringT@D$0A@@ATL@@AAEXH@Z 00402680 f i down_client.obj
 0001:000016f0       ??$AtlAdd@K@ATL@@YAJPAKKK@Z 004026f0 f i down_client.obj
 0001:00001720       ?Format@?$CStringT@DV?$StrTraitMFC@DV?$ChTraitsCRT@D@ATL@@@@@ATL@@QAAXPBDZZ 00402720 f i down_client.obj
 0001:00001750       ?FormatV@?$CStringT@DV?$StrTraitMFC@DV?$ChTraitsCRT@D@ATL@@@@@ATL@@QAEXPBDPAD@Z 00402750 f i down_client.obj
 0001:000017c0       ?GetFormattedLength@?$ChTraitsCRT@D@ATL@@SAHPBDPAD@Z 004027c0 f i down_client.obj
 0001:000017e0       ?Format@?$ChTraitsCRT@D@ATL@@SAHPADIPBD0@Z 004027e0 f i down_client.obj
 0001:00001800       ??$AtlMultiplyThrow@I@ATL@@YAIII@Z 00402800 f i down_client.obj
 0001:00001840       ??$AtlMultiply@I@ATL@@YAJPAIII@Z 00402840 f i down_client.obj
 0001:00001880       ??0CPictureEx@@QAE@XZ      00402880 f   PictureEx.obj
 0001:00001a10       ??1CPictureEx@@UAE@XZ      00402a10 f   PictureEx.obj
 0001:00001a90       ?GetMessageMap@CPictureEx@@MBEPBUAFX_MSGMAP@@XZ 00402a90 f   PictureEx.obj
 0001:00001aa0       ?GetThisMessageMap@CPictureEx@@KGPBUAFX_MSGMAP@@XZ 00402aa0 f   PictureEx.obj
 0001:00001ab0       ?Load@CPictureEx@@QAEHPAXK@Z 00402ab0 f   PictureEx.obj
 0001:00001f20       ?UnLoad@CPictureEx@@QAEXXZ 00402f20 f   PictureEx.obj
 0001:00002150       ?Draw@CPictureEx@@QAEHXZ   00403150 f   PictureEx.obj
 0001:00002280       ?GetSize@CPictureEx@@QBE?AUtagSIZE@@XZ 00403280 f   PictureEx.obj
 0001:000022b0       ?Load@CPictureEx@@QAEHPBD@Z 004032b0 f   PictureEx.obj
 0001:00002490       ?Load@CPictureEx@@QAEHPBD0@Z 00403490 f   PictureEx.obj
 0001:000025a0       ?ResetDataPointer@CPictureEx@@IAEXXZ 004035a0 f   PictureEx.obj
 0001:000025c0       ?SkipNextGraphicBlock@CPictureEx@@IAEHXZ 004035c0 f   PictureEx.obj
 0001:000026d0       ?GetSubBlocksLen@CPictureEx@@IBEII@Z 004036d0 f   PictureEx.obj
 0001:00002740       ?GetNextBlock@CPictureEx@@IBE?AW4GIFBlockTypes@1@XZ 00403740 f   PictureEx.obj
 0001:00002900       ?SkipNextBlock@CPictureEx@@IAEHXZ 00403900 f   PictureEx.obj
 0001:00002960       ?GetNextBlockLen@CPictureEx@@IBEHXZ 00403960 f   PictureEx.obj
 0001:00002ac0       ?_ThreadAnimation@CPictureEx@@KGIPAX@Z 00403ac0 f   PictureEx.obj
 0001:00002b20       ?ThreadAnimation@CPictureEx@@IAEXXZ 00403b20 f   PictureEx.obj
 0001:000032e0       ?Stop@CPictureEx@@QAEXXZ   004042e0 f   PictureEx.obj
 0001:00003370       ?GetNextGraphicBlock@CPictureEx@@IAEPAXPAI0PAUtagSIZE@@10@Z 00404370 f   PictureEx.obj
 0001:000035f0       ?IsGIF@CPictureEx@@QBEHXZ  004045f0 f   PictureEx.obj
 0001:00003610       ?IsAnimatedGIF@CPictureEx@@QBEHXZ 00404610 f   PictureEx.obj
 0001:00003650       ?IsPlaying@CPictureEx@@QBEHXZ 00404650 f   PictureEx.obj
 0001:00003670       ?GetFrameCount@CPictureEx@@QBEHXZ 00404670 f   PictureEx.obj
 0001:000036a0       ?GetBkColor@CPictureEx@@QBEKXZ 004046a0 f   PictureEx.obj
 0001:000036c0       ?OnPaint@CPictureEx@@IAEXXZ 004046c0 f   PictureEx.obj
 0001:00003780       ?PrepareDC@CPictureEx@@IAEHHH@Z 00404780 f   PictureEx.obj
 0001:000038d0       ?OnDestroy@CPictureEx@@IAEXXZ 004048d0 f   PictureEx.obj
 0001:000038f0       ?SetBkColor@CPictureEx@@QAEXK@Z 004048f0 f   PictureEx.obj
 0001:00003970       ?SetPaintRect@CPictureEx@@QAEHPBUtagRECT@@@Z 00404970 f   PictureEx.obj
 0001:00003990       ?GetPaintRect@CPictureEx@@QAEHPAUtagRECT@@@Z 00404990 f   PictureEx.obj
 0001:000039b0       ??_GCPictureEx@@UAEPAXI@Z  004049b0 f i PictureEx.obj
 0001:000039b0       ??_ECPictureEx@@UAEPAXI@Z  004049b0 f i PictureEx.obj
 0001:000039e0       ?GetPackedValue@TGIFLSDescriptor@CPictureEx@@QAEHW4LSDPackedValues@2@@Z 004049e0 f i PictureEx.obj
 0001:00003a60       ?GetPackedValue@TGIFImageDescriptor@CPictureEx@@QAEHW4IDPackedValues@2@@Z 00404a60 f i PictureEx.obj
 0001:00003ae0       ?GetPackedValue@TGIFControlExt@CPictureEx@@QAEHW4ControlExtValues@2@@Z 00404ae0 f i PictureEx.obj
 0001:00003b40       ??0?$vector@UTFrame@CPictureEx@@V?$allocator@UTFrame@CPictureEx@@@std@@@std@@QAE@XZ 00404b40 f i PictureEx.obj
 0001:00003b70       ??1?$vector@UTFrame@CPictureEx@@V?$allocator@UTFrame@CPictureEx@@@std@@@std@@QAE@XZ 00404b70 f i PictureEx.obj
 0001:00003b90       ?size@?$vector@UTFrame@CPictureEx@@V?$allocator@UTFrame@CPictureEx@@@std@@@std@@QBEIXZ 00404b90 f i PictureEx.obj
 0001:00003bd0       ?empty@?$vector@UTFrame@CPictureEx@@V?$allocator@UTFrame@CPictureEx@@@std@@@std@@QBE_NXZ 00404bd0 f i PictureEx.obj
 0001:00003bf0       ??A?$vector@UTFrame@CPictureEx@@V?$allocator@UTFrame@CPictureEx@@@std@@@std@@QAEAAUTFrame@CPictureEx@@I@Z 00404bf0 f i PictureEx.obj
 0001:00003c20       ?push_back@?$vector@UTFrame@CPictureEx@@V?$allocator@UTFrame@CPictureEx@@@std@@@std@@QAEXABUTFrame@CPictureEx@@@Z 00404c20 f i PictureEx.obj
 0001:00003c90       ?clear@?$vector@UTFrame@CPictureEx@@V?$allocator@UTFrame@CPictureEx@@@std@@@std@@QAEXXZ 00404c90 f i PictureEx.obj
 0001:00003cd0       ??0?$_Vector_iterator@UCONTENTSITEM@@V?$allocator@UCONTENTSITEM@@@std@@@std@@QAE@XZ 00404cd0 f i down_window_hacf.obj
 0001:00003cd0       ??0?$_Vector_iterator@UTFrame@CPictureEx@@V?$allocator@UTFrame@CPictureEx@@@std@@@std@@QAE@XZ 00404cd0 f i PictureEx.obj
 0001:00003cf0       ??D?$_Vector_iterator@UCONTENTSITEM@@V?$allocator@UCONTENTSITEM@@@std@@@std@@QBEAAUCONTENTSITEM@@XZ 00404cf0 f i down_window_hacf.obj
 0001:00003cf0       ??D?$_Vector_iterator@UTFrame@CPictureEx@@V?$allocator@UTFrame@CPictureEx@@@std@@@std@@QBEAAUTFrame@CPictureEx@@XZ 00404cf0 f i PictureEx.obj
 0001:00003d10       ??E?$_Vector_iterator@UTFrame@CPictureEx@@V?$allocator@UTFrame@CPictureEx@@@std@@@std@@QAE?AV01@H@Z 00404d10 f i PictureEx.obj
 0001:00003d50       ??M?$_Vector_const_iterator@UTFrame@CPictureEx@@V?$allocator@UTFrame@CPictureEx@@@std@@@std@@QBE_NABV01@@Z 00404d50 f i PictureEx.obj
 0001:00003d90       ?capacity@?$vector@UTFrame@CPictureEx@@V?$allocator@UTFrame@CPictureEx@@@std@@@std@@QBEIXZ 00404d90 f i PictureEx.obj
 0001:00003dd0       ?insert@?$vector@UTFrame@CPictureEx@@V?$allocator@UTFrame@CPictureEx@@@std@@@std@@QAE?AV?$_Vector_iterator@UTFrame@CPictureEx@@V?$allocator@UTFrame@CPictureEx@@@std@@@2@V32@ABUTFrame@CPictureEx@@@Z 00404dd0 f i PictureEx.obj
 0001:00003e50       ?erase@?$vector@UTFrame@CPictureEx@@V?$allocator@UTFrame@CPictureEx@@@std@@@std@@QAE?AV?$_Vector_iterator@UTFrame@CPictureEx@@V?$allocator@UTFrame@CPictureEx@@@std@@@2@V32@0@Z 00404e50 f i PictureEx.obj
 0001:00003ec0       ?_Buy@?$vector@UTFrame@CPictureEx@@V?$allocator@UTFrame@CPictureEx@@@std@@@std@@IAE_NI@Z 00404ec0 f i PictureEx.obj
 0001:00003f40       ?_Tidy@?$vector@UTFrame@CPictureEx@@V?$allocator@UTFrame@CPictureEx@@@std@@@std@@IAEXXZ 00404f40 f i PictureEx.obj
 0001:00003fb0       ?_Ufill@?$vector@UTFrame@CPictureEx@@V?$allocator@UTFrame@CPictureEx@@@std@@@std@@IAEPAUTFrame@CPictureEx@@PAU34@IABU34@@Z 00404fb0 f i PictureEx.obj
 0001:00003fe0       ??0?$_Vector_iterator@UTFrame@CPictureEx@@V?$allocator@UTFrame@CPictureEx@@@std@@@std@@QAE@PAUTFrame@CPictureEx@@PBU_Container_base@1@@Z 00404fe0 f i PictureEx.obj
 0001:00003fe0       ??0?$_Vector_iterator@UCONTENTSITEM@@V?$allocator@UCONTENTSITEM@@@std@@@std@@QAE@PAUCONTENTSITEM@@PBU_Container_base@1@@Z 00404fe0 f i Worker.obj
 0001:00003fe0       ??0?$_Vector_iterator@V?$CStringT@DV?$StrTraitMFC@DV?$ChTraitsCRT@D@ATL@@@@@ATL@@V?$allocator@V?$CStringT@DV?$StrTraitMFC@DV?$ChTraitsCRT@D@ATL@@@@@ATL@@@std@@@std@@QAE@PAV?$CStringT@DV?$StrTraitMFC@DV?$ChTraitsCRT@D@ATL@@@@@ATL@@PBU_Container_base@1@@Z 00404fe0 f i down_window_init.obj
 0001:00004000       ??E?$_Vector_iterator@UTFrame@CPictureEx@@V?$allocator@UTFrame@CPictureEx@@@std@@@std@@QAEAAV01@XZ 00405000 f i PictureEx.obj
 0001:00004020       ??0?$_Vector_const_iterator@UTFrame@CPictureEx@@V?$allocator@UTFrame@CPictureEx@@@std@@@std@@QAE@XZ 00405020 f i PictureEx.obj
 0001:00004020       ??0?$_Vector_const_iterator@UCONTENTSITEM@@V?$allocator@UCONTENTSITEM@@@std@@@std@@QAE@XZ 00405020 f i down_window_hacf.obj
 0001:00004040       ??D?$_Vector_const_iterator@UTFrame@CPictureEx@@V?$allocator@UTFrame@CPictureEx@@@std@@@std@@QBEABUTFrame@CPictureEx@@XZ 00405040 f i PictureEx.obj
 0001:00004040       ??D?$_Vector_const_iterator@UCONTENTSITEM@@V?$allocator@UCONTENTSITEM@@@std@@@std@@QBEABUCONTENTSITEM@@XZ 00405040 f i down_window_hacf.obj
 0001:00004080       ?max_size@?$vector@UTFrame@CPictureEx@@V?$allocator@UTFrame@CPictureEx@@@std@@@std@@QBEIXZ 00405080 f i PictureEx.obj
 0001:000040a0       ?_Destroy@?$vector@UTFrame@CPictureEx@@V?$allocator@UTFrame@CPictureEx@@@std@@@std@@IAEXPAUTFrame@CPictureEx@@0@Z 004050a0 f i PictureEx.obj
 0001:000040d0       ?_Insert_n@?$vector@UTFrame@CPictureEx@@V?$allocator@UTFrame@CPictureEx@@@std@@@std@@IAEXV?$_Vector_iterator@UTFrame@CPictureEx@@V?$allocator@UTFrame@CPictureEx@@@std@@@2@IABUTFrame@CPictureEx@@@Z 004050d0 f i PictureEx.obj
 0001:00004430       ??0length_error@std@@QAE@ABV?$basic_string@DU?$char_traits@D@std@@V?$allocator@D@2@@1@@Z 00405430 f i PictureEx.obj
 0001:00004460       ??0logic_error@std@@QAE@ABV?$basic_string@DU?$char_traits@D@std@@V?$allocator@D@2@@1@@Z 00405460 f i PictureEx.obj
 0001:000044d0       ?what@logic_error@std@@UBEPBDXZ 004054d0 f i PictureEx.obj
 0001:000044f0       ??_Glogic_error@std@@UAEPAXI@Z 004054f0 f i PictureEx.obj
 0001:000044f0       ??_Elogic_error@std@@UAEPAXI@Z 004054f0 f i PictureEx.obj
 0001:00004520       ??1logic_error@std@@UAE@XZ 00405520 f i PictureEx.obj
 0001:00004550       ??1length_error@std@@UAE@XZ 00405550 f i PictureEx.obj
 0001:00004570       ??_Elength_error@std@@UAEPAXI@Z 00405570 f i PictureEx.obj
 0001:00004570       ??_Glength_error@std@@UAEPAXI@Z 00405570 f i PictureEx.obj
 0001:000045a0       ??0?$basic_string@DU?$char_traits@D@std@@V?$allocator@D@2@@std@@QAE@ABV01@@Z 004055a0 f i PictureEx.obj
 0001:000045e0       ??1?$basic_string@DU?$char_traits@D@std@@V?$allocator@D@2@@std@@QAE@XZ 004055e0 f i PictureEx.obj
 0001:00004600       ?c_str@?$basic_string@DU?$char_traits@D@std@@V?$allocator@D@2@@std@@QBEPBDXZ 00405600 f i PictureEx.obj
 0001:00004620       ?assign@?$basic_string@DU?$char_traits@D@std@@V?$allocator@D@2@@std@@QAEAAV12@ABV12@II@Z 00405620 f i PictureEx.obj
 0001:000046e0       ?_Tidy@?$basic_string@DU?$char_traits@D@std@@V?$allocator@D@2@@std@@IAEX_NI@Z 004056e0 f i PictureEx.obj
 0001:00004760       ??0?$_String_val@DV?$allocator@D@std@@@std@@QAE@ABV01@@Z 00405760 f i PictureEx.obj
 0001:00004780       ?erase@?$basic_string@DU?$char_traits@D@std@@V?$allocator@D@2@@std@@QAEAAV12@II@Z 00405780 f i PictureEx.obj
 0001:00004820       ?size@?$basic_string@DU?$char_traits@D@std@@V?$allocator@D@2@@std@@QBEIXZ 00405820 f i PictureEx.obj
 0001:00004840       ?_Eos@?$basic_string@DU?$char_traits@D@std@@V?$allocator@D@2@@std@@IAEXI@Z 00405840 f i PictureEx.obj
 0001:00004880       ?assign@?$char_traits@D@std@@SAXAADABD@Z 00405880 f i PictureEx.obj
 0001:00004890       ?_Grow@?$basic_string@DU?$char_traits@D@std@@V?$allocator@D@2@@std@@IAE_NI_N@Z 00405890 f i PictureEx.obj
 0001:00004930       ?_Myptr@?$basic_string@DU?$char_traits@D@std@@V?$allocator@D@2@@std@@IAEPADXZ 00405930 f i PictureEx.obj
 0001:00004930       ?_Myptr@?$basic_string@DU?$char_traits@D@std@@V?$allocator@D@2@@std@@IBEPBDXZ 00405930 f i PictureEx.obj
 0001:00004960       ??0?$allocator@V?$CStringT@DV?$StrTraitMFC@DV?$ChTraitsCRT@D@ATL@@@@@ATL@@@std@@QAE@ABV01@@Z 00405960 f i down_window_init.obj
 0001:00004960       ??0?$allocator@UTFrame@CPictureEx@@@std@@QAE@ABV01@@Z 00405960 f i PictureEx.obj
 0001:00004960       ??0?$allocator@UCONTENTSITEM@@@std@@QAE@ABV01@@Z 00405960 f i down_window_init.obj
 0001:00004960       ??0?$allocator@D@std@@QAE@ABV01@@Z 00405960 f i PictureEx.obj
 0001:00004970       ?deallocate@?$allocator@UCONTENTSITEM@@@std@@QAEXPAUCONTENTSITEM@@I@Z 00405970 f i Worker.obj
 0001:00004970       ?deallocate@?$allocator@D@std@@QAEXPADI@Z 00405970 f i PictureEx.obj
 0001:00004970       ?deallocate@?$allocator@V?$CStringT@DV?$StrTraitMFC@DV?$ChTraitsCRT@D@ATL@@@@@ATL@@@std@@QAEXPAV?$CStringT@DV?$StrTraitMFC@DV?$ChTraitsCRT@D@ATL@@@@@ATL@@I@Z 00405970 f i down_window_init.obj
 0001:00004970       ?deallocate@?$allocator@UTFrame@CPictureEx@@@std@@QAEXPAUTFrame@CPictureEx@@I@Z 00405970 f i PictureEx.obj
 0001:00004990       ?allocate@?$allocator@UTFrame@CPictureEx@@@std@@QAEPAUTFrame@CPictureEx@@I@Z 00405990 f i PictureEx.obj
 0001:000049b0       ??H?$_Vector_iterator@UTFrame@CPictureEx@@V?$allocator@UTFrame@CPictureEx@@@std@@@std@@QBE?AV01@H@Z 004059b0 f i PictureEx.obj
 0001:000049f0       ??G?$_Vector_iterator@UTFrame@CPictureEx@@V?$allocator@UTFrame@CPictureEx@@@std@@@std@@QBEHABV?$_Vector_const_iterator@UTFrame@CPictureEx@@V?$allocator@UTFrame@CPictureEx@@@std@@@1@@Z 004059f0 f i PictureEx.obj
 0001:00004a10       ??0?$_Vector_const_iterator@UCONTENTSITEM@@V?$allocator@UCONTENTSITEM@@@std@@@std@@QAE@PAUCONTENTSITEM@@PBU_Container_base@1@@Z 00405a10 f i Worker.obj
 0001:00004a10       ??0?$_Vector_const_iterator@V?$CStringT@DV?$StrTraitMFC@DV?$ChTraitsCRT@D@ATL@@@@@ATL@@V?$allocator@V?$CStringT@DV?$StrTraitMFC@DV?$ChTraitsCRT@D@ATL@@@@@ATL@@@std@@@std@@QAE@PAV?$CStringT@DV?$StrTraitMFC@DV?$ChTraitsCRT@D@ATL@@@@@ATL@@PBU_Container_base@1@@Z 00405a10 f i down_window_init.obj
 0001:00004a10       ??0?$_Vector_const_iterator@UTFrame@CPictureEx@@V?$allocator@UTFrame@CPictureEx@@@std@@@std@@QAE@PAUTFrame@CPictureEx@@PBU_Container_base@1@@Z 00405a10 f i PictureEx.obj
 0001:00004a60       ??E?$_Vector_const_iterator@UTFrame@CPictureEx@@V?$allocator@UTFrame@CPictureEx@@@std@@@std@@QAEAAV01@XZ 00405a60 f i PictureEx.obj
 0001:00004aa0       ??9?$_Vector_const_iterator@UCONTENTSITEM@@V?$allocator@UCONTENTSITEM@@@std@@@std@@QBE_NABV01@@Z 00405aa0 f i down_window_hacf.obj
 0001:00004aa0       ??9?$_Vector_const_iterator@UTFrame@CPictureEx@@V?$allocator@UTFrame@CPictureEx@@@std@@@std@@QBE_NABV01@@Z 00405aa0 f i PictureEx.obj
 0001:00004ad0       ??0length_error@std@@QAE@ABV01@@Z 00405ad0 f i PictureEx.obj
 0001:00004b00       ??0logic_error@std@@QAE@ABV01@@Z 00405b00 f i PictureEx.obj
 0001:00004b70       ??0?$basic_string@DU?$char_traits@D@std@@V?$allocator@D@2@@std@@QAE@PBD@Z 00405b70 f i PictureEx.obj
 0001:00004bb0       ?max_size@?$basic_string@DU?$char_traits@D@std@@V?$allocator@D@2@@std@@QBEIXZ 00405bb0 f i PictureEx.obj
 0001:00004bf0       ?_Copy@?$basic_string@DU?$char_traits@D@std@@V?$allocator@D@2@@std@@IAEXII@Z 00405bf0 f i PictureEx.obj
 0001:00004d70       ?max_size@?$allocator@UTFrame@CPictureEx@@@std@@QBEIXZ 00405d70 f i PictureEx.obj
 0001:00004da0       ??Y?$_Vector_iterator@UTFrame@CPictureEx@@V?$allocator@UTFrame@CPictureEx@@@std@@@std@@QAEAAV01@H@Z 00405da0 f i PictureEx.obj
 0001:00004dc0       ??G?$_Vector_const_iterator@UTFrame@CPictureEx@@V?$allocator@UTFrame@CPictureEx@@@std@@@std@@QBEHABV01@@Z 00405dc0 f i PictureEx.obj
 0001:00004e00       ??8?$_Vector_const_iterator@UCONTENTSITEM@@V?$allocator@UCONTENTSITEM@@@std@@@std@@QBE_NABV01@@Z 00405e00 f i down_window_hacf.obj
 0001:00004e00       ??8?$_Vector_const_iterator@UTFrame@CPictureEx@@V?$allocator@UTFrame@CPictureEx@@@std@@@std@@QBE_NABV01@@Z 00405e00 f i PictureEx.obj
 0001:00004e40       ?assign@?$basic_string@DU?$char_traits@D@std@@V?$allocator@D@2@@std@@QAEAAV12@PBD@Z 00405e40 f i PictureEx.obj
 0001:00004e70       ?length@?$char_traits@D@std@@SAIPBD@Z 00405e70 f i PictureEx.obj
 0001:00004e90       ?allocate@?$allocator@D@std@@QAEPADI@Z 00405e90 f i PictureEx.obj
 0001:00004eb0       ?max_size@?$allocator@D@std@@QBEIXZ 00405eb0 f i PictureEx.obj
 0001:00004ee0       ??Y?$_Vector_const_iterator@UTFrame@CPictureEx@@V?$allocator@UTFrame@CPictureEx@@@std@@@std@@QAEAAV01@H@Z 00405ee0 f i PictureEx.obj
 0001:00004f40       ?assign@?$basic_string@DU?$char_traits@D@std@@V?$allocator@D@2@@std@@QAEAAV12@PBDI@Z 00405f40 f i PictureEx.obj
 0001:00004fd0       ?_Inside@?$basic_string@DU?$char_traits@D@std@@V?$allocator@D@2@@std@@IAE_NPBD@Z 00405fd0 f i PictureEx.obj
 0001:00005010       ??$copy_s@U?$char_traits@D@std@@@_Traits_helper@std@@YAPADPADIPBDI@Z 00406010 f i PictureEx.obj
 0001:00005040       ??$unchecked_copy@PAUTFrame@CPictureEx@@PAU12@@stdext@@YAPAUTFrame@CPictureEx@@PAU12@00@Z 00406040 f i PictureEx.obj
 0001:000050b0       ??$unchecked_uninitialized_fill_n@PAUTFrame@CPictureEx@@IU12@V?$allocator@UTFrame@CPictureEx@@@std@@@stdext@@YAXPAUTFrame@CPictureEx@@IABU12@AAV?$allocator@UTFrame@CPictureEx@@@std@@@Z 004060b0 f i PictureEx.obj
 0001:000050f0       ??$move_s@U?$char_traits@D@std@@@_Traits_helper@std@@YAPADPADIPBDI@Z 004060f0 f i PictureEx.obj
 0001:00005120       ??$_Destroy_range@UTFrame@CPictureEx@@V?$allocator@UTFrame@CPictureEx@@@std@@@std@@YAXPAUTFrame@CPictureEx@@0AAV?$allocator@UTFrame@CPictureEx@@@0@@Z 00406120 f i PictureEx.obj
 0001:00005160       ??$_Umove@PAUTFrame@CPictureEx@@@?$vector@UTFrame@CPictureEx@@V?$allocator@UTFrame@CPictureEx@@@std@@@std@@IAEPAUTFrame@CPictureEx@@PAU23@00@Z 00406160 f i PictureEx.obj
 0001:00005190       ??$fill@PAUTFrame@CPictureEx@@U12@@std@@YAXPAUTFrame@CPictureEx@@0ABU12@@Z 00406190 f i PictureEx.obj
 0001:000051c0       ??$_Unchecked_move_backward@PAUTFrame@CPictureEx@@PAU12@@stdext@@YAPAUTFrame@CPictureEx@@PAU12@00@Z 004061c0 f i PictureEx.obj
 0001:00005230       ??$_Allocate@UTFrame@CPictureEx@@@std@@YAPAUTFrame@CPictureEx@@IPAU12@@Z 00406230 f i PictureEx.obj
 0001:00005280       ??0bad_alloc@std@@QAE@PBD@Z 00406280 f i PictureEx.obj
 0001:000052b0       ??1bad_alloc@std@@UAE@XZ   004062b0 f i PictureEx.obj
 0001:000052d0       ??_Gbad_alloc@std@@UAEPAXI@Z 004062d0 f i PictureEx.obj
 0001:000052d0       ??_Ebad_alloc@std@@UAEPAXI@Z 004062d0 f i PictureEx.obj
 0001:00005300       ??$_Allocate@D@std@@YAPADIPAD@Z 00406300 f i PictureEx.obj
 0001:00005350       ??0bad_alloc@std@@QAE@ABV01@@Z 00406350 f i PictureEx.obj
 0001:00005380       ??$copy_s@U?$char_traits@D@std@@@_Traits_helper@std@@YAPADPADIPBDIU_Secure_char_traits_tag@1@@Z 00406380 f i PictureEx.obj
 0001:000053a0       ?_Copy_s@?$char_traits@D@std@@SAPADPADIPBDI@Z 004063a0 f i PictureEx.obj
 0001:000053c0       ??$_Move_cat@PAV?$CStringT@DV?$StrTraitMFC@DV?$ChTraitsCRT@D@ATL@@@@@ATL@@@std@@YA?AU_Undefined_move_tag@0@ABQAV?$CStringT@DV?$StrTraitMFC@DV?$ChTraitsCRT@D@ATL@@@@@ATL@@@Z 004063c0 f i down_window_init.obj
 0001:000053c0       ??$_Ptr_cat@PAUTFrame@CPictureEx@@PAU12@@std@@YA?AU_Nonscalar_ptr_iterator_tag@0@AAPAUTFrame@CPictureEx@@0@Z 004063c0 f i PictureEx.obj
 0001:000053c0       ??$_Move_cat@PAUTFrame@CPictureEx@@@std@@YA?AU_Undefined_move_tag@0@ABQAUTFrame@CPictureEx@@@Z 004063c0 f i PictureEx.obj
 0001:000053c0       ??$_Ptr_cat@PAV?$CStringT@DV?$StrTraitMFC@DV?$ChTraitsCRT@D@ATL@@@@@ATL@@PAV12@@std@@YA?AU_Nonscalar_ptr_iterator_tag@0@AAPAV?$CStringT@DV?$StrTraitMFC@DV?$ChTraitsCRT@D@ATL@@@@@ATL@@0@Z 004063c0 f i down_window_init.obj
 0001:000053c0       ??$_Ptr_cat@PAUCONTENTSITEM@@PAU1@@std@@YA?AU_Nonscalar_ptr_iterator_tag@0@AAPAUCONTENTSITEM@@0@Z 004063c0 f i Worker.obj
 0001:000053c0       ??$_Move_cat@PAUCONTENTSITEM@@@std@@YA?AU_Undefined_move_tag@0@ABQAUCONTENTSITEM@@@Z 004063c0 f i Worker.obj
 0001:000053c0       ??$_Char_traits_cat@U?$char_traits@D@std@@@std@@YA?AU_Secure_char_traits_tag@0@XZ 004063c0 f i PictureEx.obj
 0001:000053d0       ??$_Copy_opt@PAUTFrame@CPictureEx@@PAU12@@std@@YAPAUTFrame@CPictureEx@@PAU12@00Urandom_access_iterator_tag@0@U_Nonscalar_ptr_iterator_tag@0@U_Range_checked_iterator_tag@0@@Z 004063d0 f i PictureEx.obj
 0001:00005430       ??$_Uninit_fill_n@PAUTFrame@CPictureEx@@IU12@V?$allocator@UTFrame@CPictureEx@@@std@@@std@@YAXPAUTFrame@CPictureEx@@IABU12@AAV?$allocator@UTFrame@CPictureEx@@@0@U_Nonscalar_ptr_iterator_tag@0@U_Range_checked_iterator_tag@0@@Z 00406430 f i PictureEx.obj
 0001:000054f0       ??$move_s@U?$char_traits@D@std@@@_Traits_helper@std@@YAPADPADIPBDIU_Secure_char_traits_tag@1@@Z 004064f0 f i PictureEx.obj
 0001:00005510       ?_Move_s@?$char_traits@D@std@@SAPADPADIPBDI@Z 00406510 f i PictureEx.obj
 0001:00005530       ??$_Destroy_range@UTFrame@CPictureEx@@V?$allocator@UTFrame@CPictureEx@@@std@@@std@@YAXPAUTFrame@CPictureEx@@0AAV?$allocator@UTFrame@CPictureEx@@@0@U_Nonscalar_ptr_iterator_tag@0@@Z 00406530 f i PictureEx.obj
 0001:00005560       ??$_Unchecked_uninitialized_move@PAUTFrame@CPictureEx@@PAU12@V?$allocator@UTFrame@CPictureEx@@@std@@@stdext@@YAPAUTFrame@CPictureEx@@PAU12@00AAV?$allocator@UTFrame@CPictureEx@@@std@@@Z 00406560 f i PictureEx.obj
 0001:000055b0       ??$_Fill@PAUTFrame@CPictureEx@@U12@@std@@YAXPAUTFrame@CPictureEx@@0ABU12@@Z 004065b0 f i PictureEx.obj
 0001:000055e0       ??$_Move_backward_opt@PAUTFrame@CPictureEx@@PAU12@Urandom_access_iterator_tag@std@@U_Undefined_move_tag@4@@std@@YAPAUTFrame@CPictureEx@@PAU12@00Urandom_access_iterator_tag@0@U_Undefined_move_tag@0@U_Range_checked_iterator_tag@0@@Z 004065e0 f i PictureEx.obj
 0001:00005620       ?construct@?$allocator@UTFrame@CPictureEx@@@std@@QAEXPAUTFrame@CPictureEx@@ABU34@@Z 00406620 f i PictureEx.obj
 0001:00005640       ??$_Copy_opt@PAUTFrame@CPictureEx@@PAU12@Uforward_iterator_tag@std@@@std@@YAPAUTFrame@CPictureEx@@PAU12@00Uforward_iterator_tag@0@U_Nonscalar_ptr_iterator_tag@0@U_Range_checked_iterator_tag@0@@Z 00406640 f i PictureEx.obj
 0001:00005680       ??$_Uninit_move@PAUTFrame@CPictureEx@@PAU12@V?$allocator@UTFrame@CPictureEx@@@std@@U_Undefined_move_tag@4@@std@@YAPAUTFrame@CPictureEx@@PAU12@00AAV?$allocator@UTFrame@CPictureEx@@@0@U_Undefined_move_tag@0@U_Range_checked_iterator_tag@0@@Z 00406680 f i PictureEx.obj
 0001:000056a0       ??$_Copy_backward_opt@PAUTFrame@CPictureEx@@PAU12@@std@@YAPAUTFrame@CPictureEx@@PAU12@00Urandom_access_iterator_tag@0@U_Nonscalar_ptr_iterator_tag@0@U_Range_checked_iterator_tag@0@@Z 004066a0 f i PictureEx.obj
 0001:00005700       ??$_Construct@UTFrame@CPictureEx@@U12@@std@@YAXPAUTFrame@CPictureEx@@ABU12@@Z 00406700 f i PictureEx.obj
 0001:00005750       ??2@YAPAXIPAX@Z            00406750 f i PictureEx.obj
 0001:00005760       ??$unchecked_uninitialized_copy@PAUTFrame@CPictureEx@@PAU12@V?$allocator@UTFrame@CPictureEx@@@std@@@stdext@@YAPAUTFrame@CPictureEx@@PAU12@00AAV?$allocator@UTFrame@CPictureEx@@@std@@@Z 00406760 f i PictureEx.obj
 0001:000057c0       ??$_Copy_backward_opt@PAUTFrame@CPictureEx@@PAU12@Uforward_iterator_tag@std@@@std@@YAPAUTFrame@CPictureEx@@PAU12@00Uforward_iterator_tag@0@U_Nonscalar_ptr_iterator_tag@0@U_Range_checked_iterator_tag@0@@Z 004067c0 f i PictureEx.obj
 0001:00005800       ??$_Uninit_copy@PAUTFrame@CPictureEx@@PAU12@V?$allocator@UTFrame@CPictureEx@@@std@@@std@@YAPAUTFrame@CPictureEx@@PAU12@00AAV?$allocator@UTFrame@CPictureEx@@@0@U_Nonscalar_ptr_iterator_tag@0@U_Range_checked_iterator_tag@0@@Z 00406800 f i PictureEx.obj
 0001:000058c0       ??1AFX_EXCEPTION_LINK@@QAE@XZ 004068c0 f i PictureEx.obj
 0001:000058d0       ?AfxGetResourceHandle@@YGPAUHINSTANCE__@@XZ 004068d0 f i PictureEx.obj
 0001:000058e0       ?Invalidate@CWnd@@QAEXH@Z  004068e0 f i PictureEx.obj
 0001:00005900       ?DoDataExchange@CWnd@@MAEXPAVCDataExchange@@@Z 00406900 f i PictureEx.obj
 0001:00005900       ?Serialize@CObject@@UAEXAAVCArchive@@@Z 00406900 f i down_client.obj
 0001:00005910       ?BeginModalState@CWnd@@UAEXXZ 00406910 f i PictureEx.obj
 0001:00005930       ?EndModalState@CWnd@@UAEXXZ 00406930 f i PictureEx.obj
 0001:00005950       ??0CStatic@@QAE@XZ         00406950 f i PictureEx.obj
 0001:00005970       ??_ECStatic@@UAEPAXI@Z     00406970 f i PictureEx.obj
 0001:00005970       ??_GCStatic@@UAEPAXI@Z     00406970 f i PictureEx.obj
 0001:000059a0       ??0CSkinHeaderCtrl@@QAE@XZ 004069a0 f   SkinListCtrl.obj
 0001:00005a30       ??1CSkinHeaderCtrl@@UAE@XZ 00406a30 f   SkinListCtrl.obj
 0001:00005a90       ?GetMessageMap@CSkinHeaderCtrl@@MBEPBUAFX_MSGMAP@@XZ 00406a90 f   SkinListCtrl.obj
 0001:00005aa0       ?GetThisMessageMap@CSkinHeaderCtrl@@KGPBUAFX_MSGMAP@@XZ 00406aa0 f   SkinListCtrl.obj
 0001:00005ab0       ?SetColors@CSkinHeaderCtrl@@QAEXKK@Z 00406ab0 f   SkinListCtrl.obj
 0001:00005b70       ?OnCustomDraw@CSkinHeaderCtrl@@IAEXPAUtagNMHDR@@PAJ@Z 00406b70 f   SkinListCtrl.obj
 0001:00005f70       ?InitHeaderImage@CSkinHeaderCtrl@@QAEXXZ 00406f70 f   SkinListCtrl.obj
 0001:00005fa0       ??0CSkinListCtrl@@QAE@XZ   00406fa0 f   SkinListCtrl.obj
 0001:000060e0       ??1CSkinListCtrl@@UAE@XZ   004070e0 f   SkinListCtrl.obj
 0001:00006160       ?GetMessageMap@CSkinListCtrl@@MBEPBUAFX_MSGMAP@@XZ 00407160 f   SkinListCtrl.obj
 0001:00006170       ?GetThisMessageMap@CSkinListCtrl@@KGPBUAFX_MSGMAP@@XZ 00407170 f   SkinListCtrl.obj
 0001:00006180       ?PreSubclassWindow@CSkinListCtrl@@MAEXXZ 00407180 f   SkinListCtrl.obj
 0001:00006270       ?SetListColor@CSkinListCtrl@@QAEXKKKKKKKKKKK@Z 00407270 f   SkinListCtrl.obj
 0001:00006310       ?SetHeaderColors@CSkinListCtrl@@QAEXKK@Z 00407310 f   SkinListCtrl.obj
 0001:00006330       ?OnPaint@CSkinListCtrl@@IAEXXZ 00407330 f   SkinListCtrl.obj
 0001:00006350       ?OnCustomDraw@CSkinListCtrl@@MAEXPAUtagNMHDR@@PAJ@Z 00407350 f   SkinListCtrl.obj
 0001:00006ff0       ?GetCellRect@CSkinListCtrl@@QAEHHHHAAVCRect@@@Z 00407ff0 f   SkinListCtrl.obj
 0001:000070b0       ?OnDestroy@CSkinListCtrl@@IAEXXZ 004080b0 f   SkinListCtrl.obj
 0001:000070d0       ?SetToolTips@CSkinListCtrl@@QAEXH@Z 004080d0 f   SkinListCtrl.obj
 0001:000070f0       ?OnToolHitTest@CSkinListCtrl@@UBEHVCPoint@@PAUtagTOOLINFOA@@@Z 004080f0 f   SkinListCtrl.obj
 0001:000071a0       ?OnToolTipText@CSkinListCtrl@@IAEHIPAUtagNMHDR@@PAJ@Z 004081a0 f   SkinListCtrl.obj
 0001:00007320       ?GetRowFromPoint@CSkinListCtrl@@IBEHAAVCPoint@@PAVCRect@@PAH@Z 00408320 f   SkinListCtrl.obj
 0001:00007490       ??_GCSkinHeaderCtrl@@UAEPAXI@Z 00408490 f i SkinListCtrl.obj
 0001:00007490       ??_ECSkinHeaderCtrl@@UAEPAXI@Z 00408490 f i SkinListCtrl.obj
 0001:000074c0       ??_ECSkinListCtrl@@UAEPAXI@Z 004084c0 f i SkinListCtrl.obj
 0001:000074c0       ??_GCSkinListCtrl@@UAEPAXI@Z 004084c0 f i SkinListCtrl.obj
 0001:000074f0       ??_9CSkinListCtrl@@$BBDI@AE 004084f0 f i SkinListCtrl.obj
 0001:00007500       ?_mbstowcsz@ATL@@YAHPA_WPBDK@Z 00408500 f i SkinListCtrl.obj
 0001:00007590       ??0CPoint@@QAE@HH@Z        00408590 f i SkinListCtrl.obj
 0001:000075c0       ??0CRect@@QAE@HHHH@Z       004085c0 f i SkinListCtrl.obj
 0001:00007600       ??0CRect@@QAE@ABUtagRECT@@@Z 00408600 f i SkinListCtrl.obj
 0001:00007620       ?Width@CRect@@QBEHXZ       00408620 f i SkinListCtrl.obj
 0001:00007640       ?PtInRect@CRect@@QBEHUtagPOINT@@@Z 00408640 f i SkinListCtrl.obj
 0001:00007660       ?DeflateRect@CRect@@QAEXHH@Z 00408660 f i SkinListCtrl.obj
 0001:00007690       ?DeflateRect@CRect@@QAEXHHHH@Z 00408690 f i SkinListCtrl.obj
 0001:000076e0       ??0CPen@@QAE@XZ            004086e0 f i SkinListCtrl.obj
 0001:00007700       ??0CGdiObject@@QAE@XZ      00408700 f i SkinListCtrl.obj
 0001:00007730       ??_GCGdiObject@@UAEPAXI@Z  00408730 f i SkinListCtrl.obj
 0001:00007730       ??_ECGdiObject@@UAEPAXI@Z  00408730 f i SkinListCtrl.obj
 0001:00007760       ??1CGdiObject@@UAE@XZ      00408760 f i SkinListCtrl.obj
 0001:00007900       ??1CObject@@UAE@XZ         00408900 f i SkinListCtrl.obj
 0001:00007910       ??_GCPen@@UAEPAXI@Z        00408910 f i SkinListCtrl.obj
 0001:00007910       ??_ECPen@@UAEPAXI@Z        00408910 f i SkinListCtrl.obj
 0001:00007940       ??1CPen@@UAE@XZ            00408940 f i SkinListCtrl.obj
 0001:00007960       ?CreatePen@CPen@@QAEHHHK@Z 00408960 f i SkinListCtrl.obj
 0001:00007990       ??0CBrush@@QAE@XZ          00408990 f i SkinListCtrl.obj
 0001:000079b0       ??_GCBrush@@UAEPAXI@Z      004089b0 f i SkinListCtrl.obj
 0001:000079b0       ??_ECBrush@@UAEPAXI@Z      004089b0 f i SkinListCtrl.obj
 0001:000079e0       ??1CBrush@@UAE@XZ          004089e0 f i SkinListCtrl.obj
 0001:00007a00       ?CreateSolidBrush@CBrush@@QAEHK@Z 00408a00 f i SkinListCtrl.obj
 0001:00007a20       ??0CBitmap@@QAE@XZ         00408a20 f i SkinListCtrl.obj
 0001:00007a40       ??_ECBitmap@@UAEPAXI@Z     00408a40 f i SkinListCtrl.obj
 0001:00007a40       ??_GCBitmap@@UAEPAXI@Z     00408a40 f i SkinListCtrl.obj
 0001:00007a70       ??1CBitmap@@UAE@XZ         00408a70 f i SkinListCtrl.obj
 0001:00007a90       ?LoadBitmapA@CBitmap@@QAEHI@Z 00408a90 f i SkinListCtrl.obj
 0001:00007ac0       ?GetBitmap@CBitmap@@QAEHPAUtagBITMAP@@@Z 00408ac0 f i SkinListCtrl.obj
 0001:00007ae0       ??0CRgn@@QAE@XZ            00408ae0 f i SkinListCtrl.obj
 0001:00007b00       ??_GCRgn@@UAEPAXI@Z        00408b00 f i SkinListCtrl.obj
 0001:00007b00       ??_ECRgn@@UAEPAXI@Z        00408b00 f i SkinListCtrl.obj
 0001:00007b30       ??1CRgn@@UAE@XZ            00408b30 f i SkinListCtrl.obj
 0001:00007b50       ?CreateRectRgnIndirect@CRgn@@QAEHPBUtagRECT@@@Z 00408b50 f i SkinListCtrl.obj
 0001:00007b70       ?SetRectRgn@CRgn@@QAEXPBUtagRECT@@@Z 00408b70 f i SkinListCtrl.obj
 0001:00007bb0       ?CreateCompatibleDC@CDC@@QAEHPAV1@@Z 00408bb0 f i SkinListCtrl.obj
 0001:00007be0       ??BCDC@@QBEPAUHDC__@@XZ    00408be0 f i SkinDialog.obj
 0001:00007be0       ?GetSafeHandle@CGdiObject@@QBEPAXXZ 00408be0 f i SkinListCtrl.obj
 0001:00007be0       ?GetSafeHdc@CDC@@QBEPAUHDC__@@XZ 00408be0 f i SkinListCtrl.obj
 0001:00007be0       ??BCGdiObject@@QBEPAXXZ    00408be0 f i SkinButton.obj
 0001:00007be0       ??BCBitmap@@QBEPAUHBITMAP__@@XZ 00408be0 f i SkinButton.obj
 0001:00007be0       ?GetSafeHandle@CImageList@@QBEPAU_IMAGELIST@@XZ 00408be0 f i use_window.obj
 0001:00007c10       ?GetDeviceCaps@CDC@@QBEHH@Z 00408c10 f i SkinListCtrl.obj
 0001:00007c30       ?SelectObject@CDC@@QAEPAVCBitmap@@PAV2@@Z 00408c30 f i SkinListCtrl.obj
 0001:00007c60       ?FillRect@CDC@@QAEXPBUtagRECT@@PAVCBrush@@@Z 00408c60 f i SkinListCtrl.obj
 0001:00007c90       ?DrawFocusRect@CDC@@QAEXPBUtagRECT@@@Z 00408c90 f i SkinListCtrl.obj
 0001:00007cb0       ?Rectangle@CDC@@QAEHPBUtagRECT@@@Z 00408cb0 f i SkinListCtrl.obj
 0001:00007cf0       ?StretchBlt@CDC@@QAEHHHHHPAV1@HHHHK@Z 00408cf0 f i SkinListCtrl.obj
 0001:00007d40       ?DrawTextA@CDC@@QAEHABV?$CStringT@DV?$StrTraitMFC@DV?$ChTraitsCRT@D@ATL@@@@@ATL@@PAUtagRECT@@I@Z 00408d40 f i SkinListCtrl.obj
 0001:00007d80       ?GetTextExtent@CDC@@QBE?AVCSize@@PBDH@Z 00408d80 f i SkinListCtrl.obj
 0001:00007dc0       ??0CSize@@QAE@UtagSIZE@@@Z 00408dc0 f i SkinListCtrl.obj
 0001:00007dc0       ??0CTime@ATL@@QAE@_J@Z     00408dc0 f i HtmlViewer.obj
 0001:00007de0       ?GetTextExtent@CDC@@QBE?AVCSize@@ABV?$CStringT@DV?$StrTraitMFC@DV?$ChTraitsCRT@D@ATL@@@@@ATL@@@Z 00408de0 f i SkinListCtrl.obj
 0001:00007e30       ??BCWnd@@QBEPAUHWND__@@XZ  00408e30 f i Worker.obj
 0001:00007e30       ?GetSafeHwnd@CWnd@@QBEPAUHWND__@@XZ 00408e30 f i SkinListCtrl.obj
 0001:00007e60       ?GetFont@CWnd@@QBEPAVCFont@@XZ 00408e60 f i SkinListCtrl.obj
 0001:00007e90       ?FromHandle@CFont@@SGPAV1@PAUHFONT__@@@Z 00408e90 f i SkinListCtrl.obj
 0001:00007ea0       ?GetClientRect@CWnd@@QBEXPAUtagRECT@@@Z 00408ea0 f i SkinListCtrl.obj
 0001:00007ec0       ?GetFocus@CWnd@@SGPAV1@XZ  00408ec0 f i SkinListCtrl.obj
 0001:00007ee0       ??0CListCtrl@@QAE@XZ       00408ee0 f i SkinListCtrl.obj
 0001:00007f00       ??_ECListCtrl@@UAEPAXI@Z   00408f00 f i SkinListCtrl.obj
 0001:00007f00       ??_GCListCtrl@@UAEPAXI@Z   00408f00 f i SkinListCtrl.obj
 0001:00007f30       ?GetImageList@CListCtrl@@QBEPAVCImageList@@H@Z 00408f30 f i SkinListCtrl.obj
 0001:00007f60       ?GetItemCount@CListCtrl@@QBEHXZ 00408f60 f i SkinListCtrl.obj
 0001:00007f90       ?GetItem@CListCtrl@@QBEHPAUtagLVITEMA@@@Z 00408f90 f i SkinListCtrl.obj
 0001:00007fc0       ?GetColumn@CListCtrl@@QBEHHPAUtagLVCOLUMNA@@@Z 00408fc0 f i SkinListCtrl.obj
 0001:00007ff0       ?GetColumnWidth@CListCtrl@@QBEHH@Z 00408ff0 f i SkinListCtrl.obj
 0001:00008020       ?GetTopIndex@CListCtrl@@QBEHXZ 00409020 f i SkinListCtrl.obj
 0001:00008050       ?GetCountPerPage@CListCtrl@@QBEHXZ 00409050 f i SkinListCtrl.obj
 0001:00008080       ?GetItemState@CListCtrl@@QBEIHI@Z 00409080 f i SkinListCtrl.obj
 0001:000080b0       ??0CHeaderCtrl@@QAE@XZ     004090b0 f i SkinListCtrl.obj
 0001:000080d0       ??_ECHeaderCtrl@@UAEPAXI@Z 004090d0 f i SkinListCtrl.obj
 0001:000080d0       ??_GCHeaderCtrl@@UAEPAXI@Z 004090d0 f i SkinListCtrl.obj
 0001:00008100       ?GetItemCount@CHeaderCtrl@@QBEHXZ 00409100 f i SkinListCtrl.obj
 0001:00008130       ?GetItem@CHeaderCtrl@@QBEHHPAU_HD_ITEMA@@@Z 00409130 f i SkinListCtrl.obj
 0001:00008160       ?Draw@CImageList@@QAEHPAVCDC@@HUtagPOINT@@I@Z 00409160 f i SkinListCtrl.obj
 0001:000081a0       ?AfxImageList_Draw@@YGHPAU_IMAGELIST@@HPAUHDC__@@HHI@Z 004091a0 f i SkinListCtrl.obj
 0001:000081d0       ?_ImageList_Draw@CComCtlWrapper@@QAEHPAU_IMAGELIST@@HPAUHDC__@@HHI@Z 004091d0 f i SkinListCtrl.obj
 0001:00008310       ?GetProcAddress_ImageList_Draw@CComCtlWrapper@@QAE?AUImageList_Draw_Type@1@XZ 00409310 f i SkinListCtrl.obj
 0001:00008360       ?GetModuleHandleA@CDllIsolationWrapperBase@@QAEPAUHINSTANCE__@@XZ 00409360 f i SkinListCtrl.obj
 0001:000083d0       ??4ImageList_Draw_Type@CComCtlWrapper@@QAEXP6GHPAU_IMAGELIST@@HPAUHDC__@@HHI@Z@Z 004093d0 f i SkinListCtrl.obj
 0001:000083f0       ??0?$CStringT@DV?$StrTraitMFC@DV?$ChTraitsCRT@D@ATL@@@@@ATL@@QAE@PBD@Z 004093f0 f i SkinListCtrl.obj
 0001:00008470       ??4?$CStringT@DV?$StrTraitMFC@DV?$ChTraitsCRT@D@ATL@@@@@ATL@@QAEAAV01@ABV01@@Z 00409470 f i SkinListCtrl.obj
 0001:00008490       ?CheckImplicitLoad@?$CStringT@DV?$StrTraitMFC@DV?$ChTraitsCRT@D@ATL@@@@@ATL@@AAE_NPBX@Z 00409490 f i SkinListCtrl.obj
 0001:000084e0       ?LoadStringA@?$CStringT@DV?$StrTraitMFC@DV?$ChTraitsCRT@D@ATL@@@@@ATL@@QAEHI@Z 004094e0 f i SkinListCtrl.obj
 0001:00008520       ?LoadStringA@?$CStringT@DV?$StrTraitMFC@DV?$ChTraitsCRT@D@ATL@@@@@ATL@@QAEHPAUHINSTANCE__@@I@Z 00409520 f i SkinListCtrl.obj
 0001:000085b0       ?AtlGetStringResourceImage@ATL@@YAPBUATLSTRINGRESOURCEIMAGE@1@PAUHINSTANCE__@@I@Z 004095b0 f i SkinListCtrl.obj
 0001:00008600       ?_AtlGetStringResourceImage@ATL@@YAPBUATLSTRINGRESOURCEIMAGE@1@PAUHINSTANCE__@@PAUHRSRC__@@I@Z 00409600 f i SkinListCtrl.obj
 0001:000086b0       ??4?$CSimpleStringT@D$0A@@ATL@@QAEAAV01@ABV01@@Z 004096b0 f i SkinListCtrl.obj
 0001:00008740       ?FindStringResourceInstance@?$StrTraitMFC@DV?$ChTraitsCRT@D@ATL@@@@SAPAUHINSTANCE__@@I@Z 00409740 f i SkinListCtrl.obj
 0001:00008750       ?CloneData@?$CSimpleStringT@D$0A@@ATL@@CAPAUCStringData@2@PAU32@@Z 00409750 f i SkinListCtrl.obj
 0001:00008800       ?AddRef@CStringData@ATL@@QAEXXZ 00409800 f i SkinListCtrl.obj
 0001:00008820       ?GetBaseTypeLength@?$ChTraitsCRT@D@ATL@@SAHPB_WH@Z 00409820 f i SkinListCtrl.obj
 0001:00008850       ?ConvertToBaseType@?$ChTraitsCRT@D@ATL@@SAXPADHPB_WH@Z 00409850 f i SkinListCtrl.obj
 0001:00008880       ??0FtpClient@@QAE@XZ       00409880 f   FtpClient.obj
 0001:00008940       ??1FtpClient@@QAE@XZ       00409940 f   FtpClient.obj
 0001:000089c0       ?DisConnect@FtpClient@@QAEXXZ 004099c0 f   FtpClient.obj
 0001:000089e0       ?DownLoadEx@FtpClient@@QAE_NPAD0_J@Z 004099e0 f   FtpClient.obj
 0001:00008d20       ?DownLoad@FtpClient@@QAE_NPAD0_J@Z 00409d20 f   FtpClient.obj
 0001:00009130       ?FileCheckOpen@FtpClient@@QAE_NXZ 0040a130 f   FtpClient.obj
 0001:00009260       ?FileTransEx@FtpClient@@QAEXXZ 0040a260 f   FtpClient.obj
 0001:00009990       ?FileTrans@FtpClient@@QAEXXZ 0040a990 f   FtpClient.obj
 0001:0000a970       ?MakeFolder@FtpClient@@QAE_NPAD@Z 0040b970 f   FtpClient.obj
 0001:0000aaf0       ?ProcFileTrans@@YGIPAX@Z   0040baf0 f   FtpClient.obj
 0001:0000ab30       ?ProcFileTransEx@@YGIPAX@Z 0040bb30 f   FtpClient.obj
 0001:0000ab60       ?Find@?$CStringT@DV?$StrTraitMFC@DV?$ChTraitsCRT@D@ATL@@@@@ATL@@QBEHPBDH@Z 0040bb60 f i FtpClient.obj
 0001:0000abe0       ?ReverseFind@?$CStringT@DV?$StrTraitMFC@DV?$ChTraitsCRT@D@ATL@@@@@ATL@@QBEHD@Z 0040bbe0 f i FtpClient.obj
 0001:0000ac30       ?Mid@?$CStringT@DV?$StrTraitMFC@DV?$ChTraitsCRT@D@ATL@@@@@ATL@@QBE?AV12@HH@Z 0040bc30 f i FtpClient.obj
 0001:0000ad10       ?Right@?$CStringT@DV?$StrTraitMFC@DV?$ChTraitsCRT@D@ATL@@@@@ATL@@QBE?AV12@H@Z 0040bd10 f i FtpClient.obj
 0001:0000ad90       ?Left@?$CStringT@DV?$StrTraitMFC@DV?$ChTraitsCRT@D@ATL@@@@@ATL@@QBE?AV12@H@Z 0040bd90 f i FtpClient.obj
 0001:0000ae10       ?SetAt@?$CSimpleStringT@D$0A@@ATL@@QAEXHD@Z 0040be10 f i FtpClient.obj
 0001:0000ae70       ?GetBuffer@?$CSimpleStringT@D$0A@@ATL@@QAEPADXZ 0040be70 f i FtpClient.obj
 0001:0000aeb0       ??0?$CStringT@DV?$StrTraitMFC@DV?$ChTraitsCRT@D@ATL@@@@@ATL@@QAE@PBDHPAUIAtlStringMgr@1@@Z 0040beb0 f i FtpClient.obj
 0001:0000aee0       ?GetManager@?$CStringT@DV?$StrTraitMFC@DV?$ChTraitsCRT@D@ATL@@@@@ATL@@QBEPAUIAtlStringMgr@2@XZ 0040bee0 f i FtpClient.obj
 0001:0000af20       ?StringFindString@?$ChTraitsCRT@D@ATL@@SAPBDPBD0@Z 0040bf20 f i FtpClient.obj
 0001:0000af40       ?StringFindCharRev@?$ChTraitsCRT@D@ATL@@SAPBDPBDD@Z 0040bf40 f i FtpClient.obj
 0001:0000af60       ??0?$CSimpleStringT@D$0A@@ATL@@QAE@PBDHPAUIAtlStringMgr@1@@Z 0040bf60 f i FtpClient.obj
 0001:0000b000       ?GetManager@?$CSimpleStringT@D$0A@@ATL@@QBEPAUIAtlStringMgr@2@XZ 0040c000 f i FtpClient.obj
 0001:0000b040       ??$AtlAddThrow@H@ATL@@YAHHH@Z 0040c040 f i FtpClient.obj
 0001:0000b080       ??$AtlAdd@H@ATL@@YAJPAHHH@Z 0040c080 f i FtpClient.obj
 0001:0000b0b0       ?SetTimer@CWnd@@QAEIIIP6GXPAUHWND__@@IIK@Z@Z 0040c0b0 f i FtpClient.obj
 0001:0000b0e0       ??0?$CStringT@DV?$StrTraitMFC@DV?$ChTraitsCRT@D@ATL@@@@@ATL@@QAE@ABV01@@Z 0040c0e0 f i FtpClient.obj
 0001:0000b100       ?ReleaseBuffer@?$CSimpleStringT@D$0A@@ATL@@QAEXH@Z 0040c100 f i FtpClient.obj
 0001:0000b130       ??0?$CSimpleStringT@D$0A@@ATL@@QAE@ABV01@@Z 0040c130 f i FtpClient.obj
 0001:0000b170       ??0NetworkController@@QAE@XZ 0040c170 f   NetworkController.obj
 0001:0000b490       ??1NetworkController@@QAE@XZ 0040c490 f   NetworkController.obj
 0001:0000b690       ?PrepareResponse@NetworkController@@QAEXK@Z 0040c690 f   NetworkController.obj
 0001:0000bab0       ?RecvData@NetworkController@@UAEXPAVPacket@@@Z 0040cab0 f   NetworkController.obj
 0001:0000bac0       ?GetMessageSize@NetworkController@@QAEKPBDKK@Z 0040cac0 f   NetworkController.obj
 0001:0000bb40       ?MMSocketCreate@NetworkController@@QAEHXZ 0040cb40 f   NetworkController.obj
 0001:0000bbc0       ?MMSocketConnectTCP@NetworkController@@QAEHXZ 0040cbc0 f   NetworkController.obj
 0001:0000bd60       ?MMSocketClose@NetworkController@@QAEXXZ 0040cd60 f   NetworkController.obj
 0001:0000be50       ?MMServerFree@NetworkController@@QAEXXZ 0040ce50 f   NetworkController.obj
 0001:0000bef0       ?MMCreateThreadPool@NetworkController@@QAEHI@Z 0040cef0 f   NetworkController.obj
 0001:0000bff0       ?MMForceThreadKill@NetworkController@@QAEXPAX@Z 0040cff0 f   NetworkController.obj
 0001:0000c030       ?ProcessingSendThread@NetworkController@@QAEXXZ 0040d030 f   NetworkController.obj
 0001:0000c100       ?ProcessingRecvThread@NetworkController@@QAEXXZ 0040d100 f   NetworkController.obj
 0001:0000c1d0       ?MMCheckSend@NetworkController@@QAEHPAVPacket@@@Z 0040d1d0 f   NetworkController.obj
 0001:0000c280       ?MMSendPost@NetworkController@@QAEHXZ 0040d280 f   NetworkController.obj
 0001:0000c540       ?MMRecvPost@NetworkController@@QAEHXZ 0040d540 f   NetworkController.obj
 0001:0000c740       ?RecvQueuePut@NetworkController@@QAE_NPAVPacket@@@Z 0040d740 f   NetworkController.obj
 0001:0000c800       ?RecvQueueGet@NetworkController@@QAEPAVPacket@@XZ 0040d800 f   NetworkController.obj
 0001:0000c870       ?RecvPacketLoop@NetworkController@@QAEXXZ 0040d870 f   NetworkController.obj
 0001:0000c940       ?ProcRecvTrans@@YGIPAX@Z   0040d940 f   NetworkController.obj
 0001:0000c960       ?RecvCompletedTCP@@YGXKKPAU_OVERLAPPED@@K@Z 0040d960 f   NetworkController.obj
 0001:0000ca60       ?SendCompletedTCP@@YGXKKPAU_OVERLAPPED@@K@Z 0040da60 f   NetworkController.obj
 0001:0000cb30       ??_G?$List@PAVPacket@@@@QAEPAXI@Z 0040db30 f i NetworkController.obj
 0001:0000cb60       ??0Packet@@QAE@XZ          0040db60 f i NetworkController.obj
 0001:0000cba0       ?Pack@Packet@@QAEHFPBDH@Z  0040dba0 f i NetworkController.obj
 0001:0000cd60       ?Unpack@Packet@@QAEHPBDH@Z 0040dd60 f i NetworkController.obj
 0001:0000cec0       ?IsValid@Packet@@QAEHXZ    0040dec0 f i NetworkController.obj
 0001:0000cf10       ??_GPacket@@QAEPAXI@Z      0040df10 f i NetworkController.obj
 0001:0000cf40       ??1Packet@@QAE@XZ          0040df40 f i NetworkController.obj
 0001:0000cf80       ?GetLength@Packet@@QAEHXZ  0040df80 f i NetworkController.obj
 0001:0000cfa0       ??0?$List@PAVPacket@@@@QAE@XZ 0040dfa0 f i NetworkController.obj
 0001:0000d080       ??1?$List@PAVPacket@@@@QAE@XZ 0040e080 f i NetworkController.obj
 0001:0000d0c0       ?AddTail@?$List@PAVPacket@@@@QAE_NAAPAVPacket@@@Z 0040e0c0 f i NetworkController.obj
 0001:0000d0f0       ?RemoveAt@?$List@PAVPacket@@@@QAE_NH_N@Z 0040e0f0 f i NetworkController.obj
 0001:0000d160       ?RemoveAll@?$List@PAVPacket@@@@QAE_N_N@Z 0040e160 f i NetworkController.obj
 0001:0000d220       ?GetAt2@?$List@PAVPacket@@@@QBEAAPAVPacket@@H@Z 0040e220 f i NetworkController.obj
 0001:0000d250       ?InsertBefore@?$List@PAVPacket@@@@QAE_NAAPAVPacket@@PAV?$cnode@PAVPacket@@@@@Z 0040e250 f i NetworkController.obj
 0001:0000d300       ?RemoveAt@?$List@PAVPacket@@@@QAE_NPAV?$cnode@PAVPacket@@@@_N@Z 0040e300 f i NetworkController.obj
 0001:0000d3c0       ?GetAt@?$List@PAVPacket@@@@QBEPAV?$cnode@PAVPacket@@@@H@Z 0040e3c0 f i NetworkController.obj
 0001:0000d420       ??0Worker@@QAE@PAVdown_window@@@Z 0040e420 f   Worker.obj
 0001:0000d480       ??1Worker@@QAE@XZ          0040e480 f   Worker.obj
 0001:0000d4a0       ?Init@Worker@@QAE_NPADI@Z  0040e4a0 f   Worker.obj
 0001:0000d4f0       ?End@Worker@@QAEXXZ        0040e4f0 f   Worker.obj
 0001:0000d520       ?SendPacket@Worker@@QAEXPAVPacket@@@Z 0040e520 f   Worker.obj
 0001:0000d5a0       ?RecvData@Worker@@UAEXPAVPacket@@@Z 0040e5a0 f   Worker.obj
 0001:0000d8d0       ?Result_Login@Worker@@QAEXPAVPacket@@@Z 0040e8d0 f   Worker.obj
 0001:0000dbf0       ?Result_DownLoadPre@Worker@@QAEXPAVPacket@@@Z 0040ebf0 f   Worker.obj
 0001:0000ff20       ?Result_DownLoadPro@Worker@@QAEXPAVPacket@@@Z 00410f20 f   Worker.obj
 0001:00010b70       ?Result_DownLoadEnd@Worker@@QAEXPAVPacket@@@Z 00411b70 f   Worker.obj
 0001:00010bf0       ?Result_Item_Add@Worker@@QAEXPAVPacket@@@Z 00411bf0 f   Worker.obj
 0001:00013060       ?Result_Dupl_Close@Worker@@QAEXPAVPacket@@@Z 00414060 f   Worker.obj
 0001:000130d0       ?SpecialText@Worker@@QAEXAAV?$CStringT@DV?$StrTraitMFC@DV?$ChTraitsCRT@D@ATL@@@@@ATL@@@Z 004140d0 f   Worker.obj
 0001:00013170       ?SlashAdd@Worker@@QAEXAAV?$CStringT@DV?$StrTraitMFC@DV?$ChTraitsCRT@D@ATL@@@@@ATL@@@Z 00414170 f   Worker.obj
 0001:00013190       ?AddComma@Worker@@QAEXAAV?$CStringT@DV?$StrTraitMFC@DV?$ChTraitsCRT@D@ATL@@@@@ATL@@_J@Z 00414190 f   Worker.obj
 0001:00013230       ?StrToCString@Worker@@QAE?AV?$CStringT@DV?$StrTraitMFC@DV?$ChTraitsCRT@D@ATL@@@@@ATL@@PADH@Z 00414230 f   Worker.obj
 0001:00013300       ?Mureka_files_check@Worker@@QAE_NXZ 00414300 f   Worker.obj
 0001:000138b0       ?GetCode@Packet@@QAEHXZ    004148b0 f i Worker.obj
 0001:000138d0       ?GetData@Packet@@QAEPADXZ  004148d0 f i Worker.obj
 0001:000138f0       ??_GCToken@@QAEPAXI@Z      004148f0 f i Worker.obj
 0001:00013920       ??1CToken@@QAE@XZ          00414920 f i Worker.obj
 0001:00013940       ??Y?$CStringT@DV?$StrTraitMFC@DV?$ChTraitsCRT@D@ATL@@@@@ATL@@QAEAAV01@ABV?$CSimpleStringT@D$0A@@1@@Z 00414940 f i Worker.obj
 0001:00013960       ??Y?$CStringT@DV?$StrTraitMFC@DV?$ChTraitsCRT@D@ATL@@@@@ATL@@QAEAAV01@PBD@Z 00414960 f i Worker.obj
 0001:00013980       ?Insert@?$CStringT@DV?$StrTraitMFC@DV?$ChTraitsCRT@D@ATL@@@@@ATL@@QAEHHD@Z 00414980 f i Worker.obj
 0001:00013a20       ?memmove_s@Checked@ATL@@YAXPAXIPBXI@Z 00414a20 f i Worker.obj
 0001:00013a50       ?Replace@?$CStringT@DV?$StrTraitMFC@DV?$ChTraitsCRT@D@ATL@@@@@ATL@@QAEHDD@Z 00414a50 f i Worker.obj
 0001:00013b10       ?Replace@?$CStringT@DV?$StrTraitMFC@DV?$ChTraitsCRT@D@ATL@@@@@ATL@@QAEHPBD0@Z 00414b10 f i Worker.obj
 0001:00013cd0       ?memcpy_s@Checked@ATL@@YAXPAXIPBXI@Z 00414cd0 f i Worker.obj
 0001:00013d00       ?Remove@?$CStringT@DV?$StrTraitMFC@DV?$ChTraitsCRT@D@ATL@@@@@ATL@@QAEHD@Z 00414d00 f i Worker.obj
 0001:00013df0       ?Find@?$CStringT@DV?$StrTraitMFC@DV?$ChTraitsCRT@D@ATL@@@@@ATL@@QBEHDH@Z 00414df0 f i Worker.obj
 0001:00013e60       ?TrimRight@?$CStringT@DV?$StrTraitMFC@DV?$ChTraitsCRT@D@ATL@@@@@ATL@@QAEAAV12@XZ 00414e60 f i Worker.obj
 0001:00013ef0       ?TrimLeft@?$CStringT@DV?$StrTraitMFC@DV?$ChTraitsCRT@D@ATL@@@@@ATL@@QAEAAV12@XZ 00414ef0 f i Worker.obj
 0001:00013fa0       ?Trim@?$CStringT@DV?$StrTraitMFC@DV?$ChTraitsCRT@D@ATL@@@@@ATL@@QAEAAV12@XZ 00414fa0 f i Worker.obj
 0001:00013fc0       ??8ATL@@YA_NABV?$CStringT@DV?$StrTraitMFC@DV?$ChTraitsCRT@D@ATL@@@@@0@PBD@Z 00414fc0 f i Worker.obj
 0001:00013fe0       ??9ATL@@YA_NABV?$CStringT@DV?$StrTraitMFC@DV?$ChTraitsCRT@D@ATL@@@@@0@PBD@Z 00414fe0 f i Worker.obj
 0001:00014000       ??9ATL@@YA_NABV?$CStringT@DV?$StrTraitMFC@DV?$ChTraitsCRT@D@ATL@@@@@0@D@Z 00415000 f i Worker.obj
 0001:00014040       ?size@?$vector@UCONTENTSITEM@@V?$allocator@UCONTENTSITEM@@@std@@@std@@QBEIXZ 00415040 f i Worker.obj
 0001:00014080       ??A?$vector@UCONTENTSITEM@@V?$allocator@UCONTENTSITEM@@@std@@@std@@QAEAAUCONTENTSITEM@@I@Z 00415080 f i Worker.obj
 0001:000140b0       ?push_back@?$vector@UCONTENTSITEM@@V?$allocator@UCONTENTSITEM@@@std@@@std@@QAEXABUCONTENTSITEM@@@Z 004150b0 f i Worker.obj
 0001:00014120       ?Compare@?$CStringT@DV?$StrTraitMFC@DV?$ChTraitsCRT@D@ATL@@@@@ATL@@QBEHPBD@Z 00415120 f i Worker.obj
 0001:00014170       ?AtlIsValidString@ATL@@YAHPBDI@Z 00415170 f i Worker.obj
 0001:00014180       ??Y?$CSimpleStringT@D$0A@@ATL@@QAEAAV01@ABV01@@Z 00415180 f i Worker.obj
 0001:000141a0       ?Append@?$CSimpleStringT@D$0A@@ATL@@QAEXABV12@@Z 004151a0 f i Worker.obj
 0001:000141d0       ?Append@?$CSimpleStringT@D$0A@@ATL@@QAEXPBDH@Z 004151d0 f i Worker.obj
 0001:00014260       ??Y?$CSimpleStringT@D$0A@@ATL@@QAEAAV01@PBD@Z 00415260 f i Worker.obj
 0001:00014280       ??A?$CSimpleStringT@D$0A@@ATL@@QBEDH@Z 00415280 f i Worker.obj
 0001:00014280       ?GetAt@?$CSimpleStringT@D$0A@@ATL@@QBEDH@Z 00415280 f i Worker.obj
 0001:000142c0       ?Truncate@?$CSimpleStringT@D$0A@@ATL@@QAEXH@Z 004152c0 f i Worker.obj
 0001:000142f0       ?CharNextA@?$ChTraitsCRT@D@ATL@@SAPADPBD@Z 004152f0 f i Worker.obj
 0001:00014310       ?IsSpace@?$ChTraitsCRT@D@ATL@@SAHD@Z 00415310 f i Worker.obj
 0001:00014330       ?StringFindString@?$ChTraitsCRT@D@ATL@@SAPADPADPBD@Z 00415330 f i Worker.obj
 0001:00014350       ?StringFindChar@?$ChTraitsCRT@D@ATL@@SAPBDPBDD@Z 00415350 f i Worker.obj
 0001:00014370       ?SafeStringLen@?$ChTraitsCRT@D@ATL@@SAHPBD@Z 00415370 f i Worker.obj
 0001:000143a0       ?capacity@?$vector@UCONTENTSITEM@@V?$allocator@UCONTENTSITEM@@@std@@@std@@QBEIXZ 004153a0 f i Worker.obj
 0001:000143e0       ?end@?$vector@UCONTENTSITEM@@V?$allocator@UCONTENTSITEM@@@std@@@std@@QAE?AV?$_Vector_iterator@UCONTENTSITEM@@V?$allocator@UCONTENTSITEM@@@std@@@2@XZ 004153e0 f i Worker.obj
 0001:000143e0       ?end@?$vector@V?$CStringT@DV?$StrTraitMFC@DV?$ChTraitsCRT@D@ATL@@@@@ATL@@V?$allocator@V?$CStringT@DV?$StrTraitMFC@DV?$ChTraitsCRT@D@ATL@@@@@ATL@@@std@@@std@@QAE?AV?$_Vector_iterator@V?$CStringT@DV?$StrTraitMFC@DV?$ChTraitsCRT@D@ATL@@@@@ATL@@V?$allocator@V?$CStringT@DV?$StrTraitMFC@DV?$ChTraitsCRT@D@ATL@@@@@ATL@@@std@@@2@XZ 004153e0 f i down_window_init.obj
 0001:000143e0       ?end@?$vector@UTFrame@CPictureEx@@V?$allocator@UTFrame@CPictureEx@@@std@@@std@@QAE?AV?$_Vector_iterator@UTFrame@CPictureEx@@V?$allocator@UTFrame@CPictureEx@@@std@@@2@XZ 004153e0 f i PictureEx.obj
 0001:00014410       ?insert@?$vector@UCONTENTSITEM@@V?$allocator@UCONTENTSITEM@@@std@@@std@@QAE?AV?$_Vector_iterator@UCONTENTSITEM@@V?$allocator@UCONTENTSITEM@@@std@@@2@V32@ABUCONTENTSITEM@@@Z 00415410 f i Worker.obj
 0001:00014490       ?_Ufill@?$vector@UCONTENTSITEM@@V?$allocator@UCONTENTSITEM@@@std@@@std@@IAEPAUCONTENTSITEM@@PAU3@IABU3@@Z 00415490 f i Worker.obj
 0001:000144c0       ?Append@?$CSimpleStringT@D$0A@@ATL@@QAEXPBD@Z 004154c0 f i Worker.obj
 0001:000144f0       __tcscmp                   004154f0 f i TrayIconPosition.obj
 0001:000144f0       ?StringCompare@?$ChTraitsCRT@D@ATL@@SAHPBD0@Z 004154f0 f i Worker.obj
 0001:00014510       ?begin@?$vector@UCONTENTSITEM@@V?$allocator@UCONTENTSITEM@@@std@@@std@@QAE?AV?$_Vector_iterator@UCONTENTSITEM@@V?$allocator@UCONTENTSITEM@@@std@@@2@XZ 00415510 f i Worker.obj
 0001:00014510       ?begin@?$vector@UTFrame@CPictureEx@@V?$allocator@UTFrame@CPictureEx@@@std@@@std@@QAE?AV?$_Vector_iterator@UTFrame@CPictureEx@@V?$allocator@UTFrame@CPictureEx@@@std@@@2@XZ 00415510 f i PictureEx.obj
 0001:00014510       ?begin@?$vector@V?$CStringT@DV?$StrTraitMFC@DV?$ChTraitsCRT@D@ATL@@@@@ATL@@V?$allocator@V?$CStringT@DV?$StrTraitMFC@DV?$ChTraitsCRT@D@ATL@@@@@ATL@@@std@@@std@@QAE?AV?$_Vector_iterator@V?$CStringT@DV?$StrTraitMFC@DV?$ChTraitsCRT@D@ATL@@@@@ATL@@V?$allocator@V?$CStringT@DV?$StrTraitMFC@DV?$ChTraitsCRT@D@ATL@@@@@ATL@@@std@@@2@XZ 00415510 f i down_window_init.obj
 0001:00014540       ?_Insert_n@?$vector@UCONTENTSITEM@@V?$allocator@UCONTENTSITEM@@@std@@@std@@IAEXV?$_Vector_iterator@UCONTENTSITEM@@V?$allocator@UCONTENTSITEM@@@std@@@2@IABUCONTENTSITEM@@@Z 00415540 f i Worker.obj
 0001:00014890       ??H?$_Vector_iterator@UCONTENTSITEM@@V?$allocator@UCONTENTSITEM@@@std@@@std@@QBE?AV01@H@Z 00415890 f i Worker.obj
 0001:000148d0       ??G?$_Vector_iterator@UCONTENTSITEM@@V?$allocator@UCONTENTSITEM@@@std@@@std@@QBEHABV?$_Vector_const_iterator@UCONTENTSITEM@@V?$allocator@UCONTENTSITEM@@@std@@@1@@Z 004158d0 f i Worker.obj
 0001:000148f0       ?max_size@?$vector@UCONTENTSITEM@@V?$allocator@UCONTENTSITEM@@@std@@@std@@QBEIXZ 004158f0 f i Worker.obj
 0001:00014910       ?_Destroy@?$vector@UCONTENTSITEM@@V?$allocator@UCONTENTSITEM@@@std@@@std@@IAEXPAUCONTENTSITEM@@0@Z 00415910 f i Worker.obj
 0001:00014940       ?allocate@?$allocator@UCONTENTSITEM@@@std@@QAEPAUCONTENTSITEM@@I@Z 00415940 f i Worker.obj
 0001:00014960       ??Y?$_Vector_iterator@UCONTENTSITEM@@V?$allocator@UCONTENTSITEM@@@std@@@std@@QAEAAV01@H@Z 00415960 f i Worker.obj
 0001:00014980       ??G?$_Vector_const_iterator@UCONTENTSITEM@@V?$allocator@UCONTENTSITEM@@@std@@@std@@QBEHABV01@@Z 00415980 f i Worker.obj
 0001:000149c0       ?max_size@?$allocator@UCONTENTSITEM@@@std@@QBEIXZ 004159c0 f i Worker.obj
 0001:000149f0       ??Y?$_Vector_const_iterator@UCONTENTSITEM@@V?$allocator@UCONTENTSITEM@@@std@@@std@@QAEAAV01@H@Z 004159f0 f i Worker.obj
 0001:00014a50       ??$strcpy_s@$0DC@@@YAHAAY0DC@DPBD@Z 00415a50 f i Worker.obj
 0001:00014a70       ??$unchecked_uninitialized_fill_n@PAUCONTENTSITEM@@IU1@V?$allocator@UCONTENTSITEM@@@std@@@stdext@@YAXPAUCONTENTSITEM@@IABU1@AAV?$allocator@UCONTENTSITEM@@@std@@@Z 00415a70 f i Worker.obj
 0001:00014ab0       ??$_Umove@PAUCONTENTSITEM@@@?$vector@UCONTENTSITEM@@V?$allocator@UCONTENTSITEM@@@std@@@std@@IAEPAUCONTENTSITEM@@PAU2@00@Z 00415ab0 f i Worker.obj
 0001:00014ae0       ??$fill@PAUCONTENTSITEM@@U1@@std@@YAXPAUCONTENTSITEM@@0ABU1@@Z 00415ae0 f i Worker.obj
 0001:00014b10       ??$_Unchecked_move_backward@PAUCONTENTSITEM@@PAU1@@stdext@@YAPAUCONTENTSITEM@@PAU1@00@Z 00415b10 f i Worker.obj
 0001:00014b80       ??$_Destroy_range@UCONTENTSITEM@@V?$allocator@UCONTENTSITEM@@@std@@@std@@YAXPAUCONTENTSITEM@@0AAV?$allocator@UCONTENTSITEM@@@0@@Z 00415b80 f i Worker.obj
 0001:00014bc0       ??$_Allocate@UCONTENTSITEM@@@std@@YAPAUCONTENTSITEM@@IPAU1@@Z 00415bc0 f i Worker.obj
 0001:00014c10       ??$_Uninit_fill_n@PAUCONTENTSITEM@@IU1@V?$allocator@UCONTENTSITEM@@@std@@@std@@YAXPAUCONTENTSITEM@@IABU1@AAV?$allocator@UCONTENTSITEM@@@0@U_Nonscalar_ptr_iterator_tag@0@U_Range_checked_iterator_tag@0@@Z 00415c10 f i Worker.obj
 0001:00014cd0       ??$_Unchecked_uninitialized_move@PAUCONTENTSITEM@@PAU1@V?$allocator@UCONTENTSITEM@@@std@@@stdext@@YAPAUCONTENTSITEM@@PAU1@00AAV?$allocator@UCONTENTSITEM@@@std@@@Z 00415cd0 f i Worker.obj
 0001:00014d20       ??$_Checked_base@PAUTFrame@CPictureEx@@@std@@YAPAUTFrame@CPictureEx@@AAPAU12@@Z 00415d20 f i PictureEx.obj
 0001:00014d20       ??$_Checked_base@PAUCONTENTSITEM@@@std@@YAPAUCONTENTSITEM@@AAPAU1@@Z 00415d20 f i Worker.obj
 0001:00014d20       ??$_Checked_base@PAV?$CStringT@DV?$StrTraitMFC@DV?$ChTraitsCRT@D@ATL@@@@@ATL@@@std@@YAPAV?$CStringT@DV?$StrTraitMFC@DV?$ChTraitsCRT@D@ATL@@@@@ATL@@AAPAV12@@Z 00415d20 f i down_window_init.obj
 0001:00014d40       ??$_Fill@PAUCONTENTSITEM@@U1@@std@@YAXPAUCONTENTSITEM@@0ABU1@@Z 00415d40 f i Worker.obj
 0001:00014d70       ??$_Move_backward_opt@PAUCONTENTSITEM@@PAU1@Urandom_access_iterator_tag@std@@U_Undefined_move_tag@3@@std@@YAPAUCONTENTSITEM@@PAU1@00Urandom_access_iterator_tag@0@U_Undefined_move_tag@0@U_Range_checked_iterator_tag@0@@Z 00415d70 f i Worker.obj
 0001:00014db0       ??$_Destroy_range@UCONTENTSITEM@@V?$allocator@UCONTENTSITEM@@@std@@@std@@YAXPAUCONTENTSITEM@@0AAV?$allocator@UCONTENTSITEM@@@0@U_Nonscalar_ptr_iterator_tag@0@@Z 00415db0 f i Worker.obj
 0001:00014de0       ?construct@?$allocator@UCONTENTSITEM@@@std@@QAEXPAUCONTENTSITEM@@ABU3@@Z 00415de0 f i Worker.obj
 0001:00014e00       ?destroy@?$allocator@UTFrame@CPictureEx@@@std@@QAEXPAUTFrame@CPictureEx@@@Z 00415e00 f i PictureEx.obj
 0001:00014e00       ?destroy@?$allocator@UCONTENTSITEM@@@std@@QAEXPAUCONTENTSITEM@@@Z 00415e00 f i Worker.obj
 0001:00014e20       ??$_Uninit_move@PAUCONTENTSITEM@@PAU1@V?$allocator@UCONTENTSITEM@@@std@@U_Undefined_move_tag@3@@std@@YAPAUCONTENTSITEM@@PAU1@00AAV?$allocator@UCONTENTSITEM@@@0@U_Undefined_move_tag@0@U_Range_checked_iterator_tag@0@@Z 00415e20 f i Worker.obj
 0001:00014e40       ??$_Copy_backward_opt@PAUCONTENTSITEM@@PAU1@@std@@YAPAUCONTENTSITEM@@PAU1@00Urandom_access_iterator_tag@0@U_Nonscalar_ptr_iterator_tag@0@U_Range_checked_iterator_tag@0@@Z 00415e40 f i Worker.obj
 0001:00014ea0       ??$_Construct@UCONTENTSITEM@@U1@@std@@YAXPAUCONTENTSITEM@@ABU1@@Z 00415ea0 f i Worker.obj
 0001:00014ef0       ??3@YAXPAX0@Z              00415ef0 f i down_window_init.obj
 0001:00014ef0       ??$_Destroy@UCONTENTSITEM@@@std@@YAXPAUCONTENTSITEM@@@Z 00415ef0 f i Worker.obj
 0001:00014ef0       ??$_Destroy@UTFrame@CPictureEx@@@std@@YAXPAUTFrame@CPictureEx@@@Z 00415ef0 f i PictureEx.obj
 0001:00014f00       ??$unchecked_uninitialized_copy@PAUCONTENTSITEM@@PAU1@V?$allocator@UCONTENTSITEM@@@std@@@stdext@@YAPAUCONTENTSITEM@@PAU1@00AAV?$allocator@UCONTENTSITEM@@@std@@@Z 00415f00 f i Worker.obj
 0001:00014f60       ??$_Copy_backward_opt@PAUCONTENTSITEM@@PAU1@Uforward_iterator_tag@std@@@std@@YAPAUCONTENTSITEM@@PAU1@00Uforward_iterator_tag@0@U_Nonscalar_ptr_iterator_tag@0@U_Range_checked_iterator_tag@0@@Z 00415f60 f i Worker.obj
 0001:00014fa0       ??$_Uninit_copy@PAUCONTENTSITEM@@PAU1@V?$allocator@UCONTENTSITEM@@@std@@@std@@YAPAUCONTENTSITEM@@PAU1@00AAV?$allocator@UCONTENTSITEM@@@0@U_Nonscalar_ptr_iterator_tag@0@U_Range_checked_iterator_tag@0@@Z 00415fa0 f i Worker.obj
 0001:00015060       ?RedrawWindow@CWnd@@QAEHPBUtagRECT@@PAVCRgn@@I@Z 00416060 f i Worker.obj
 0001:00015090       ?KillTimer@CWnd@@QAEHI@Z   00416090 f i Worker.obj
 0001:000150b0       ?SetItemData@CListCtrl@@QAEHHK@Z 004160b0 f i Worker.obj
 0001:000150e0       ?SetColumnWidth@CListCtrl@@QAEHHH@Z 004160e0 f i Worker.obj
 0001:00015110       ??Y?$CStringT@DV?$StrTraitMFC@DV?$ChTraitsCRT@D@ATL@@@@@ATL@@QAEAAV01@D@Z 00416110 f i Worker.obj
 0001:00015130       ??Y?$CSimpleStringT@D$0A@@ATL@@QAEAAV01@D@Z 00416130 f i Worker.obj
 0001:00015150       ?AppendChar@?$CSimpleStringT@D$0A@@ATL@@QAEXD@Z 00416150 f i Worker.obj
 0001:000151a0       ??0CBTray@@QAE@PAUHWND__@@PAUHINSTANCE__@@V?$CStringT@DV?$StrTraitMFC@DV?$ChTraitsCRT@D@ATL@@@@@ATL@@@Z 004161a0 f   BTray.obj
 0001:00015340       ??1CBTray@@UAE@XZ          00416340 f   BTray.obj
 0001:00015360       ?TrayBegin@CBTray@@QAEXXZ  00416360 f   BTray.obj
 0001:00015450       ?TrayEnd@CBTray@@QAEXXZ    00416450 f   BTray.obj
 0001:000154e0       ?OnTrayIconNotify@CBTray@@QAEXI@Z 004164e0 f   BTray.obj
 0001:00015530       ?OnShowMenu@CBTray@@QAEXXZ 00416530 f   BTray.obj
 0001:000155c0       ?IconAdd@CBTray@@QAEXXZ    004165c0 f   BTray.obj
 0001:00015650       ?IconDel@CBTray@@QAEXXZ    00416650 f   BTray.obj
 0001:000156c0       ?IconChange@CBTray@@QAEXXZ 004166c0 f   BTray.obj
 0001:00015750       ?IconFix@CBTray@@QAEXPAUHICON__@@@Z 00416750 f   BTray.obj
 0001:000157b0       ??_ECBTray@@UAEPAXI@Z      004167b0 f i BTray.obj
 0001:000157b0       ??_GCBTray@@UAEPAXI@Z      004167b0 f i BTray.obj
 0001:000157e0       ??2CObject@@SGPAXI@Z       004167e0 f i BTray.obj
 0001:00015800       ?CloseWindow@CWnd@@QAEXXZ  00416800 f i BTray.obj
 0001:00015820       ??0CBase64@@QAE@XZ         00416820 f   CBase64.obj
 0001:00015830       ??1CBase64@@QAE@XZ         00416830 f   CBase64.obj
 0001:00015840       ?base64_decode@CBase64@@QAEHPADPAEH@Z 00416840 f   CBase64.obj
 0001:000159a0       ?base64_encode@CBase64@@QAEPADPADH@Z 004169a0 f   CBase64.obj
 0001:00015b80       ??0CComboEx@@QAE@XZ        00416b80 f   ComboEx.obj
 0001:00015c20       ??1CComboEx@@UAE@XZ        00416c20 f   ComboEx.obj
 0001:00015c80       ?GetMessageMap@CComboEx@@MBEPBUAFX_MSGMAP@@XZ 00416c80 f   ComboEx.obj
 0001:00015c90       ?GetThisMessageMap@CComboEx@@KGPBUAFX_MSGMAP@@XZ 00416c90 f   ComboEx.obj
 0001:00015ca0       ?MeasureItem@CComboEx@@UAEXPAUtagMEASUREITEMSTRUCT@@@Z 00416ca0 f   ComboEx.obj
 0001:00015cc0       ?OnPaint@CComboEx@@IAEXXZ  00416cc0 f   ComboEx.obj
 0001:00015f90       ?OnMouseMove@CComboEx@@IAEXIVCPoint@@@Z 00416f90 f   ComboEx.obj
 0001:00016070       ?OnCaptureChanged@CComboEx@@IAEXPAVCWnd@@@Z 00417070 f   ComboEx.obj
 0001:00016090       ?OnSetfocus@CComboEx@@IAEXXZ 00417090 f   ComboEx.obj
 0001:000160c0       ?OnKillfocus@CComboEx@@IAEXXZ 004170c0 f   ComboEx.obj
 0001:000160f0       ?OnLButtonDown@CComboEx@@IAEXIVCPoint@@@Z 004170f0 f   ComboEx.obj
 0001:00016130       ?OnLButtonUp@CComboEx@@IAEXIVCPoint@@@Z 00417130 f   ComboEx.obj
 0001:00016170       ?DrawItem@CComboEx@@UAEXPAUtagDRAWITEMSTRUCT@@@Z 00417170 f   ComboEx.obj
 0001:00016490       ?AddIcon@CComboEx@@QAEHHV?$CStringT@DV?$StrTraitMFC@DV?$ChTraitsCRT@D@ATL@@@@@ATL@@@Z 00417490 f   ComboEx.obj
 0001:000165d0       ?InsertIcon@CComboEx@@QAEHHHV?$CStringT@DV?$StrTraitMFC@DV?$ChTraitsCRT@D@ATL@@@@@ATL@@@Z 004175d0 f   ComboEx.obj
 0001:00016740       ?DeleteItem@CComboEx@@UAEXPAUtagDELETEITEMSTRUCT@@@Z 00417740 f   ComboEx.obj
 0001:000167a0       ?DeleteIcon@CComboEx@@QAEXH@Z 004177a0 f   ComboEx.obj
 0001:000167c0       ?GetCurSelIcon@CComboEx@@QAEHXZ 004177c0 f   ComboEx.obj
 0001:000167f0       ?SetCurSelIcon@CComboEx@@QAEXH@Z 004177f0 f   ComboEx.obj
 0001:00016850       ?OnDropdown@CComboEx@@IAEXXZ 00417850 f   ComboEx.obj
 0001:000169e0       ?PreSubclassWindow@CComboEx@@MAEXXZ 004179e0 f   ComboEx.obj
 0001:00016a30       ?PreTranslateMessage@CComboEx@@UAEHPAUtagMSG@@@Z 00417a30 f   ComboEx.obj
 0001:00016a60       ?SetTooltipText@CComboEx@@QAEXV?$CStringT@DV?$StrTraitMFC@DV?$ChTraitsCRT@D@ATL@@@@@ATL@@@Z 00417a60 f   ComboEx.obj
 0001:00016ad0       ?SetTooltipText@CComboEx@@QAEXH@Z 00417ad0 f   ComboEx.obj
 0001:00016b70       ??_GCComboEx@@UAEPAXI@Z    00417b70 f i ComboEx.obj
 0001:00016b70       ??_ECComboEx@@UAEPAXI@Z    00417b70 f i ComboEx.obj
 0001:00016ba0       ??0_IconComboBox@@QAE@XZ   00417ba0 f i ComboEx.obj
 0001:00016bc0       ??_G_IconComboBox@@QAEPAXI@Z 00417bc0 f i ComboEx.obj
 0001:00016bf0       ??1_IconComboBox@@QAE@XZ   00417bf0 f i ComboEx.obj
 0001:00016c10       ?IsEmpty@?$CSimpleStringT@D$0A@@ATL@@QBE_NXZ 00417c10 f i ComboEx.obj
 0001:00016c30       ?OffsetRect@CRect@@QAEXHH@Z 00417c30 f i ComboEx.obj
 0001:00016c50       ?AfxGetApp@@YGPAVCWinApp@@XZ 00417c50 f i ComboEx.obj
 0001:00016c60       ?ClientToScreen@CWnd@@QBEXPAUtagPOINT@@@Z 00417c60 f i ComboEx.obj
 0001:00016c80       ?GetCapture@CWnd@@SGPAV1@XZ 00417c80 f i ComboEx.obj
 0001:00016ca0       ?SetCapture@CWnd@@QAEPAV1@XZ 00417ca0 f i ComboEx.obj
 0001:00016cc0       ?WindowFromPoint@CWnd@@SGPAV1@UtagPOINT@@@Z 00417cc0 f i ComboEx.obj
 0001:00016ce0       ??0CComboBox@@QAE@XZ       00417ce0 f i ComboEx.obj
 0001:00016d00       ??_GCComboBox@@UAEPAXI@Z   00417d00 f i ComboEx.obj
 0001:00016d00       ??_ECComboBox@@UAEPAXI@Z   00417d00 f i ComboEx.obj
 0001:00016d30       ?GetCount@CComboBox@@QBEHXZ 00417d30 f i ComboEx.obj
 0001:00016d60       ?GetCurSel@CComboBox@@QBEHXZ 00417d60 f i ComboEx.obj
 0001:00016d90       ?SetCurSel@CComboBox@@QAEHH@Z 00417d90 f i ComboEx.obj
 0001:00016dc0       ?GetItemData@CComboBox@@QBEKH@Z 00417dc0 f i ComboEx.obj
 0001:00016df0       ?SetItemData@CComboBox@@QAEHHK@Z 00417df0 f i ComboEx.obj
 0001:00016e20       ?AddString@CComboBox@@QAEHPBD@Z 00417e20 f i ComboEx.obj
 0001:00016e50       ?DeleteString@CComboBox@@QAEHI@Z 00417e50 f i ComboEx.obj
 0001:00016e80       ?InsertString@CComboBox@@QAEHHPBD@Z 00417e80 f i ComboEx.obj
 0001:00016eb0       ?SetDroppedWidth@CComboBox@@QAEHI@Z 00417eb0 f i ComboEx.obj
 0001:00016ee0       ?RelayEvent@CToolTipCtrl@@QAEXPAUtagMSG@@@Z 00417ee0 f i ComboEx.obj
 0001:00016f10       ?CreateObject@HtmlViewer@@SGPAVCObject@@XZ 00417f10 f   HtmlViewer.obj
 0001:00016f90       ?GetRuntimeClass@HtmlViewer@@UBEPAUCRuntimeClass@@XZ 00417f90 f   HtmlViewer.obj
 0001:00016fa0       ??0HtmlViewer@@QAE@XZ      00417fa0 f   HtmlViewer.obj
 0001:00016ff0       ??1HtmlViewer@@UAE@XZ      00417ff0 f   HtmlViewer.obj
 0001:00017030       ?DoDataExchange@HtmlViewer@@MAEXPAVCDataExchange@@@Z 00418030 f   HtmlViewer.obj
 0001:00017050       ?GetMessageMap@HtmlViewer@@MBEPBUAFX_MSGMAP@@XZ 00418050 f   HtmlViewer.obj
 0001:00017060       ?GetThisMessageMap@HtmlViewer@@KGPBUAFX_MSGMAP@@XZ 00418060 f   HtmlViewer.obj
 0001:00017070       ?PreTranslateMessage@HtmlViewer@@MAEHPAUtagMSG@@@Z 00418070 f   HtmlViewer.obj
 0001:00017090       ?Invalidate@HtmlViewer@@QAEHXZ 00418090 f   HtmlViewer.obj
 0001:000170b0       ?GetFullName@HtmlViewer@@QBE?AV?$CStringT@DV?$StrTraitMFC@DV?$ChTraitsCRT@D@ATL@@@@@ATL@@XZ 004180b0 f   HtmlViewer.obj
 0001:00017160       ?GetType@HtmlViewer@@QBE?AV?$CStringT@DV?$StrTraitMFC@DV?$ChTraitsCRT@D@ATL@@@@@ATL@@XZ 00418160 f   HtmlViewer.obj
 0001:00017210       ?GetLocationName@HtmlViewer@@QBE?AV?$CStringT@DV?$StrTraitMFC@DV?$ChTraitsCRT@D@ATL@@@@@ATL@@XZ 00418210 f   HtmlViewer.obj
 0001:000172c0       ?GetLocationURL@HtmlViewer@@QBE?AV?$CStringT@DV?$StrTraitMFC@DV?$ChTraitsCRT@D@ATL@@@@@ATL@@XZ 004182c0 f   HtmlViewer.obj
 0001:00017370       ?Navigate@HtmlViewer@@QAEXPBDK00PAXK@Z 00418370 f   HtmlViewer.obj
 0001:000174f0       ?LoadFromResource@HtmlViewer@@QAEHPBD@Z 004184f0 f   HtmlViewer.obj
 0001:000175e0       ?LoadFromResource@HtmlViewer@@QAEHI@Z 004185e0 f   HtmlViewer.obj
 0001:000176d0       ?OnDocumentComplete@HtmlViewer@@MAEXPBD@Z 004186d0 f   HtmlViewer.obj
 0001:00017720       ?DelAll@HtmlViewer@@QAEXXZ 00418720 f   HtmlViewer.obj
 0001:00017880       ?ReSet@HtmlViewer@@QAEXXZ  00418880 f   HtmlViewer.obj
 0001:00017a80       ?AddHTML@HtmlViewer@@QAE_NPBD@Z 00418a80 f   HtmlViewer.obj
 0001:00017c90       ?ScrollEnd@HtmlViewer@@IAE_NV?$CComPtr@UIHTMLElement@@@ATL@@@Z 00418c90 f   HtmlViewer.obj
 0001:00017df0       ?SaveHistory@HtmlViewer@@QAE_NPBD@Z 00418df0 f   HtmlViewer.obj
 0001:00018040       ?GetHistory@HtmlViewer@@QAE?AV?$CStringT@DV?$StrTraitMFC@DV?$ChTraitsCRT@D@ATL@@@@@ATL@@XZ 00419040 f   HtmlViewer.obj
 0001:00018250       ?SetBGImage@HtmlViewer@@QAE_NXZ 00419250 f   HtmlViewer.obj
 0001:00018440       ?OpenWindow@HtmlViewer@@QAE_NPBDPADII@Z 00419440 f   HtmlViewer.obj
 0001:000187f0       ?SetBGColor@HtmlViewer@@QAE_NPBD@Z 004197f0 f   HtmlViewer.obj
 0001:00018a20       ??_GHtmlViewer@@UAEPAXI@Z  00419a20 f i HtmlViewer.obj
 0001:00018a20       ??_EHtmlViewer@@UAEPAXI@Z  00419a20 f i HtmlViewer.obj
 0001:00018a50       ??1?$CComQIPtr@UIHTMLDocument2@@$1?IID_IHTMLDocument2@@3U_GUID@@B@ATL@@QAE@XZ 00419a50 f i HtmlViewer.obj
 0001:00018a50       ??1?$CComQIPtr@UIHTMLElement2@@$1?IID_IHTMLElement2@@3U_GUID@@B@ATL@@QAE@XZ 00419a50 f i HtmlViewer.obj
 0001:00018a70       ??1?$CComPtr@UIHTMLElement@@@ATL@@QAE@XZ 00419a70 f i HtmlViewer.obj
 0001:00018a70       ??1?$CComPtr@UIHTMLBodyElement@@@ATL@@QAE@XZ 00419a70 f i HtmlViewer.obj
 0001:00018a70       ??1?$CComPtr@UIHTMLElement2@@@ATL@@QAE@XZ 00419a70 f i HtmlViewer.obj
 0001:00018a70       ??1?$CComPtr@UIHTMLDocument2@@@ATL@@QAE@XZ 00419a70 f i HtmlViewer.obj
 0001:00018a70       ??1?$CComPtr@UIDispatch@@@ATL@@QAE@XZ 00419a70 f i HtmlViewer.obj
 0001:00018a90       ??0_bstr_t@@QAE@PBD@Z      00419a90 f i HtmlViewer.obj
 0001:00018b30       ??1_bstr_t@@QAE@XZ         00419b30 f i HtmlViewer.obj
 0001:00018b50       ??B_bstr_t@@QBEPA_WXZ      00419b50 f i HtmlViewer.obj
 0001:00018b80       ?_Free@_bstr_t@@AAEXXZ     00419b80 f i HtmlViewer.obj
 0001:00018bb0       ??0Data_t@_bstr_t@@QAE@PBD@Z 00419bb0 f i HtmlViewer.obj
 0001:00018bf0       ?Release@Data_t@_bstr_t@@QAEKXZ 00419bf0 f i HtmlViewer.obj
 0001:00018c40       ??_GData_t@_bstr_t@@AAEPAXI@Z 00419c40 f i HtmlViewer.obj
 0001:00018c70       ??2Data_t@_bstr_t@@SAPAXI@Z 00419c70 f i HtmlViewer.obj
 0001:00018c90       ??1Data_t@_bstr_t@@AAE@XZ  00419c90 f i HtmlViewer.obj
 0001:00018cb0       ?_Free@Data_t@_bstr_t@@AAEXXZ 00419cb0 f i HtmlViewer.obj
 0001:00018cf0       ??0_variant_t@@QAE@ABV_bstr_t@@@Z 00419cf0 f i HtmlViewer.obj
 0001:00018d60       ??0_variant_t@@QAE@H@Z     00419d60 f i HtmlViewer.obj
 0001:00018d90       ??1COleVariant@@QAE@XZ     00419d90 f i HtmlViewer.obj
 0001:00018d90       ??1_variant_t@@QAE@XZ      00419d90 f i HtmlViewer.obj
 0001:00018d90       ?Clear@COleSafeArray@@QAEXXZ 00419d90 f i HtmlViewer.obj
 0001:00018db0       ??Y?$CStringT@DV?$StrTraitMFC@DV?$ChTraitsCRT@D@ATL@@@@@ATL@@QAEAAV01@PB_W@Z 00419db0 f i HtmlViewer.obj
 0001:00018e30       ?AllocSysString@?$CStringT@DV?$StrTraitMFC@DV?$ChTraitsCRT@D@ATL@@@@@ATL@@QBEPA_WXZ 00419e30 f i HtmlViewer.obj
 0001:00018e70       ??HATL@@YA?AV?$CStringT@DV?$StrTraitMFC@DV?$ChTraitsCRT@D@ATL@@@@@0@PBDABV10@@Z 00419e70 f i HtmlViewer.obj
 0001:00018f20       ??1?$CComPtrBase@UIHTMLBodyElement@@@ATL@@QAE@XZ 00419f20 f i HtmlViewer.obj
 0001:00018f20       ??1?$CComPtrBase@UIHTMLElement2@@@ATL@@QAE@XZ 00419f20 f i HtmlViewer.obj
 0001:00018f20       ??1?$CComPtrBase@UIDispatch@@@ATL@@QAE@XZ 00419f20 f i HtmlViewer.obj
 0001:00018f20       ??1?$CComPtrBase@UIHTMLDocument2@@@ATL@@QAE@XZ 00419f20 f i HtmlViewer.obj
 0001:00018f20       ??1?$CComPtrBase@UIHTMLElement@@@ATL@@QAE@XZ 00419f20 f i HtmlViewer.obj
 0001:00018f50       ?GetPacket@Packet@@QAEPADXZ 00419f50 f i NetworkController.obj
 0001:00018f50       ??B?$CComPtrBase@UIHTMLDocument2@@@ATL@@QBEPAUIHTMLDocument2@@XZ 00419f50 f i HtmlViewer.obj
 0001:00018f50       ??C?$CComPtrBase@UIHTMLElement2@@@ATL@@QBEPAV?$_NoAddRefReleaseOnCComPtr@UIHTMLElement2@@@1@XZ 00419f50 f i HtmlViewer.obj
 0001:00018f50       ??B?$CComPtrBase@UIHTMLElement@@@ATL@@QBEPAUIHTMLElement@@XZ 00419f50 f i HtmlViewer.obj
 0001:00018f50       ??BImageList_Draw_Type@CComCtlWrapper@@QAEP6GHPAU_IMAGELIST@@HPAUHDC__@@HHI@ZXZ 00419f50 f i SkinListCtrl.obj
 0001:00018f50       ??C?$CComPtrBase@UIHTMLBodyElement@@@ATL@@QBEPAV?$_NoAddRefReleaseOnCComPtr@UIHTMLBodyElement@@@1@XZ 00419f50 f i HtmlViewer.obj
 0001:00018f50       ?GetString@?$CSimpleStringT@D$0A@@ATL@@QBEPBDXZ 00419f50 f i down_client.obj
 0001:00018f50       ??C?$CComPtrBase@UIHTMLDocument2@@@ATL@@QBEPAV?$_NoAddRefReleaseOnCComPtr@UIHTMLDocument2@@@1@XZ 00419f50 f i HtmlViewer.obj
 0001:00018f50       ??C?$CComPtrBase@UIWebBrowser2@@@ATL@@QBEPAV?$_NoAddRefReleaseOnCComPtr@UIWebBrowser2@@@1@XZ 00419f50 f i HtmlViewer.obj
 0001:00018f50       ??C?$CComPtrBase@UIHTMLElement@@@ATL@@QBEPAV?$_NoAddRefReleaseOnCComPtr@UIHTMLElement@@@1@XZ 00419f50 f i HtmlViewer.obj
 0001:00018f50       ??B?$CSimpleStringT@D$0A@@ATL@@QBEPBDXZ 00419f50 f i down_client.obj
 0001:00018f60       ??0?$CComQIPtr@UIHTMLDocument2@@$1?IID_IHTMLDocument2@@3U_GUID@@B@ATL@@QAE@XZ 00419f60 f i HtmlViewer.obj
 0001:00018f60       ??0?$CComQIPtr@UIHTMLElement2@@$1?IID_IHTMLElement2@@3U_GUID@@B@ATL@@QAE@XZ 00419f60 f i HtmlViewer.obj
 0001:00018f80       ??4?$CComQIPtr@UIHTMLDocument2@@$1?IID_IHTMLDocument2@@3U_GUID@@B@ATL@@QAEPAUIHTMLDocument2@@PAUIUnknown@@@Z 00419f80 f i HtmlViewer.obj
 0001:00018fc0       ?AtlComQIPtrAssign@ATL@@YGPAUIUnknown@@PAPAU2@PAU2@ABU_GUID@@@Z 00419fc0 f i HtmlViewer.obj
 0001:00019020       ??0?$CComPtr@UIHTMLElement@@@ATL@@QAE@ABV01@@Z 0041a020 f i HtmlViewer.obj
 0001:00019040       ??7?$CComPtrBase@UIHTMLElement2@@@ATL@@QBE_NXZ 0041a040 f i HtmlViewer.obj
 0001:00019040       ??7?$CComPtrBase@UIHTMLElement@@@ATL@@QBE_NXZ 0041a040 f i HtmlViewer.obj
 0001:00019040       ??7ImageList_Draw_Type@CComCtlWrapper@@QBE_NXZ 0041a040 f i SkinListCtrl.obj
 0001:00019060       ??BCOleVariant@@QAEPAUtagVARIANT@@XZ 0041a060 f i HtmlViewer.obj
 0001:00019060       ??0CRect@@QAE@XZ           0041a060 f i SkinListCtrl.obj
 0001:00019060       ??0CObject@@IAE@XZ         0041a060 f i SkinListCtrl.obj
 0001:00019060       ??BCOleSafeArray@@QAEPAUtagVARIANT@@XZ 0041a060 f i HtmlViewer.obj
 0001:00019060       ??I?$CComPtrBase@UIHTMLElement@@@ATL@@QAEPAPAUIHTMLElement@@XZ 0041a060 f i HtmlViewer.obj
 0001:00019060       ??0?$allocator@V?$CStringT@DV?$StrTraitMFC@DV?$ChTraitsCRT@D@ATL@@@@@ATL@@@std@@QAE@XZ 0041a060 f i down_window_init.obj
 0001:00019060       ??I?$CComPtrBase@UIHTMLElement2@@@ATL@@QAEPAPAUIHTMLElement2@@XZ 0041a060 f i HtmlViewer.obj
 0001:00019060       ??0CPoint@@QAE@XZ          0041a060 f i TrayIconPosition.obj
 0001:00019060       ??0?$allocator@UCONTENTSITEM@@@std@@QAE@XZ 0041a060 f i down_window_init.obj
 0001:00019060       ??I?$CComPtrBase@UIDispatch@@@ATL@@QAEPAPAUIDispatch@@XZ 0041a060 f i HtmlViewer.obj
 0001:00019060       ?GetWString@Data_t@_bstr_t@@QAEAAPA_WXZ 0041a060 f i HtmlViewer.obj
 0001:00019060       ??0?$allocator@UTFrame@CPictureEx@@@std@@QAE@XZ 0041a060 f i PictureEx.obj
 0001:00019060       ??I?$CComPtrBase@UIHTMLBodyElement@@@ATL@@QAEPAPAUIHTMLBodyElement@@XZ 0041a060 f i HtmlViewer.obj
 0001:00019060       ??0?$allocator@D@std@@QAE@XZ 0041a060 f i PictureEx.obj
 0001:00019060       ??BCRect@@QAEPAUtagRECT@@XZ 0041a060 f i SkinListCtrl.obj
 0001:00019070       ??0?$CStringT@DV?$StrTraitMFC@DV?$ChTraitsCRT@D@ATL@@@@@ATL@@QAE@PAUIAtlStringMgr@1@@Z 0041a070 f i HtmlViewer.obj
 0001:00019090       ??0?$CStringT@DV?$StrTraitMFC@DV?$ChTraitsCRT@D@ATL@@@@@ATL@@QAE@PB_WPAUIAtlStringMgr@1@@Z 0041a090 f i HtmlViewer.obj
 0001:00019110       ?Concatenate@?$CSimpleStringT@D$0A@@ATL@@KAXAAV12@PBDH1H@Z 0041a110 f i HtmlViewer.obj
 0001:00019180       ?AllocSysString@?$ChTraitsCRT@D@ATL@@SAPA_WPBDH@Z 0041a180 f i HtmlViewer.obj
 0001:000191e0       ??0?$CComPtrBase@UIHTMLElement2@@@ATL@@IAE@XZ 0041a1e0 f i HtmlViewer.obj
 0001:000191e0       ??0?$CComPtrBase@UIDispatch@@@ATL@@IAE@XZ 0041a1e0 f i HtmlViewer.obj
 0001:000191e0       ??0_Iterator_base@std@@QAE@XZ 0041a1e0 f i PictureEx.obj
 0001:000191e0       ??0?$CComPtrBase@UIHTMLBodyElement@@@ATL@@IAE@XZ 0041a1e0 f i HtmlViewer.obj
 0001:000191e0       ??0?$CComPtrBase@UIHTMLElement@@@ATL@@IAE@XZ 0041a1e0 f i HtmlViewer.obj
 0001:000191e0       ??0?$CComPtrBase@UIHTMLDocument2@@@ATL@@IAE@XZ 0041a1e0 f i HtmlViewer.obj
 0001:00019200       ??0?$CComPtrBase@UIHTMLElement@@@ATL@@IAE@PAUIHTMLElement@@@Z 0041a200 f i HtmlViewer.obj
 0001:00019240       ??$QueryInterface@UIHTMLElement2@@@IUnknown@@QAGJPAPAUIHTMLElement2@@@Z 0041a240 f i HtmlViewer.obj
 0001:00019260       ??$QueryInterface@UIHTMLBodyElement@@@IUnknown@@QAGJPAPAUIHTMLBodyElement@@@Z 0041a260 f i HtmlViewer.obj
 0001:00019280       ?GetTickCount@CTime@ATL@@SG?AV12@XZ 0041a280 f i HtmlViewer.obj
 0001:000192a0       ?Format@CTime@ATL@@QBE?AV?$CStringT@DV?$StrTraitMFC@DV?$ChTraitsCRT@D@ATL@@@@@2@PBD@Z 0041a2a0 f i HtmlViewer.obj
 0001:00019370       ?get_accChild@CFormView@@UAEJUtagVARIANT@@PAPAUIDispatch@@@Z 0041a370 f i HtmlViewer.obj
 0001:000193b0       ?get_accChildCount@CFormView@@UAEJPAJ@Z 0041a3b0 f i HtmlViewer.obj
 0001:000193d0       ?get_accName@CFormView@@UAEJUtagVARIANT@@PAPA_W@Z 0041a3d0 f i HtmlViewer.obj
 0001:00019410       ?accLocation@CFormView@@UAEJPAJ000UtagVARIANT@@@Z 0041a410 f i HtmlViewer.obj
 0001:00019460       ?accHitTest@CFormView@@UAEJJJPAUtagVARIANT@@@Z 0041a460 f i HtmlViewer.obj
 0001:00019490       ??0COleSafeArray@@QAE@XZ   0041a490 f i HtmlViewer.obj
 0001:000194b0       ??1COleSafeArray@@QAE@XZ   0041a4b0 f i HtmlViewer.obj
 0001:000194d0       ??0?$CStringT@DV?$StrTraitMFC@DV?$ChTraitsCRT@D@ATL@@@@@ATL@@QAE@PB_W@Z 0041a4d0 f i HtmlViewer.obj
 0001:00019550       ??4?$CStringT@DV?$StrTraitMFC@DV?$ChTraitsCRT@D@ATL@@@@@ATL@@QAEAAV01@PB_W@Z 0041a550 f i HtmlViewer.obj
 0001:000195d0       ?GetBaseTypeLength@?$ChTraitsCRT@D@ATL@@SAHPB_W@Z 0041a5d0 f i HtmlViewer.obj
 0001:00019600       ??0CLabel@@QAE@XZ          0041a600 f   Label.obj
 0001:00019730       ??1CLabel@@UAE@XZ          0041a730 f   Label.obj
 0001:000197e0       ?SetText@CLabel@@QAEAAV1@ABV?$CStringT@DV?$StrTraitMFC@DV?$ChTraitsCRT@D@ATL@@@@@ATL@@@Z 0041a7e0 f   Label.obj
 0001:00019820       ?SetTextColor@CLabel@@QAEAAV1@K@Z 0041a820 f   Label.obj
 0001:00019850       ?SetFontBold@CLabel@@QAEAAV1@H@Z 0041a850 f   Label.obj
 0001:00019890       ?SetFontUnderline@CLabel@@QAEAAV1@H@Z 0041a890 f   Label.obj
 0001:000198d0       ?SetFontItalic@CLabel@@QAEAAV1@H@Z 0041a8d0 f   Label.obj
 0001:00019910       ?SetSunken@CLabel@@QAEAAV1@H@Z 0041a910 f   Label.obj
 0001:00019950       ?SetBorder@CLabel@@QAEAAV1@H@Z 0041a950 f   Label.obj
 0001:00019990       ?SetFontSize@CLabel@@QAEAAV1@H@Z 0041a990 f   Label.obj
 0001:000199d0       ?SetBkColor@CLabel@@QAEAAV1@K@Z 0041a9d0 f   Label.obj
 0001:00019a20       ?SetFontName@CLabel@@QAEAAV1@ABV?$CStringT@DV?$StrTraitMFC@DV?$ChTraitsCRT@D@ATL@@@@@ATL@@@Z 0041aa20 f   Label.obj
 0001:00019a70       ?GetMessageMap@CLabel@@MBEPBUAFX_MSGMAP@@XZ 0041aa70 f   Label.obj
 0001:00019a80       ?GetThisMessageMap@CLabel@@KGPBUAFX_MSGMAP@@XZ 0041aa80 f   Label.obj
 0001:00019a90       ?CtlColor@CLabel@@IAEPAUHBRUSH__@@PAVCDC@@I@Z 0041aa90 f   Label.obj
 0001:00019b00       ?ReconstructFont@CLabel@@IAEXXZ 0041ab00 f   Label.obj
 0001:00019b40       ?FlashText@CLabel@@QAEAAV1@H@Z 0041ab40 f   Label.obj
 0001:00019bd0       ?FlashBackground@CLabel@@QAEAAV1@H@Z 0041abd0 f   Label.obj
 0001:00019c40       ?OnTimer@CLabel@@IAEXI@Z   0041ac40 f   Label.obj
 0001:00019ce0       ?SetLink@CLabel@@QAEAAV1@H@Z 0041ace0 f   Label.obj
 0001:00019d30       ?OnLButtonDown@CLabel@@IAEXIVCPoint@@@Z 0041ad30 f   Label.obj
 0001:00019dd0       ?OnSetCursor@CLabel@@IAEHPAVCWnd@@II@Z 0041add0 f   Label.obj
 0001:00019e20       ?SetLinkCursor@CLabel@@QAEAAV1@PAUHICON__@@@Z 0041ae20 f   Label.obj
 0001:00019e40       ?SetFontStyle@CLabel@@QAEXKKHH@Z 0041ae40 f   Label.obj
 0001:00019e80       ??_GCLabel@@UAEPAXI@Z      0041ae80 f i Label.obj
 0001:00019e80       ??_ECLabel@@UAEPAXI@Z      0041ae80 f i Label.obj
 0001:00019eb0       ??0CFont@@QAE@XZ           0041aeb0 f i Label.obj
 0001:00019ed0       ??_GCFont@@UAEPAXI@Z       0041aed0 f i Label.obj
 0001:00019ed0       ??_ECFont@@UAEPAXI@Z       0041aed0 f i Label.obj
 0001:00019f00       ??1CFont@@UAE@XZ           0041af00 f i Label.obj
 0001:00019f20       ?CreateFontIndirectA@CFont@@QAEHPBUtagLOGFONTA@@@Z 0041af20 f i Label.obj
 0001:00019f40       ?UpdateWindow@CWnd@@QAEXXZ 0041af40 f i Label.obj
 0001:00019f60       ?InvalidateRect@CWnd@@QAEXPBUtagRECT@@H@Z 0041af60 f i Label.obj
 0001:00019f90       ?OnEraseBkgnd@CWnd@@IAEHPAVCDC@@@Z 0041af90 f i SkinDialog.obj
 0001:00019f90       ?OnCaptureChanged@CWnd@@IAEXPAV1@@Z 0041af90 f i SkinButton.obj
 0001:00019f90       ?OnKillFocus@CWnd@@IAEXPAV1@@Z 0041af90 f i SkinButton.obj
 0001:00019f90       ?OnTimer@CWnd@@IAEXI@Z     0041af90 f i Label.obj
 0001:00019fb0       ??0CRegistry@@QAE@PAUHKEY__@@@Z 0041afb0 f   registry.obj
 0001:00019fe0       ??0CRegistry@@QAE@ABV0@@Z  0041afe0 f   registry.obj
 0001:0001a010       ?SetKey@CRegistry@@QAEPAUHKEY__@@PAU2@@Z 0041b010 f   registry.obj
 0001:0001a040       ??1CRegistry@@UAE@XZ       0041b040 f   registry.obj
 0001:0001a060       ?GetKey@CRegistry@@QBEPAUHKEY__@@XZ 0041b060 f   registry.obj
 0001:0001a080       ?LoadKey@CRegistry@@QBEHPBD0AAVCRegVal@@@Z 0041b080 f   registry.obj
 0001:0001a0b0       ?LoadKey@CRegistry@@QBEHPBD0AAK@Z 0041b0b0 f   registry.obj
 0001:0001a160       ?LoadKey@CRegistry@@QBEHPBD0PAEK@Z 0041b160 f   registry.obj
 0001:0001a210       ?LoadKey@CRegistry@@QBEHPBD0AAV?$CStringT@DV?$StrTraitMFC@DV?$ChTraitsCRT@D@ATL@@@@@ATL@@@Z 0041b210 f   registry.obj
 0001:0001a2c0       ?LoadKey@CRegistry@@QBEHPBD0AAVCStringArray@@@Z 0041b2c0 f   registry.obj
 0001:0001a370       ?SaveKey@CRegistry@@QBEHPBD0ABVCStringArray@@@Z 0041b370 f   registry.obj
 0001:0001a3f0       ?SaveKey@CRegistry@@QBEHPBD0ABVCRegVal@@@Z 0041b3f0 f   registry.obj
 0001:0001a420       ?SaveKey@CRegistry@@QBEHPBD0ABK@Z 0041b420 f   registry.obj
 0001:0001a4a0       ?SaveKey@CRegistry@@QBEHPBD00@Z 0041b4a0 f   registry.obj
 0001:0001a520       ?SaveKey@CRegistry@@QBEHPBD0QAEK@Z 0041b520 f   registry.obj
 0001:0001a5b0       ?DeleteKey@CRegistry@@QBEHPBD0@Z 0041b5b0 f   registry.obj
 0001:0001a5e0       ?HasEntries@CRegistry@@QBEHPBDPAK1@Z 0041b5e0 f   registry.obj
 0001:0001a610       ?Connect@CRegistry@@QAEHPBDPAUHKEY__@@@Z 0041b610 f   registry.obj
 0001:0001a6d0       ?RegistryTreeWalk@CRegistry@@QAEHPBDI@Z 0041b6d0 f   registry.obj
 0001:0001a730       ?OnValueHit@CRegistry@@UAEHPBD0ABVCRegVal@@G@Z 0041b730 f   registry.obj
 0001:0001a740       ?OnKeyHit@CRegistry@@UAEHPBDG@Z 0041b740 f   registry.obj
 0001:0001a750       ?RegTreeWalk@CRegistry@@AAEHPBDPAUHKEY__@@IG@Z 0041b750 f   registry.obj
 0001:0001aae0       ?LoadKey@CRegistry@@SAHPBD0AAVCRegVal@@PAUHKEY__@@@Z 0041bae0 f   registry.obj
 0001:0001abc0       ?SaveKey@CRegistry@@SAHPBD0ABVCRegVal@@PAUHKEY__@@@Z 0041bbc0 f   registry.obj
 0001:0001ac50       ?DeleteKey@CRegistry@@SAHPBD0PAUHKEY__@@@Z 0041bc50 f   registry.obj
 0001:0001adf0       ?HasEntries@CRegistry@@SAHPBDPAK1PAUHKEY__@@@Z 0041bdf0 f   registry.obj
 0001:0001aec0       ??0CRegVal@@QAE@XZ         0041bec0 f   registry.obj
 0001:0001af00       ??0CRegVal@@QAE@K@Z        0041bf00 f   registry.obj
 0001:0001af50       ??0CRegVal@@QAE@PBD@Z      0041bf50 f   registry.obj
 0001:0001afa0       ??0CRegVal@@QAE@QAEK@Z     0041bfa0 f   registry.obj
 0001:0001aff0       ??0CRegVal@@QAE@ABVCStringArray@@@Z 0041bff0 f   registry.obj
 0001:0001b040       ??1CRegVal@@QAE@XZ         0041c040 f   registry.obj
 0001:0001b080       ?SetType@CRegVal@@QAEXK@Z  0041c080 f   registry.obj
 0001:0001b0a0       ?GetType@CRegVal@@QBEKXZ   0041c0a0 f   registry.obj
 0001:0001b0c0       ?GetSize@CRegVal@@QBEKXZ   0041c0c0 f   registry.obj
 0001:0001b0e0       ?GetValue@CRegVal@@QBEHAAK@Z 0041c0e0 f   registry.obj
 0001:0001b120       ?GetValue@CRegVal@@QBEHAAPBD@Z 0041c120 f   registry.obj
 0001:0001b170       ?GetValue@CRegVal@@QBEHAAPAEK@Z 0041c170 f   registry.obj
 0001:0001b1f0       ?GetValue@CRegVal@@QBEHAAV?$CStringT@DV?$StrTraitMFC@DV?$ChTraitsCRT@D@ATL@@@@@ATL@@@Z 0041c1f0 f   registry.obj
 0001:0001b230       ?GetValue@CRegVal@@QBEHAAVCStringArray@@@Z 0041c230 f   registry.obj
 0001:0001b2f0       ?SetValue@CRegVal@@QAEXK@Z 0041c2f0 f   registry.obj
 0001:0001b320       ?SetValue@CRegVal@@QAEXPBDH@Z 0041c320 f   registry.obj
 0001:0001b3a0       ?SetValue@CRegVal@@QAEXQAPBDK@Z 0041c3a0 f   registry.obj
 0001:0001b490       ?SetValue@CRegVal@@QAEXQAEK@Z 0041c490 f   registry.obj
 0001:0001b4d0       ?SetValue@CRegVal@@QAEXABVCStringArray@@@Z 0041c4d0 f   registry.obj
 0001:0001b5f0       ?AllocateDataBuffer@CRegVal@@AAEPAEK@Z 0041c5f0 f   registry.obj
 0001:0001b650       ?FreeDataBuffer@CRegVal@@AAEXXZ 0041c650 f   registry.obj
 0001:0001b690       ??_GCRegistry@@UAEPAXI@Z   0041c690 f i registry.obj
 0001:0001b690       ??_ECRegistry@@UAEPAXI@Z   0041c690 f i registry.obj
 0001:0001b6c0       ?RemoveAll@CStringArray@@QAEXXZ 0041c6c0 f i registry.obj
 0001:0001b6e0       ?Add@CStringArray@@QAEHABV?$CStringT@DV?$StrTraitMFC@DV?$ChTraitsCRT@D@ATL@@@@@ATL@@@Z 0041c6e0 f i registry.obj
 0001:0001b710       ??ACStringArray@@QBEABV?$CStringT@DV?$StrTraitMFC@DV?$ChTraitsCRT@D@ATL@@@@@ATL@@H@Z 0041c710 f i registry.obj
 0001:0001b730       ?GetAt@CStringArray@@QBEABV?$CStringT@DV?$StrTraitMFC@DV?$ChTraitsCRT@D@ATL@@@@@ATL@@H@Z 0041c730 f i registry.obj
 0001:0001b760       ?GetRuntimeClass@CSelectFolderDialog@@UBEPAUCRuntimeClass@@XZ 0041c760 f   SelectFolderDialog.obj
 0001:0001b770       ??0CSelectFolderDialog@@QAE@HPBDK0PAVCWnd@@0@Z 0041c770 f   SelectFolderDialog.obj
 0001:0001b870       ??1CSelectFolderDialog@@UAE@XZ 0041c870 f   SelectFolderDialog.obj
 0001:0001b930       ?GetMessageMap@CSelectFolderDialog@@MBEPBUAFX_MSGMAP@@XZ 0041c930 f   SelectFolderDialog.obj
 0001:0001b940       ?GetThisMessageMap@CSelectFolderDialog@@KGPBUAFX_MSGMAP@@XZ 0041c940 f   SelectFolderDialog.obj
 0001:0001b950       ?WindowProcNew@@YGJPAUHWND__@@IIJ@Z 0041c950 f   SelectFolderDialog.obj
 0001:0001bbf0       ?OnInitDone@CSelectFolderDialog@@UAEXXZ 0041cbf0 f   SelectFolderDialog.obj
 0001:0001c2e0       ?OnFolderChange@CSelectFolderDialog@@UAEXXZ 0041d2e0 f   SelectFolderDialog.obj
 0001:0001c370       ?SetSelectedPath@CSelectFolderDialog@@QAEXPBD@Z 0041d370 f   SelectFolderDialog.obj
 0001:0001c390       ?GetSelectedPath@CSelectFolderDialog@@QBE?AV?$CStringT@DV?$StrTraitMFC@DV?$ChTraitsCRT@D@ATL@@@@@ATL@@XZ 0041d390 f   SelectFolderDialog.obj
 0001:0001c3d0       ?SetTitle@CSelectFolderDialog@@QAEXV?$CStringT@DV?$StrTraitMFC@DV?$ChTraitsCRT@D@ATL@@@@@ATL@@@Z 0041d3d0 f   SelectFolderDialog.obj
 0001:0001c430       ?GetFolderSize@CSelectFolderDialog@@QAE_KV?$CStringT@DV?$StrTraitMFC@DV?$ChTraitsCRT@D@ATL@@@@@ATL@@@Z 0041d430 f   SelectFolderDialog.obj
 0001:0001c5b0       ??_ECSelectFolderDialog@@UAEPAXI@Z 0041d5b0 f i SelectFolderDialog.obj
 0001:0001c5b0       ??_GCSelectFolderDialog@@UAEPAXI@Z 0041d5b0 f i SelectFolderDialog.obj
 0001:0001c5e0       ??HATL@@YA?AV?$CStringT@DV?$StrTraitMFC@DV?$ChTraitsCRT@D@ATL@@@@@0@ABV10@PBD@Z 0041d5e0 f i SelectFolderDialog.obj
 0001:0001c690       ?Height@CRect@@QBEHXZ      0041d690 f i SelectFolderDialog.obj
 0001:0001c6b0       ?IsDirectory@CFileFind@@QBEHXZ 0041d6b0 f i SelectFolderDialog.obj
 0001:0001c6d0       ?IsHidden@CFileFind@@QBEHXZ 0041d6d0 f i SelectFolderDialog.obj
 0001:0001c6f0       ?SetFont@CWnd@@QAEXPAVCFont@@H@Z 0041d6f0 f i SelectFolderDialog.obj
 0001:0001c720       ?GetWindowRect@CWnd@@QBEXPAUtagRECT@@@Z 0041d720 f i SelectFolderDialog.obj
 0001:0001c740       ?GetParent@CWnd@@QBEPAV1@XZ 0041d740 f i SelectFolderDialog.obj
 0001:0001c760       ?Create@CDialog@@UAEHIPAVCWnd@@@Z 0041d760 f i SelectFolderDialog.obj
 0001:0001c780       ??0CEdit@@QAE@XZ           0041d780 f i SelectFolderDialog.obj
 0001:0001c7a0       ??_ECEdit@@UAEPAXI@Z       0041d7a0 f i SelectFolderDialog.obj
 0001:0001c7a0       ??_GCEdit@@UAEPAXI@Z       0041d7a0 f i SelectFolderDialog.obj
 0001:0001c7d0       ?abs@@YAJJ@Z               0041d7d0 f i SelectFolderDialog.obj
 0001:0001c7f0       ??0CSkinButton@@QAE@XZ     0041d7f0 f   SkinButton.obj
 0001:0001c8c0       ?GetMessageMap@CSkinButton@@MBEPBUAFX_MSGMAP@@XZ 0041d8c0 f   SkinButton.obj
 0001:0001c8d0       ?GetThisMessageMap@CSkinButton@@KGPBUAFX_MSGMAP@@XZ 0041d8d0 f   SkinButton.obj
 0001:0001c8e0       ?InitButton@CSkinButton@@QAEXV?$CStringT@DV?$StrTraitMFC@DV?$ChTraitsCRT@D@ATL@@@@@ATL@@HHI@Z 0041d8e0 f   SkinButton.obj
 0001:0001ca20       ?PreSubclassWindow@CSkinButton@@MAEXXZ 0041da20 f   SkinButton.obj
 0001:0001ca80       ?DrawItem@CSkinButton@@MAEXPAUtagDRAWITEMSTRUCT@@@Z 0041da80 f   SkinButton.obj
 0001:0001cbf0       ?CopyFrom@CSkinButton@@IAEXVCRect@@AAVCBitmap@@H@Z 0041dbf0 f   SkinButton.obj
 0001:0001ce20       ?CopyBitmap@CSkinButton@@IAEXPAVCDC@@AAVCBitmap@@ABV3@UtagRECT@@@Z 0041de20 f   SkinButton.obj
 0001:0001cf40       ?OnLButtonUp@CSkinButton@@IAEXIVCPoint@@@Z 0041df40 f   SkinButton.obj
 0001:0001d000       ?OnMouseMove@CSkinButton@@IAEXIVCPoint@@@Z 0041e000 f   SkinButton.obj
 0001:0001d0f0       ?OnEraseBkgnd@CSkinButton@@IAEHPAVCDC@@@Z 0041e0f0 f   SkinButton.obj
 0001:0001d100       ?OnKillFocus@CSkinButton@@IAEXPAVCWnd@@@Z 0041e100 f   SkinButton.obj
 0001:0001d130       ?OnCaptureChanged@CSkinButton@@IAEXPAVCWnd@@@Z 0041e130 f   SkinButton.obj
 0001:0001d170       ?DrawTransparentBitmap@CSkinButton@@IAEXPAUHDC__@@PAUHBITMAP__@@FFK@Z 0041e170 f   SkinButton.obj
 0001:0001d4a0       ??_GCSkinButton@@UAEPAXI@Z 0041e4a0 f i SkinButton.obj
 0001:0001d4a0       ??_ECSkinButton@@UAEPAXI@Z 0041e4a0 f i SkinButton.obj
 0001:0001d4d0       ??1CSkinButton@@UAE@XZ     0041e4d0 f i SkinButton.obj
 0001:0001d570       ?SetRect@CRect@@QAEXHHHH@Z 0041e570 f i SkinButton.obj
 0001:0001d5a0       ?CreateCompatibleBitmap@CBitmap@@QAEHPAVCDC@@HH@Z 0041e5a0 f i SkinButton.obj
 0001:0001d5d0       ?SelectObject@CDC@@QAEPAXPAX@Z 0041e5d0 f i SkinButton.obj
 0001:0001d610       ?GetOwner@CWnd@@QBEPAV1@XZ 0041e610 f i SkinButton.obj
 0001:0001d650       ?GetDC@CWnd@@QAEPAVCDC@@XZ 0041e650 f i SkinButton.obj
 0001:0001d670       ?GetActiveWindow@CWnd@@SGPAV1@XZ 0041e670 f i SkinButton.obj
 0001:0001d690       ??0CButton@@QAE@XZ         0041e690 f i SkinButton.obj
 0001:0001d6b0       ??_GCButton@@UAEPAXI@Z     0041e6b0 f i SkinButton.obj
 0001:0001d6b0       ??_ECButton@@UAEPAXI@Z     0041e6b0 f i SkinButton.obj
 0001:0001d6e0       ?GetButtonStyle@CButton@@QBEIXZ 0041e6e0 f i SkinButton.obj
 0001:0001d700       ?SetButtonStyle@CButton@@QAEXIH@Z 0041e700 f i SkinButton.obj
 0001:0001d730       ??0CSkinDialog@@QAE@IPAVCWnd@@@Z 0041e730 f   SkinDialog.obj
 0001:0001d7e0       ??1CSkinDialog@@UAE@XZ     0041e7e0 f   SkinDialog.obj
 0001:0001d870       ?GetMessageMap@CSkinDialog@@MBEPBUAFX_MSGMAP@@XZ 0041e870 f   SkinDialog.obj
 0001:0001d880       ?GetThisMessageMap@CSkinDialog@@KGPBUAFX_MSGMAP@@XZ 0041e880 f   SkinDialog.obj
 0001:0001d890       ?OnInitDialog@CSkinDialog@@MAEHXZ 0041e890 f   SkinDialog.obj
 0001:0001d8c0       ?Free@CSkinDialog@@IAEXXZ  0041e8c0 f   SkinDialog.obj
 0001:0001d960       ?Skin_LoadBG@CSkinDialog@@QAEXIHH@Z 0041e960 f   SkinDialog.obj
 0001:0001dac0       ?OnSysCommand@CSkinDialog@@IAEXIJ@Z 0041eac0 f   SkinDialog.obj
 0001:0001daf0       ?Skin_TitleHeight@CSkinDialog@@QAEXH@Z 0041eaf0 f   SkinDialog.obj
 0001:0001db10       ?OnLButtonDown@CSkinDialog@@IAEXIVCPoint@@@Z 0041eb10 f   SkinDialog.obj
 0001:0001db90       ?OnPaint@CSkinDialog@@IAEXXZ 0041eb90 f   SkinDialog.obj
 0001:0001dbf0       ?OnMouseMove@CSkinDialog@@IAEXIVCPoint@@@Z 0041ebf0 f   SkinDialog.obj
 0001:0001dc20       ?Skin_InsertButton@CSkinDialog@@QAEXIV?$CStringT@DV?$StrTraitMFC@DV?$ChTraitsCRT@D@ATL@@@@@ATL@@HVCRect@@@Z 0041ec20 f   SkinDialog.obj
 0001:0001dd20       ?Skin_SetButtonEnable@CSkinDialog@@QAEXV?$CStringT@DV?$StrTraitMFC@DV?$ChTraitsCRT@D@ATL@@@@@ATL@@H@Z 0041ed20 f   SkinDialog.obj
 0001:0001ddd0       ?Skin_MoveCtrl@CSkinDialog@@QAEXV?$CStringT@DV?$StrTraitMFC@DV?$ChTraitsCRT@D@ATL@@@@@ATL@@HHHH@Z 0041edd0 f   SkinDialog.obj
 0001:0001de90       ?Skin_SetButtonVisible@CSkinDialog@@QAEXV?$CStringT@DV?$StrTraitMFC@DV?$ChTraitsCRT@D@ATL@@@@@ATL@@H@Z 0041ee90 f   SkinDialog.obj
 0001:0001df40       ?Skin_SetCheck@CSkinDialog@@QAEXV?$CStringT@DV?$StrTraitMFC@DV?$ChTraitsCRT@D@ATL@@@@@ATL@@H@Z 0041ef40 f   SkinDialog.obj
 0001:0001e000       ?Skin_GetCheck@CSkinDialog@@QAEHV?$CStringT@DV?$StrTraitMFC@DV?$ChTraitsCRT@D@ATL@@@@@ATL@@@Z 0041f000 f   SkinDialog.obj
 0001:0001e0d0       ?OnSize@CSkinDialog@@IAEXIHH@Z 0041f0d0 f   SkinDialog.obj
 0001:0001e140       ?ShowMaxWindow@CSkinDialog@@QAEXXZ 0041f140 f   SkinDialog.obj
 0001:0001e200       ?ShowNormalWindow@CSkinDialog@@QAEXXZ 0041f200 f   SkinDialog.obj
 0001:0001e2a0       ?OnEraseBkgnd@CSkinDialog@@IAEHPAVCDC@@@Z 0041f2a0 f   SkinDialog.obj
 0001:0001e400       ?MakeBigWindow@CSkinDialog@@QAEXXZ 0041f400 f   SkinDialog.obj
 0001:0001e990       ?GetBigWindowSize@CSkinDialog@@QAEXXZ 0041f990 f   SkinDialog.obj
 0001:0001ea00       ?OnCtlColor@CSkinDialog@@IAEPAUHBRUSH__@@PAVCDC@@PAVCWnd@@I@Z 0041fa00 f   SkinDialog.obj
 0001:0001ea30       ?Skin_ButtonPressed@CSkinDialog@@UAE_NV?$CStringT@DV?$StrTraitMFC@DV?$ChTraitsCRT@D@ATL@@@@@ATL@@@Z 0041fa30 f   SkinDialog.obj
 0001:0001ea50       ?Skin_PressButton@CSkinDialog@@UAE_NH@Z 0041fa50 f   SkinDialog.obj
 0001:0001eaa0       ?BitmapToRegion@CSkinDialog@@QAEPAUHRGN__@@PAUHBITMAP__@@KK@Z 0041faa0 f   SkinDialog.obj
 0001:0001f140       ??_GCSkinDialog@@UAEPAXI@Z 00420140 f i SkinDialog.obj
 0001:0001f140       ??_ECSkinDialog@@UAEPAXI@Z 00420140 f i SkinDialog.obj
 0001:0001f170       ??0?$CTypedPtrArray@VCPtrArray@@PAVCSkinButton@@@@QAE@XZ 00420170 f i SkinDialog.obj
 0001:0001f190       ??1?$CTypedPtrArray@VCPtrArray@@PAVCSkinButton@@@@UAE@XZ 00420190 f i SkinDialog.obj
 0001:0001f1b0       ??_G?$CTypedPtrArray@VCPtrArray@@PAVCSkinButton@@@@UAEPAXI@Z 004201b0 f i SkinDialog.obj
 0001:0001f1b0       ??_E?$CTypedPtrArray@VCPtrArray@@PAVCSkinButton@@@@UAEPAXI@Z 004201b0 f i SkinDialog.obj
 0001:0001f1e0       ??8ATL@@YA_NABV?$CStringT@DV?$StrTraitMFC@DV?$ChTraitsCRT@D@ATL@@@@@0@0@Z 004201e0 f i SkinDialog.obj
 0001:0001f200       ?GetAt@?$CTypedPtrArray@VCPtrArray@@PAVCSkinButton@@@@QBEPAVCSkinButton@@H@Z 00420200 f i SkinDialog.obj
 0001:0001f220       ?Add@?$CTypedPtrArray@VCPtrArray@@PAVCSkinButton@@@@QAEHPAVCSkinButton@@@Z 00420220 f i SkinDialog.obj
 0001:0001f240       ?GetSize@CStringArray@@QBEHXZ 00420240 f i registry.obj
 0001:0001f240       ?GetSize@CPtrArray@@QBEHXZ 00420240 f i SkinDialog.obj
 0001:0001f240       ?GetCount@?$List@PAVPacket@@@@QBEHXZ 00420240 f i NetworkController.obj
 0001:0001f260       ?RemoveAll@CPtrArray@@QAEXXZ 00420260 f i SkinDialog.obj
 0001:0001f280       ?GetAt@CPtrArray@@QBEPAXH@Z 00420280 f i SkinDialog.obj
 0001:0001f2b0       ?Add@CPtrArray@@QAEHPAX@Z  004202b0 f i SkinDialog.obj
 0001:0001f2e0       ?PostMessageA@CWnd@@QAEHIIJ@Z 004202e0 f i SkinDialog.obj
 0001:0001f310       ?OnMouseMove@CWnd@@IAEXIVCPoint@@@Z 00420310 f i ComboEx.obj
 0001:0001f310       ?OnSize@CWnd@@IAEXIHH@Z    00420310 f i SkinDialog.obj
 0001:0001f310       ?OnLButtonUp@CWnd@@IAEXIVCPoint@@@Z 00420310 f i ComboEx.obj
 0001:0001f310       ?OnLButtonDown@CWnd@@IAEXIVCPoint@@@Z 00420310 f i ComboEx.obj
 0001:0001f310       ?OnSetCursor@CWnd@@IAEHPAV1@II@Z 00420310 f i Label.obj
 0001:0001f330       ??0SkinProgress@@QAE@XZ    00420330 f   SkinProgress.obj
 0001:0001f4c0       ??1SkinProgress@@UAE@XZ    004204c0 f   SkinProgress.obj
 0001:0001f540       ?GetMessageMap@SkinProgress@@MBEPBUAFX_MSGMAP@@XZ 00420540 f   SkinProgress.obj
 0001:0001f550       ?GetThisMessageMap@SkinProgress@@KGPBUAFX_MSGMAP@@XZ 00420550 f   SkinProgress.obj
 0001:0001f560       ?OnPaint@SkinProgress@@IAEXXZ 00420560 f   SkinProgress.obj
 0001:0001fcb0       ?OnEraseBkgnd@SkinProgress@@IAEHPAVCDC@@@Z 00420cb0 f   SkinProgress.obj
 0001:0001fce0       ?SetBitmap@SkinProgress@@QAEXHH@Z 00420ce0 f   SkinProgress.obj
 0001:0001fd90       ?SetText@SkinProgress@@QAEXV?$CStringT@DV?$StrTraitMFC@DV?$ChTraitsCRT@D@ATL@@@@@ATL@@@Z 00420d90 f   SkinProgress.obj
 0001:0001fe00       ?SetPos@SkinProgress@@QAEHH@Z 00420e00 f   SkinProgress.obj
 0001:0001fe40       ?SetRange@SkinProgress@@QAEXHH@Z 00420e40 f   SkinProgress.obj
 0001:0001fe70       ?SetStep@SkinProgress@@QAEHH@Z 00420e70 f   SkinProgress.obj
 0001:0001fe90       ?StepIt@SkinProgress@@QAEHXZ 00420e90 f   SkinProgress.obj
 0001:0001fef0       ?SetForeColor@SkinProgress@@QAEXK@Z 00420ef0 f   SkinProgress.obj
 0001:0001ff10       ?SetBkColor@SkinProgress@@QAEXK@Z 00420f10 f   SkinProgress.obj
 0001:0001ff30       ?SetTextForeColor@SkinProgress@@QAEXK@Z 00420f30 f   SkinProgress.obj
 0001:0001ff50       ?SetTextBkColor@SkinProgress@@QAEXK@Z 00420f50 f   SkinProgress.obj
 0001:0001ff70       ?SetTextColor@SkinProgress@@QAEXK@Z 00420f70 f   SkinProgress.obj
 0001:0001ff90       ?SetStyle@SkinProgress@@QAEXH@Z 00420f90 f   SkinProgress.obj
 0001:0001ffb0       ?SetBold@SkinProgress@@QAEXH@Z 00420fb0 f   SkinProgress.obj
 0001:0001ffd0       ??_GSkinProgress@@UAEPAXI@Z 00420fd0 f i SkinProgress.obj
 0001:0001ffd0       ??_ESkinProgress@@UAEPAXI@Z 00420fd0 f i SkinProgress.obj
 0001:00020000       ?GetObjectA@CGdiObject@@QBEHHPAX@Z 00421000 f i SkinProgress.obj
 0001:00020030       ?CreateFontA@CFont@@QAEHHHHHHEEEEEEEEPBD@Z 00421030 f i SkinProgress.obj
 0001:00020090       ?CreateRectRgn@CRgn@@QAEHHHHH@Z 00421090 f i SkinProgress.obj
 0001:000200c0       ?BitBlt@CDC@@QAEHHHHHPAV1@HHK@Z 004210c0 f i SkinProgress.obj
 0001:00020100       ??0CTrayIconPosition@@QAE@XZ 00421100 f   TrayIconPosition.obj
 0001:00020190       ??1CTrayIconPosition@@UAE@XZ 00421190 f   TrayIconPosition.obj
 0001:000201b0       ?InitializePositionTracking@CTrayIconPosition@@QAEXPAUHWND__@@H@Z 004211b0 f   TrayIconPosition.obj
 0001:000201d0       ?GetTrayIconPosition@CTrayIconPosition@@QAEHAAVCPoint@@W4TrackType@1@W4Precision@1@@Z 004211d0 f   TrayIconPosition.obj
 0001:00020260       ?SetPrecisionTimeOuts@CTrayIconPosition@@QAEXHHH@Z 00421260 f   TrayIconPosition.obj
 0001:00020290       ?FindTrayWnd@CTrayIconPosition@@KGHPAUHWND__@@J@Z 00421290 f   TrayIconPosition.obj
 0001:00020300       ?FindToolBarInTrayWnd@CTrayIconPosition@@KGHPAUHWND__@@J@Z 00421300 f   TrayIconPosition.obj
 0001:00020370       ?GetTrayNotifyWnd@CTrayIconPosition@@KAPAUHWND__@@H@Z 00421370 f   TrayIconPosition.obj
 0001:000203f0       ?GetTrayWndRect@CTrayIconPosition@@KA?AVCRect@@XZ 004213f0 f   TrayIconPosition.obj
 0001:000204a0       ?FindOutPositionOfIconDirectly@CTrayIconPosition@@KAHQAUHWND__@@HAAVCRect@@@Z 004214a0 f   TrayIconPosition.obj
 0001:000206f0       ?FindOutPositionOfIcon@CTrayIconPosition@@IAEHPAUHICON__@@@Z 004216f0 f   TrayIconPosition.obj
 0001:00020880       ?RestoreTrayIcon@CTrayIconPosition@@QAEXPAUHICON__@@@Z 00421880 f   TrayIconPosition.obj
 0001:000208e0       ?Invalidate@CTrayIconPosition@@QAEXXZ 004218e0 f   TrayIconPosition.obj
 0001:00020920       ??_GCTrayIconPosition@@UAEPAXI@Z 00421920 f i TrayIconPosition.obj
 0001:00020920       ??_ECTrayIconPosition@@UAEPAXI@Z 00421920 f i TrayIconPosition.obj
 0001:00020950       ?CheckIfColorIsBlackOrNearBlack@CTrayIconPosition@@IAEHK@Z 00421950 f i TrayIconPosition.obj
 0001:00020970       ??0CTime@ATL@@QAE@XZ       00421970 f i TrayIconPosition.obj
 0001:00020990       ??0CTime@ATL@@QAE@HHHHHHH@Z 00421990 f i TrayIconPosition.obj
 0001:00020b40       ??4CRect@@QAEXABUtagRECT@@@Z 00421b40 f i TrayIconPosition.obj
 0001:00020b60       ?Skin_ButtonPressed@down_window@@UAE_NV?$CStringT@DV?$StrTraitMFC@DV?$ChTraitsCRT@D@ATL@@@@@ATL@@@Z 00421b60 f   down_window_func.obj
 0001:00020b80       ?GetDiskFreeSpaceMMSV@down_window@@QAE_JV?$CStringT@DV?$StrTraitMFC@DV?$ChTraitsCRT@D@ATL@@@@@ATL@@@Z 00421b80 f   down_window_func.obj
 0001:00020c60       ?GetTransListIndex@down_window@@QAEHXZ 00421c60 f   down_window_func.obj
 0001:00020d10       ?DeferItem@down_window@@QAEKXZ 00421d10 f   down_window_func.obj
 0001:00020e10       ?InsertItem@down_window@@QAEXPAURDOWNCONTEXT@@@Z 00421e10 f   down_window_func.obj
 0001:000215c0       ?MSG_Window@down_window@@QAEJIJ@Z 004225c0 f   down_window_func.obj
 0001:00021700       ?MSG_DownLoad@down_window@@QAEJIJ@Z 00422700 f   down_window_func.obj
 0001:00021720       ?MSG_OverWrite@down_window@@QAEJIJ@Z 00422720 f   down_window_func.obj
 0001:00021860       ?MSG_ForceExit@down_window@@QAEJIJ@Z 00422860 f   down_window_func.obj
 0001:00021920       ?OnNMDblclkFilelist@down_window@@IAEXPAUtagNMHDR@@PAJ@Z 00422920 f   down_window_func.obj
 0001:000219b0       ?SetSizeFormat@down_window@@QAE?AV?$CStringT@DV?$StrTraitMFC@DV?$ChTraitsCRT@D@ATL@@@@@ATL@@_J@Z 004229b0 f   down_window_func.obj
 0001:00021a90       ?SetNumFormat@down_window@@QAE?AV?$CStringT@DV?$StrTraitMFC@DV?$ChTraitsCRT@D@ATL@@@@@ATL@@_J@Z 00422a90 f   down_window_func.obj
 0001:00021b80       ?SetSpeedFormatKGrid@down_window@@QAE?AV?$CStringT@DV?$StrTraitMFC@DV?$ChTraitsCRT@D@ATL@@@@@ATL@@NKK@Z 00422b80 f   down_window_func.obj
 0001:00021c70       ?SetSpeedFormat@down_window@@QAE?AV?$CStringT@DV?$StrTraitMFC@DV?$ChTraitsCRT@D@ATL@@@@@ATL@@_JKK@Z 00422c70 f   down_window_func.obj
 0001:00021db0       ?MoveItem@down_window@@QAEXH@Z 00422db0 f   down_window_func.obj
 0001:00022490       ?DeleteList@down_window@@QAEXH@Z 00423490 f   down_window_func.obj
 0001:00022850       ?GetFileStatus@down_window@@QAE?AV?$CStringT@DV?$StrTraitMFC@DV?$ChTraitsCRT@D@ATL@@@@@ATL@@H@Z 00423850 f   down_window_func.obj
 0001:00022a10       ?SetRedraw@CWnd@@QAEXH@Z   00423a10 f i down_window_func.obj
 0001:00022a40       ?InsertItem@CListCtrl@@QAEHPBUtagLVITEMA@@@Z 00423a40 f i down_window_func.obj
 0001:00022a70       ?InsertItem@CListCtrl@@QAEHHPBDH@Z 00423a70 f i down_window_func.obj
 0001:00022aa0       ?DeleteItem@CListCtrl@@QAEHH@Z 00423aa0 f i down_window_func.obj
 0001:00022ad0       ?DeleteAllItems@CListCtrl@@QAEHXZ 00423ad0 f i down_window_func.obj
 0001:00022b00       ?GetNextItem@CListCtrl@@QBEHHH@Z 00423b00 f i down_window_func.obj
 0001:00022b30       ?GetSelectedCount@CListCtrl@@QBEIXZ 00423b30 f i down_window_func.obj
 0001:00022b60       ?ReSetTransInfo@down_window@@QAE_NXZ 00423b60 f   down_window_hacf.obj
 0001:00023eb0       ?FileTransLoop@down_window@@QAEXXZ 00424eb0 f   down_window_hacf.obj
 0001:00024170       ?ProcFileTransLoop@@YGIPAX@Z 00425170 f   down_window_hacf.obj
 0001:00024190       ?SetTransFlag@down_window@@QAEX_N@Z 00425190 f   down_window_hacf.obj
 0001:00024300       ?DownLoadPro@down_window@@QAEXXZ 00425300 f   down_window_hacf.obj
 0001:00025460       ?IsActiveTray@CBTray@@QAEHXZ 00426460 f i down_window_hacf.obj
 0001:00025480       ?erase@?$vector@UCONTENTSITEM@@V?$allocator@UCONTENTSITEM@@@std@@@std@@QAE?AV?$_Vector_iterator@UCONTENTSITEM@@V?$allocator@UCONTENTSITEM@@@std@@@2@V32@@Z 00426480 f i down_window_hacf.obj
 0001:000254e0       ??C?$_Vector_iterator@UCONTENTSITEM@@V?$allocator@UCONTENTSITEM@@@std@@@std@@QBEPAUCONTENTSITEM@@XZ 004264e0 f i down_window_hacf.obj
 0001:00025500       ??E?$_Vector_iterator@UCONTENTSITEM@@V?$allocator@UCONTENTSITEM@@@std@@@std@@QAE?AV01@H@Z 00426500 f i down_window_hacf.obj
 0001:00025540       ??E?$_Vector_iterator@UCONTENTSITEM@@V?$allocator@UCONTENTSITEM@@@std@@@std@@QAEAAV01@XZ 00426540 f i down_window_hacf.obj
 0001:00025560       ??E?$_Vector_const_iterator@UCONTENTSITEM@@V?$allocator@UCONTENTSITEM@@@std@@@std@@QAEAAV01@XZ 00426560 f i down_window_hacf.obj
 0001:000255a0       ??$unchecked_copy@PAUCONTENTSITEM@@PAU1@@stdext@@YAPAUCONTENTSITEM@@PAU1@00@Z 004265a0 f i down_window_hacf.obj
 0001:00025610       ??$_Copy_opt@PAUCONTENTSITEM@@PAU1@@std@@YAPAUCONTENTSITEM@@PAU1@00Urandom_access_iterator_tag@0@U_Nonscalar_ptr_iterator_tag@0@U_Range_checked_iterator_tag@0@@Z 00426610 f i down_window_hacf.obj
 0001:00025670       ??$_Copy_opt@PAUCONTENTSITEM@@PAU1@Uforward_iterator_tag@std@@@std@@YAPAUCONTENTSITEM@@PAU1@00Uforward_iterator_tag@0@U_Nonscalar_ptr_iterator_tag@0@U_Range_checked_iterator_tag@0@@Z 00426670 f i down_window_hacf.obj
 0001:000256b0       ?EnsureVisible@CListCtrl@@QAEHHH@Z 004266b0 f i down_window_hacf.obj
 0001:000256e0       ??0down_window@@QAE@PAVCWnd@@@Z 004266e0 f   down_window_init.obj
 0001:00025c30       ?DoDataExchange@down_window@@MAEXPAVCDataExchange@@@Z 00426c30 f   down_window_init.obj
 0001:00025cf0       ?GetMessageMap@down_window@@MBEPBUAFX_MSGMAP@@XZ 00426cf0 f   down_window_init.obj
 0001:00025d00       ?GetThisMessageMap@down_window@@KGPBUAFX_MSGMAP@@XZ 00426d00 f   down_window_init.obj
 0001:00025d10       ?IsVistaOS@down_window@@QAE_NXZ 00426d10 f   down_window_init.obj
 0001:00025d90       ?AddMessageFilter@down_window@@QAEHPAI@Z 00426d90 f   down_window_init.obj
 0001:00025e40       ?OnInitDialog@down_window@@MAEHXZ 00426e40 f   down_window_init.obj
 0001:00026070       ?SafeTerminateProcess@down_window@@QAEHPAXI@Z 00427070 f   down_window_init.obj
 0001:000261c0       ?OnTimer@down_window@@IAEXI@Z 004271c0 f   down_window_init.obj
 0001:00027130       ?OnCopyData@down_window@@IAEHPAVCWnd@@PAUtagCOPYDATASTRUCT@@@Z 00428130 f   down_window_init.obj
 0001:00027460       ?OnCtlColor@down_window@@IAEPAUHBRUSH__@@PAVCDC@@PAVCWnd@@I@Z 00428460 f   down_window_init.obj
 0001:000274e0       ?OnSysCommand@down_window@@IAEXIJ@Z 004284e0 f   down_window_init.obj
 0001:00027520       ?InitWindow@down_window@@UAEXXZ 00428520 f   down_window_init.obj
 0001:00027530       ?ChnPosition@down_window@@UAEXHH@Z 00428530 f   down_window_init.obj
 0001:00027540       ?DrawCtrl@down_window@@UAEPAUHBRUSH__@@PAVCDC@@I@Z 00428540 f   down_window_init.obj
 0001:00027550       ?OnSize@down_window@@IAEXIHH@Z 00428550 f   down_window_init.obj
 0001:00027580       ?InitListControl@down_window@@UAEXXZ 00428580 f   down_window_init.obj
 0001:00027590       ?RegRead@down_window@@QAEXXZ 00428590 f   down_window_init.obj
 0001:00027780       ?RegWrite@down_window@@QAEXXZ 00428780 f   down_window_init.obj
 0001:00027950       ?Exit_Program@down_window@@QAEX_N0@Z 00428950 f   down_window_init.obj
 0001:00027f20       ?PreTranslateMessage@down_window@@MAEHPAUtagMSG@@@Z 00428f20 f   down_window_init.obj
 0001:00027fa0       ?SystemShutdownOTN@down_window@@QAEXXZ 00428fa0 f   down_window_init.obj
 0001:00028020       ?OnTrayIconNotify@down_window@@IAEJIJ@Z 00429020 f   down_window_init.obj
 0001:00028050       ?OnTrayMenuOpen@down_window@@IAEXXZ 00429050 f   down_window_init.obj
 0001:00028070       ?OnTrayMenuHome@down_window@@IAEXXZ 00429070 f   down_window_init.obj
 0001:000280a0       ?OnTrayMenuExit@down_window@@IAEXXZ 004290a0 f   down_window_init.obj
 0001:000280d0       ?CreateShortcut@down_window@@QAE_NPAD@Z 004290d0 f   down_window_init.obj
 0001:00028920       ?OnPaint@down_window@@QAEXXZ 00429920 f   down_window_init.obj
 0001:00028960       ?Download_List_update@down_window@@QAEXXZ 00429960 f   down_window_init.obj
 0001:00028c50       ??_Edown_window@@UAEPAXI@Z 00429c50 f i down_window_init.obj
 0001:00028c50       ??_Gdown_window@@UAEPAXI@Z 00429c50 f i down_window_init.obj
 0001:00028c80       ??1down_window@@UAE@XZ     00429c80 f i down_window_init.obj
 0001:00028e50       ?Stop@CHtmlView@@QAEXXZ    00429e50 f i down_window_init.obj
 0001:00028e80       ??_GFtpClient@@QAEPAXI@Z   00429e80 f i down_window_init.obj
 0001:00028eb0       ??_GWorker@@QAEPAXI@Z      00429eb0 f i down_window_init.obj
 0001:00028ee0       ??0?$vector@V?$CStringT@DV?$StrTraitMFC@DV?$ChTraitsCRT@D@ATL@@@@@ATL@@V?$allocator@V?$CStringT@DV?$StrTraitMFC@DV?$ChTraitsCRT@D@ATL@@@@@ATL@@@std@@@std@@QAE@XZ 00429ee0 f i down_window_init.obj
 0001:00028f10       ??1?$vector@V?$CStringT@DV?$StrTraitMFC@DV?$ChTraitsCRT@D@ATL@@@@@ATL@@V?$allocator@V?$CStringT@DV?$StrTraitMFC@DV?$ChTraitsCRT@D@ATL@@@@@ATL@@@std@@@std@@QAE@XZ 00429f10 f i down_window_init.obj
 0001:00028f30       ?size@?$vector@V?$CStringT@DV?$StrTraitMFC@DV?$ChTraitsCRT@D@ATL@@@@@ATL@@V?$allocator@V?$CStringT@DV?$StrTraitMFC@DV?$ChTraitsCRT@D@ATL@@@@@ATL@@@std@@@std@@QBEIXZ 00429f30 f i down_window_init.obj
 0001:00028f70       ??A?$vector@V?$CStringT@DV?$StrTraitMFC@DV?$ChTraitsCRT@D@ATL@@@@@ATL@@V?$allocator@V?$CStringT@DV?$StrTraitMFC@DV?$ChTraitsCRT@D@ATL@@@@@ATL@@@std@@@std@@QAEAAV?$CStringT@DV?$StrTraitMFC@DV?$ChTraitsCRT@D@ATL@@@@@ATL@@I@Z 00429f70 f i down_window_init.obj
 0001:00028fa0       ?push_back@?$vector@V?$CStringT@DV?$StrTraitMFC@DV?$ChTraitsCRT@D@ATL@@@@@ATL@@V?$allocator@V?$CStringT@DV?$StrTraitMFC@DV?$ChTraitsCRT@D@ATL@@@@@ATL@@@std@@@std@@QAEXABV?$CStringT@DV?$StrTraitMFC@DV?$ChTraitsCRT@D@ATL@@@@@ATL@@@Z 00429fa0 f i down_window_init.obj
 0001:00029010       ??0?$vector@UCONTENTSITEM@@V?$allocator@UCONTENTSITEM@@@std@@@std@@QAE@XZ 0042a010 f i down_window_init.obj
 0001:00029040       ??1?$vector@UCONTENTSITEM@@V?$allocator@UCONTENTSITEM@@@std@@@std@@QAE@XZ 0042a040 f i down_window_init.obj
 0001:00029060       ?capacity@?$vector@V?$CStringT@DV?$StrTraitMFC@DV?$ChTraitsCRT@D@ATL@@@@@ATL@@V?$allocator@V?$CStringT@DV?$StrTraitMFC@DV?$ChTraitsCRT@D@ATL@@@@@ATL@@@std@@@std@@QBEIXZ 0042a060 f i down_window_init.obj
 0001:000290a0       ?insert@?$vector@V?$CStringT@DV?$StrTraitMFC@DV?$ChTraitsCRT@D@ATL@@@@@ATL@@V?$allocator@V?$CStringT@DV?$StrTraitMFC@DV?$ChTraitsCRT@D@ATL@@@@@ATL@@@std@@@std@@QAE?AV?$_Vector_iterator@V?$CStringT@DV?$StrTraitMFC@DV?$ChTraitsCRT@D@ATL@@@@@ATL@@V?$allocator@V?$CStringT@DV?$StrTraitMFC@DV?$ChTraitsCRT@D@ATL@@@@@ATL@@@std@@@2@V32@ABV?$CStringT@DV?$StrTraitMFC@DV?$ChTraitsCRT@D@ATL@@@@@ATL@@@Z 0042a0a0 f i down_window_init.obj
 0001:00029120       ?_Buy@?$vector@V?$CStringT@DV?$StrTraitMFC@DV?$ChTraitsCRT@D@ATL@@@@@ATL@@V?$allocator@V?$CStringT@DV?$StrTraitMFC@DV?$ChTraitsCRT@D@ATL@@@@@ATL@@@std@@@std@@IAE_NI@Z 0042a120 f i down_window_init.obj
 0001:000291a0       ?_Tidy@?$vector@V?$CStringT@DV?$StrTraitMFC@DV?$ChTraitsCRT@D@ATL@@@@@ATL@@V?$allocator@V?$CStringT@DV?$StrTraitMFC@DV?$ChTraitsCRT@D@ATL@@@@@ATL@@@std@@@std@@IAEXXZ 0042a1a0 f i down_window_init.obj
 0001:00029210       ?_Ufill@?$vector@V?$CStringT@DV?$StrTraitMFC@DV?$ChTraitsCRT@D@ATL@@@@@ATL@@V?$allocator@V?$CStringT@DV?$StrTraitMFC@DV?$ChTraitsCRT@D@ATL@@@@@ATL@@@std@@@std@@IAEPAV?$CStringT@DV?$StrTraitMFC@DV?$ChTraitsCRT@D@ATL@@@@@ATL@@PAV34@IABV34@@Z 0042a210 f i down_window_init.obj
 0001:00029240       ?_Buy@?$vector@UCONTENTSITEM@@V?$allocator@UCONTENTSITEM@@@std@@@std@@IAE_NI@Z 0042a240 f i down_window_init.obj
 0001:000292c0       ?_Tidy@?$vector@UCONTENTSITEM@@V?$allocator@UCONTENTSITEM@@@std@@@std@@IAEXXZ 0042a2c0 f i down_window_init.obj
 0001:00029330       ??0?$_String_val@DV?$allocator@D@std@@@std@@IAE@V?$allocator@D@1@@Z 0042a330 f i PictureEx.obj
 0001:00029330       ??0?$_Vector_val@UTFrame@CPictureEx@@V?$allocator@UTFrame@CPictureEx@@@std@@@std@@IAE@V?$allocator@UTFrame@CPictureEx@@@1@@Z 0042a330 f i PictureEx.obj
 0001:00029330       ??0?$_Vector_val@V?$CStringT@DV?$StrTraitMFC@DV?$ChTraitsCRT@D@ATL@@@@@ATL@@V?$allocator@V?$CStringT@DV?$StrTraitMFC@DV?$ChTraitsCRT@D@ATL@@@@@ATL@@@std@@@std@@IAE@V?$allocator@V?$CStringT@DV?$StrTraitMFC@DV?$ChTraitsCRT@D@ATL@@@@@ATL@@@1@@Z 0042a330 f i down_window_init.obj
 0001:00029330       ??0?$_Vector_val@UCONTENTSITEM@@V?$allocator@UCONTENTSITEM@@@std@@@std@@IAE@V?$allocator@UCONTENTSITEM@@@1@@Z 0042a330 f i down_window_init.obj
 0001:00029350       ?max_size@?$vector@V?$CStringT@DV?$StrTraitMFC@DV?$ChTraitsCRT@D@ATL@@@@@ATL@@V?$allocator@V?$CStringT@DV?$StrTraitMFC@DV?$ChTraitsCRT@D@ATL@@@@@ATL@@@std@@@std@@QBEIXZ 0042a350 f i down_window_init.obj
 0001:00029370       ?_Destroy@?$vector@V?$CStringT@DV?$StrTraitMFC@DV?$ChTraitsCRT@D@ATL@@@@@ATL@@V?$allocator@V?$CStringT@DV?$StrTraitMFC@DV?$ChTraitsCRT@D@ATL@@@@@ATL@@@std@@@std@@IAEXPAV?$CStringT@DV?$StrTraitMFC@DV?$ChTraitsCRT@D@ATL@@@@@ATL@@0@Z 0042a370 f i down_window_init.obj
 0001:000293a0       ?_Insert_n@?$vector@V?$CStringT@DV?$StrTraitMFC@DV?$ChTraitsCRT@D@ATL@@@@@ATL@@V?$allocator@V?$CStringT@DV?$StrTraitMFC@DV?$ChTraitsCRT@D@ATL@@@@@ATL@@@std@@@std@@IAEXV?$_Vector_iterator@V?$CStringT@DV?$StrTraitMFC@DV?$ChTraitsCRT@D@ATL@@@@@ATL@@V?$allocator@V?$CStringT@DV?$StrTraitMFC@DV?$ChTraitsCRT@D@ATL@@@@@ATL@@@std@@@2@IABV?$CStringT@DV?$StrTraitMFC@DV?$ChTraitsCRT@D@ATL@@@@@ATL@@@Z 0042a3a0 f i down_window_init.obj
 0001:00029700       ?_Xlen@?$vector@UCONTENTSITEM@@V?$allocator@UCONTENTSITEM@@@std@@@std@@KAXXZ 0042a700 f i Worker.obj
 0001:00029700       ?_Xlen@?$vector@UTFrame@CPictureEx@@V?$allocator@UTFrame@CPictureEx@@@std@@@std@@KAXXZ 0042a700 f i PictureEx.obj
 0001:00029700       ?_Xlen@?$vector@V?$CStringT@DV?$StrTraitMFC@DV?$ChTraitsCRT@D@ATL@@@@@ATL@@V?$allocator@V?$CStringT@DV?$StrTraitMFC@DV?$ChTraitsCRT@D@ATL@@@@@ATL@@@std@@@std@@KAXXZ 0042a700 f i down_window_init.obj
 0001:00029780       ?allocate@?$allocator@V?$CStringT@DV?$StrTraitMFC@DV?$ChTraitsCRT@D@ATL@@@@@ATL@@@std@@QAEPAV?$CStringT@DV?$StrTraitMFC@DV?$ChTraitsCRT@D@ATL@@@@@ATL@@I@Z 0042a780 f i down_window_init.obj
 0001:000297a0       ??H?$_Vector_iterator@V?$CStringT@DV?$StrTraitMFC@DV?$ChTraitsCRT@D@ATL@@@@@ATL@@V?$allocator@V?$CStringT@DV?$StrTraitMFC@DV?$ChTraitsCRT@D@ATL@@@@@ATL@@@std@@@std@@QBE?AV01@H@Z 0042a7a0 f i down_window_init.obj
 0001:000297e0       ??G?$_Vector_iterator@V?$CStringT@DV?$StrTraitMFC@DV?$ChTraitsCRT@D@ATL@@@@@ATL@@V?$allocator@V?$CStringT@DV?$StrTraitMFC@DV?$ChTraitsCRT@D@ATL@@@@@ATL@@@std@@@std@@QBEHABV?$_Vector_const_iterator@V?$CStringT@DV?$StrTraitMFC@DV?$ChTraitsCRT@D@ATL@@@@@ATL@@V?$allocator@V?$CStringT@DV?$StrTraitMFC@DV?$ChTraitsCRT@D@ATL@@@@@ATL@@@std@@@1@@Z 0042a7e0 f i down_window_init.obj
 0001:00029800       ?max_size@?$allocator@V?$CStringT@DV?$StrTraitMFC@DV?$ChTraitsCRT@D@ATL@@@@@ATL@@@std@@QBEIXZ 0042a800 f i down_window_init.obj
 0001:00029830       ??Y?$_Vector_iterator@V?$CStringT@DV?$StrTraitMFC@DV?$ChTraitsCRT@D@ATL@@@@@ATL@@V?$allocator@V?$CStringT@DV?$StrTraitMFC@DV?$ChTraitsCRT@D@ATL@@@@@ATL@@@std@@@std@@QAEAAV01@H@Z 0042a830 f i down_window_init.obj
 0001:00029850       ??G?$_Vector_const_iterator@V?$CStringT@DV?$StrTraitMFC@DV?$ChTraitsCRT@D@ATL@@@@@ATL@@V?$allocator@V?$CStringT@DV?$StrTraitMFC@DV?$ChTraitsCRT@D@ATL@@@@@ATL@@@std@@@std@@QBEHABV01@@Z 0042a850 f i down_window_init.obj
 0001:00029890       ??0?$CComPtr@UIHTMLElement@@@ATL@@QAE@XZ 0042a890 f i HtmlViewer.obj
 0001:00029890       ??0?$_Ranit@UTFrame@CPictureEx@@HPBU12@ABU12@@std@@QAE@XZ 0042a890 f i PictureEx.obj
 0001:00029890       ??0?$_Ranit@UCONTENTSITEM@@HPBU1@ABU1@@std@@QAE@XZ 0042a890 f i Worker.obj
 0001:00029890       ??0?$_Ranit@V?$CStringT@DV?$StrTraitMFC@DV?$ChTraitsCRT@D@ATL@@@@@ATL@@HPBV12@ABV12@@std@@QAE@XZ 0042a890 f i down_window_init.obj
 0001:00029890       ??0?$CComPtr@UIDispatch@@@ATL@@QAE@XZ 0042a890 f i HtmlViewer.obj
 0001:00029890       ??0?$CComPtr@UIHTMLElement2@@@ATL@@QAE@XZ 0042a890 f i HtmlViewer.obj
 0001:00029890       ??0?$CComPtr@UIHTMLDocument2@@@ATL@@QAE@XZ 0042a890 f i HtmlViewer.obj
 0001:00029890       ??0?$CComPtr@UIHTMLBodyElement@@@ATL@@QAE@XZ 0042a890 f i HtmlViewer.obj
 0001:000298b0       ??Y?$_Vector_const_iterator@V?$CStringT@DV?$StrTraitMFC@DV?$ChTraitsCRT@D@ATL@@@@@ATL@@V?$allocator@V?$CStringT@DV?$StrTraitMFC@DV?$ChTraitsCRT@D@ATL@@@@@ATL@@@std@@@std@@QAEAAV01@H@Z 0042a8b0 f i down_window_init.obj
 0001:00029910       ??$unchecked_uninitialized_fill_n@PAV?$CStringT@DV?$StrTraitMFC@DV?$ChTraitsCRT@D@ATL@@@@@ATL@@IV12@V?$allocator@V?$CStringT@DV?$StrTraitMFC@DV?$ChTraitsCRT@D@ATL@@@@@ATL@@@std@@@stdext@@YAXPAV?$CStringT@DV?$StrTraitMFC@DV?$ChTraitsCRT@D@ATL@@@@@ATL@@IABV12@AAV?$allocator@V?$CStringT@DV?$StrTraitMFC@DV?$ChTraitsCRT@D@ATL@@@@@ATL@@@std@@@Z 0042a910 f i down_window_init.obj
 0001:00029950       ??$_Destroy_range@V?$CStringT@DV?$StrTraitMFC@DV?$ChTraitsCRT@D@ATL@@@@@ATL@@V?$allocator@V?$CStringT@DV?$StrTraitMFC@DV?$ChTraitsCRT@D@ATL@@@@@ATL@@@std@@@std@@YAXPAV?$CStringT@DV?$StrTraitMFC@DV?$ChTraitsCRT@D@ATL@@@@@ATL@@0AAV?$allocator@V?$CStringT@DV?$StrTraitMFC@DV?$ChTraitsCRT@D@ATL@@@@@ATL@@@0@@Z 0042a950 f i down_window_init.obj
 0001:00029990       ??$_Umove@PAV?$CStringT@DV?$StrTraitMFC@DV?$ChTraitsCRT@D@ATL@@@@@ATL@@@?$vector@V?$CStringT@DV?$StrTraitMFC@DV?$ChTraitsCRT@D@ATL@@@@@ATL@@V?$allocator@V?$CStringT@DV?$StrTraitMFC@DV?$ChTraitsCRT@D@ATL@@@@@ATL@@@std@@@std@@IAEPAV?$CStringT@DV?$StrTraitMFC@DV?$ChTraitsCRT@D@ATL@@@@@ATL@@PAV23@00@Z 0042a990 f i down_window_init.obj
 0001:000299c0       ??$fill@PAV?$CStringT@DV?$StrTraitMFC@DV?$ChTraitsCRT@D@ATL@@@@@ATL@@V12@@std@@YAXPAV?$CStringT@DV?$StrTraitMFC@DV?$ChTraitsCRT@D@ATL@@@@@ATL@@0ABV12@@Z 0042a9c0 f i down_window_init.obj
 0001:000299f0       ??$_Unchecked_move_backward@PAV?$CStringT@DV?$StrTraitMFC@DV?$ChTraitsCRT@D@ATL@@@@@ATL@@PAV12@@stdext@@YAPAV?$CStringT@DV?$StrTraitMFC@DV?$ChTraitsCRT@D@ATL@@@@@ATL@@PAV12@00@Z 0042a9f0 f i down_window_init.obj
 0001:00029a60       ??$_Allocate@V?$CStringT@DV?$StrTraitMFC@DV?$ChTraitsCRT@D@ATL@@@@@ATL@@@std@@YAPAV?$CStringT@DV?$StrTraitMFC@DV?$ChTraitsCRT@D@ATL@@@@@ATL@@IPAV12@@Z 0042aa60 f i down_window_init.obj
 0001:00029ab0       ??$_Uninit_fill_n@PAV?$CStringT@DV?$StrTraitMFC@DV?$ChTraitsCRT@D@ATL@@@@@ATL@@IV12@V?$allocator@V?$CStringT@DV?$StrTraitMFC@DV?$ChTraitsCRT@D@ATL@@@@@ATL@@@std@@@std@@YAXPAV?$CStringT@DV?$StrTraitMFC@DV?$ChTraitsCRT@D@ATL@@@@@ATL@@IABV12@AAV?$allocator@V?$CStringT@DV?$StrTraitMFC@DV?$ChTraitsCRT@D@ATL@@@@@ATL@@@0@U_Nonscalar_ptr_iterator_tag@0@U_Range_checked_iterator_tag@0@@Z 0042aab0 f i down_window_init.obj
 0001:00029b70       ??$_Destroy_range@V?$CStringT@DV?$StrTraitMFC@DV?$ChTraitsCRT@D@ATL@@@@@ATL@@V?$allocator@V?$CStringT@DV?$StrTraitMFC@DV?$ChTraitsCRT@D@ATL@@@@@ATL@@@std@@@std@@YAXPAV?$CStringT@DV?$StrTraitMFC@DV?$ChTraitsCRT@D@ATL@@@@@ATL@@0AAV?$allocator@V?$CStringT@DV?$StrTraitMFC@DV?$ChTraitsCRT@D@ATL@@@@@ATL@@@0@U_Nonscalar_ptr_iterator_tag@0@@Z 0042ab70 f i down_window_init.obj
 0001:00029ba0       ??$_Unchecked_uninitialized_move@PAV?$CStringT@DV?$StrTraitMFC@DV?$ChTraitsCRT@D@ATL@@@@@ATL@@PAV12@V?$allocator@V?$CStringT@DV?$StrTraitMFC@DV?$ChTraitsCRT@D@ATL@@@@@ATL@@@std@@@stdext@@YAPAV?$CStringT@DV?$StrTraitMFC@DV?$ChTraitsCRT@D@ATL@@@@@ATL@@PAV12@00AAV?$allocator@V?$CStringT@DV?$StrTraitMFC@DV?$ChTraitsCRT@D@ATL@@@@@ATL@@@std@@@Z 0042aba0 f i down_window_init.obj
 0001:00029bf0       ??$_Fill@PAV?$CStringT@DV?$StrTraitMFC@DV?$ChTraitsCRT@D@ATL@@@@@ATL@@V12@@std@@YAXPAV?$CStringT@DV?$StrTraitMFC@DV?$ChTraitsCRT@D@ATL@@@@@ATL@@0ABV12@@Z 0042abf0 f i down_window_init.obj
 0001:00029c20       ??$_Iter_random@PAV?$CStringT@DV?$StrTraitMFC@DV?$ChTraitsCRT@D@ATL@@@@@ATL@@PAV12@@std@@YA?AUrandom_access_iterator_tag@0@ABQAV?$CStringT@DV?$StrTraitMFC@DV?$ChTraitsCRT@D@ATL@@@@@ATL@@0@Z 0042ac20 f i down_window_init.obj
 0001:00029c20       ??$_Iter_random@PAUCONTENTSITEM@@PAU1@@std@@YA?AUrandom_access_iterator_tag@0@ABQAUCONTENTSITEM@@0@Z 0042ac20 f i Worker.obj
 0001:00029c20       ??$_Iter_random@PAUTFrame@CPictureEx@@PAU12@@std@@YA?AUrandom_access_iterator_tag@0@ABQAUTFrame@CPictureEx@@0@Z 0042ac20 f i PictureEx.obj
 0001:00029c30       ??$_Move_backward_opt@PAV?$CStringT@DV?$StrTraitMFC@DV?$ChTraitsCRT@D@ATL@@@@@ATL@@PAV12@Urandom_access_iterator_tag@std@@U_Undefined_move_tag@4@@std@@YAPAV?$CStringT@DV?$StrTraitMFC@DV?$ChTraitsCRT@D@ATL@@@@@ATL@@PAV12@00Urandom_access_iterator_tag@0@U_Undefined_move_tag@0@U_Range_checked_iterator_tag@0@@Z 0042ac30 f i down_window_init.obj
 0001:00029c70       ?construct@?$allocator@V?$CStringT@DV?$StrTraitMFC@DV?$ChTraitsCRT@D@ATL@@@@@ATL@@@std@@QAEXPAV?$CStringT@DV?$StrTraitMFC@DV?$ChTraitsCRT@D@ATL@@@@@ATL@@ABV34@@Z 0042ac70 f i down_window_init.obj
 0001:00029c90       ?destroy@?$allocator@V?$CStringT@DV?$StrTraitMFC@DV?$ChTraitsCRT@D@ATL@@@@@ATL@@@std@@QAEXPAV?$CStringT@DV?$StrTraitMFC@DV?$ChTraitsCRT@D@ATL@@@@@ATL@@@Z 0042ac90 f i down_window_init.obj
 0001:00029cb0       ??$_Uninit_move@PAV?$CStringT@DV?$StrTraitMFC@DV?$ChTraitsCRT@D@ATL@@@@@ATL@@PAV12@V?$allocator@V?$CStringT@DV?$StrTraitMFC@DV?$ChTraitsCRT@D@ATL@@@@@ATL@@@std@@U_Undefined_move_tag@4@@std@@YAPAV?$CStringT@DV?$StrTraitMFC@DV?$ChTraitsCRT@D@ATL@@@@@ATL@@PAV12@00AAV?$allocator@V?$CStringT@DV?$StrTraitMFC@DV?$ChTraitsCRT@D@ATL@@@@@ATL@@@0@U_Undefined_move_tag@0@U_Range_checked_iterator_tag@0@@Z 0042acb0 f i down_window_init.obj
 0001:00029cd0       ??$_Checked_base@PAUTFrame@CPictureEx@@@std@@YAPAUTFrame@CPictureEx@@AAPAU12@U_Unchanged_checked_iterator_base_type_tag@0@@Z 0042acd0 f i PictureEx.obj
 0001:00029cd0       ??$_Checked_base@PAV?$CStringT@DV?$StrTraitMFC@DV?$ChTraitsCRT@D@ATL@@@@@ATL@@@std@@YAPAV?$CStringT@DV?$StrTraitMFC@DV?$ChTraitsCRT@D@ATL@@@@@ATL@@AAPAV12@U_Unchanged_checked_iterator_base_type_tag@0@@Z 0042acd0 f i down_window_init.obj
 0001:00029cd0       ??$_Checked_base@PAUCONTENTSITEM@@@std@@YAPAUCONTENTSITEM@@AAPAU1@U_Unchanged_checked_iterator_base_type_tag@0@@Z 0042acd0 f i Worker.obj
 0001:00029ce0       ??$_Copy_backward_opt@PAV?$CStringT@DV?$StrTraitMFC@DV?$ChTraitsCRT@D@ATL@@@@@ATL@@PAV12@@std@@YAPAV?$CStringT@DV?$StrTraitMFC@DV?$ChTraitsCRT@D@ATL@@@@@ATL@@PAV12@00Urandom_access_iterator_tag@0@U_Nonscalar_ptr_iterator_tag@0@U_Range_checked_iterator_tag@0@@Z 0042ace0 f i down_window_init.obj
 0001:00029d40       ??$_Construct@V?$CStringT@DV?$StrTraitMFC@DV?$ChTraitsCRT@D@ATL@@@@@ATL@@V12@@std@@YAXPAV?$CStringT@DV?$StrTraitMFC@DV?$ChTraitsCRT@D@ATL@@@@@ATL@@ABV12@@Z 0042ad40 f i down_window_init.obj
 0001:00029dc0       ??$_Destroy@V?$CStringT@DV?$StrTraitMFC@DV?$ChTraitsCRT@D@ATL@@@@@ATL@@@std@@YAXPAV?$CStringT@DV?$StrTraitMFC@DV?$ChTraitsCRT@D@ATL@@@@@ATL@@@Z 0042adc0 f i down_window_init.obj
 0001:00029dd0       ??_G?$CStringT@DV?$StrTraitMFC@DV?$ChTraitsCRT@D@ATL@@@@@ATL@@QAEPAXI@Z 0042add0 f i down_window_init.obj
 0001:00029e00       ??$unchecked_uninitialized_copy@PAV?$CStringT@DV?$StrTraitMFC@DV?$ChTraitsCRT@D@ATL@@@@@ATL@@PAV12@V?$allocator@V?$CStringT@DV?$StrTraitMFC@DV?$ChTraitsCRT@D@ATL@@@@@ATL@@@std@@@stdext@@YAPAV?$CStringT@DV?$StrTraitMFC@DV?$ChTraitsCRT@D@ATL@@@@@ATL@@PAV12@00AAV?$allocator@V?$CStringT@DV?$StrTraitMFC@DV?$ChTraitsCRT@D@ATL@@@@@ATL@@@std@@@Z 0042ae00 f i down_window_init.obj
 0001:00029e60       ??$_Copy_backward_opt@PAV?$CStringT@DV?$StrTraitMFC@DV?$ChTraitsCRT@D@ATL@@@@@ATL@@PAV12@Uforward_iterator_tag@std@@@std@@YAPAV?$CStringT@DV?$StrTraitMFC@DV?$ChTraitsCRT@D@ATL@@@@@ATL@@PAV12@00Uforward_iterator_tag@0@U_Nonscalar_ptr_iterator_tag@0@U_Range_checked_iterator_tag@0@@Z 0042ae60 f i down_window_init.obj
 0001:00029e90       ??$_Uninit_copy@PAV?$CStringT@DV?$StrTraitMFC@DV?$ChTraitsCRT@D@ATL@@@@@ATL@@PAV12@V?$allocator@V?$CStringT@DV?$StrTraitMFC@DV?$ChTraitsCRT@D@ATL@@@@@ATL@@@std@@@std@@YAPAV?$CStringT@DV?$StrTraitMFC@DV?$ChTraitsCRT@D@ATL@@@@@ATL@@PAV12@00AAV?$allocator@V?$CStringT@DV?$StrTraitMFC@DV?$ChTraitsCRT@D@ATL@@@@@ATL@@@0@U_Nonscalar_ptr_iterator_tag@0@U_Range_checked_iterator_tag@0@@Z 0042ae90 f i down_window_init.obj
 0001:00029f50       ?SetForegroundWindow@CWnd@@QAEHXZ 0042af50 f i down_window_init.obj
 0001:00029f70       ?SetIcon@CWnd@@QAEPAUHICON__@@PAU2@H@Z 0042af70 f i down_window_init.obj
 0001:00029fa0       ?OnCopyData@CWnd@@IAEHPAV1@PAUtagCOPYDATASTRUCT@@@Z 0042afa0 f i down_window_init.obj
 0001:00029fa0       ?OnSysCommand@CWnd@@IAEXIJ@Z 0042afa0 f i SkinDialog.obj
 0001:00029fc0       ?LoadIconA@CWinApp@@QBEPAUHICON__@@I@Z 0042afc0 f i down_window_init.obj
 0001:00029fe0       ??0CTrayWindow@@QAE@PAVCWnd@@@Z 0042afe0 f   TrayWindow.obj
 0001:0002a0a0       ??1CTrayWindow@@UAE@XZ     0042b0a0 f   TrayWindow.obj
 0001:0002a190       ?DoDataExchange@CTrayWindow@@MAEXPAVCDataExchange@@@Z 0042b190 f   TrayWindow.obj
 0001:0002a1f0       ?OnInitDialog@CTrayWindow@@MAEHXZ 0042b1f0 f   TrayWindow.obj
 0001:0002a2d0       ?InitWindow@CTrayWindow@@QAEXXZ 0042b2d0 f   TrayWindow.obj
 0001:0002a420       ?SetTrayIconHandle@CTrayWindow@@QAEXPAUHWND__@@@Z 0042b420 f   TrayWindow.obj
 0001:0002a4c0       ?GetMessageMap@CTrayWindow@@MBEPBUAFX_MSGMAP@@XZ 0042b4c0 f   TrayWindow.obj
 0001:0002a4d0       ?GetThisMessageMap@CTrayWindow@@KGPBUAFX_MSGMAP@@XZ 0042b4d0 f   TrayWindow.obj
 0001:0002a4e0       ?OnCtlColor@CTrayWindow@@QAEPAUHBRUSH__@@PAVCDC@@PAVCWnd@@I@Z 0042b4e0 f   TrayWindow.obj
 0001:0002a580       ??_GCTrayWindow@@UAEPAXI@Z 0042b580 f i TrayWindow.obj
 0001:0002a580       ??_ECTrayWindow@@UAEPAXI@Z 0042b580 f i TrayWindow.obj
 0001:0002a5b0       ??0use_window@@QAE@XZ      0042b5b0 f   use_window.obj
 0001:0002a5e0       ??1use_window@@UAE@XZ      0042b5e0 f   use_window.obj
 0001:0002a600       ?OnInitDialog@use_window@@MAEHXZ 0042b600 f   use_window.obj
 0001:0002a630       ?InitWindow@use_window@@UAEXXZ 0042b630 f   use_window.obj
 0001:0002bc80       ?InitListControl@use_window@@UAEXXZ 0042cc80 f   use_window.obj
 0001:0002be90       ?ChnPosition@use_window@@UAEXHH@Z 0042ce90 f   use_window.obj
 0001:0002c7f0       ?DrawCtrl@use_window@@UAEPAUHBRUSH__@@PAVCDC@@I@Z 0042d7f0 f   use_window.obj
 0001:0002c850       ?Skin_ButtonPressed@use_window@@UAE_NV?$CStringT@DV?$StrTraitMFC@DV?$ChTraitsCRT@D@ATL@@@@@ATL@@@Z 0042d850 f   use_window.obj
 0001:0002d980       ?GetMessageMap@use_window@@MBEPBUAFX_MSGMAP@@XZ 0042e980 f   use_window.obj
 0001:0002d990       ?GetThisMessageMap@use_window@@KGPBUAFX_MSGMAP@@XZ 0042e990 f   use_window.obj
 0001:0002d9a0       ?OnQueryOpen@use_window@@IAEHXZ 0042e9a0 f   use_window.obj
 0001:0002d9d0       ??_Guse_window@@UAEPAXI@Z  0042e9d0 f i use_window.obj
 0001:0002d9d0       ??_Euse_window@@UAEPAXI@Z  0042e9d0 f i use_window.obj
 0001:0002da00       ?SetColumnCount@CSkinListCtrl@@QAEXH@Z 0042ea00 f i use_window.obj
 0001:0002da20       ?SetCompleteTextColor@CSkinListCtrl@@QAEXK@Z 0042ea20 f i use_window.obj
 0001:0002da40       ?Tokenize@?$CStringT@DV?$StrTraitMFC@DV?$ChTraitsCRT@D@ATL@@@@@ATL@@QBE?AV12@PBDAAH@Z 0042ea40 f i use_window.obj
 0001:0002db90       ??0?$CStringT@DV?$StrTraitMFC@DV?$ChTraitsCRT@D@ATL@@@@@ATL@@QAE@PBDPAUIAtlStringMgr@1@@Z 0042eb90 f i use_window.obj
 0001:0002dc10       ?StringSpanIncluding@?$ChTraitsCRT@D@ATL@@SAHPBD0@Z 0042ec10 f i use_window.obj
 0001:0002dc30       ?StringSpanExcluding@?$ChTraitsCRT@D@ATL@@SAHPBD0@Z 0042ec30 f i use_window.obj
 0001:0002dc50       ?SendMessageA@CWnd@@QAEJIIJ@Z 0042ec50 f i use_window.obj
 0001:0002dc80       ?OnQueryOpen@CWnd@@IAEHXZ  0042ec80 f i use_window.obj
 0001:0002dca0       ?SetImageList@CListCtrl@@QAEPAVCImageList@@PAV2@H@Z 0042eca0 f i use_window.obj
 0001:0002dce0       ?SetCallbackMask@CListCtrl@@QAEHI@Z 0042ece0 f i use_window.obj
 0001:0002dd10       ?SetExtendedStyle@CListCtrl@@QAEKK@Z 0042ed10 f i use_window.obj
 0001:0002dd40       ?GetExtendedStyle@CListCtrl@@QAEKXZ 0042ed40 f i use_window.obj
 0001:0002dd70       ?GetRuntimeClass@DebugLIst@@UBEPAUCRuntimeClass@@XZ 0042ed70 f   DebugLIst.obj
 0001:0002dd80       ??0DebugLIst@@QAE@PAVCWnd@@@Z 0042ed80 f   DebugLIst.obj
 0001:0002ddf0       ??1DebugLIst@@UAE@XZ       0042edf0 f   DebugLIst.obj
 0001:0002de50       ?DoDataExchange@DebugLIst@@MAEXPAVCDataExchange@@@Z 0042ee50 f   DebugLIst.obj
 0001:0002de80       ?GetMessageMap@DebugLIst@@MBEPBUAFX_MSGMAP@@XZ 0042ee80 f   DebugLIst.obj
 0001:0002de90       ?GetThisMessageMap@DebugLIst@@KGPBUAFX_MSGMAP@@XZ 0042ee90 f   DebugLIst.obj
 0001:0002dea0       ?OnInitDialog@DebugLIst@@MAEHXZ 0042eea0 f   DebugLIst.obj
 0001:0002def0       ?InsertData@DebugLIst@@QAEXPAD0@Z 0042eef0 f   DebugLIst.obj
 0001:0002dff0       ??_EDebugLIst@@UAEPAXI@Z   0042eff0 f i DebugLIst.obj
 0001:0002dff0       ??_GDebugLIst@@UAEPAXI@Z   0042eff0 f i DebugLIst.obj
 0001:0002e020       ?InsertItem@CListCtrl@@QAEHHPBD@Z 0042f020 f i DebugLIst.obj
 0001:0002e050       ??0Dlg_Alert@@QAE@PAVCWnd@@@Z 0042f050 f   Dlg_Alert.obj
 0001:0002e0e0       ??1Dlg_Alert@@UAE@XZ       0042f0e0 f   Dlg_Alert.obj
 0001:0002e160       ?DoDataExchange@Dlg_Alert@@MAEXPAVCDataExchange@@@Z 0042f160 f   Dlg_Alert.obj
 0001:0002e1a0       ?GetMessageMap@Dlg_Alert@@MBEPBUAFX_MSGMAP@@XZ 0042f1a0 f   Dlg_Alert.obj
 0001:0002e1b0       ?GetThisMessageMap@Dlg_Alert@@KGPBUAFX_MSGMAP@@XZ 0042f1b0 f   Dlg_Alert.obj
 0001:0002e1c0       ?OnInitDialog@Dlg_Alert@@MAEHXZ 0042f1c0 f   Dlg_Alert.obj
 0001:0002e290       ?InitWindow@Dlg_Alert@@QAEXXZ 0042f290 f   Dlg_Alert.obj
 0001:0002e510       ?OnTimer@Dlg_Alert@@IAEXI@Z 0042f510 f   Dlg_Alert.obj
 0001:0002e5c0       ?Skin_ButtonPressed@Dlg_Alert@@UAE_NV?$CStringT@DV?$StrTraitMFC@DV?$ChTraitsCRT@D@ATL@@@@@ATL@@@Z 0042f5c0 f   Dlg_Alert.obj
 0001:0002e710       ?OnCtlColor@Dlg_Alert@@IAEPAUHBRUSH__@@PAVCDC@@PAVCWnd@@I@Z 0042f710 f   Dlg_Alert.obj
 0001:0002e7b0       ??_EDlg_Alert@@UAEPAXI@Z   0042f7b0 f i Dlg_Alert.obj
 0001:0002e7b0       ??_GDlg_Alert@@UAEPAXI@Z   0042f7b0 f i Dlg_Alert.obj
 0001:0002e7e0       ?MoveWindow@CWnd@@QAEXPBUtagRECT@@H@Z 0042f7e0 f i Dlg_Alert.obj
 0001:0002e820       ??0Dlg_Confirm@@QAE@PAVCWnd@@@Z 0042f820 f   Dlg_Confirm.obj
 0001:0002e8e0       ??1Dlg_Confirm@@UAE@XZ     0042f8e0 f   Dlg_Confirm.obj
 0001:0002e980       ?DoDataExchange@Dlg_Confirm@@MAEXPAVCDataExchange@@@Z 0042f980 f   Dlg_Confirm.obj
 0001:0002e9d0       ?GetMessageMap@Dlg_Confirm@@MBEPBUAFX_MSGMAP@@XZ 0042f9d0 f   Dlg_Confirm.obj
 0001:0002e9e0       ?GetThisMessageMap@Dlg_Confirm@@KGPBUAFX_MSGMAP@@XZ 0042f9e0 f   Dlg_Confirm.obj
 0001:0002e9f0       ?OnInitDialog@Dlg_Confirm@@MAEHXZ 0042f9f0 f   Dlg_Confirm.obj
 0001:0002eb90       ?InitWindow@Dlg_Confirm@@QAEXXZ 0042fb90 f   Dlg_Confirm.obj
 0001:0002ecd0       ?OnTimer@Dlg_Confirm@@IAEXI@Z 0042fcd0 f   Dlg_Confirm.obj
 0001:0002ed20       ?Skin_ButtonPressed@Dlg_Confirm@@UAE_NV?$CStringT@DV?$StrTraitMFC@DV?$ChTraitsCRT@D@ATL@@@@@ATL@@@Z 0042fd20 f   Dlg_Confirm.obj
 0001:0002ee50       ?OnCtlColor@Dlg_Confirm@@IAEPAUHBRUSH__@@PAVCDC@@PAVCWnd@@I@Z 0042fe50 f   Dlg_Confirm.obj
 0001:0002eef0       ??_GDlg_Confirm@@UAEPAXI@Z 0042fef0 f i Dlg_Confirm.obj
 0001:0002eef0       ??_EDlg_Confirm@@UAEPAXI@Z 0042fef0 f i Dlg_Confirm.obj
 0001:0002ef20       ?SetBitmap@CStatic@@QAEPAUHBITMAP__@@PAU2@@Z 0042ff20 f i Dlg_Confirm.obj
 0001:0002ef50       ??0Dlg_Exist@@QAE@PAVCWnd@@@Z 0042ff50 f   Dlg_Exist.obj
 0001:0002f030       ??1Dlg_Exist@@UAE@XZ       00430030 f   Dlg_Exist.obj
 0001:0002f0f0       ?DoDataExchange@Dlg_Exist@@MAEXPAVCDataExchange@@@Z 004300f0 f   Dlg_Exist.obj
 0001:0002f150       ?GetMessageMap@Dlg_Exist@@MBEPBUAFX_MSGMAP@@XZ 00430150 f   Dlg_Exist.obj
 0001:0002f160       ?GetThisMessageMap@Dlg_Exist@@KGPBUAFX_MSGMAP@@XZ 00430160 f   Dlg_Exist.obj
 0001:0002f170       ?OnInitDialog@Dlg_Exist@@MAEHXZ 00430170 f   Dlg_Exist.obj
 0001:0002f360       ?InitWindow@Dlg_Exist@@QAEXXZ 00430360 f   Dlg_Exist.obj
 0001:0002f4e0       ?OnTimer@Dlg_Exist@@IAEXI@Z 004304e0 f   Dlg_Exist.obj
 0001:0002f4f0       ?Skin_ButtonPressed@Dlg_Exist@@UAE_NV?$CStringT@DV?$StrTraitMFC@DV?$ChTraitsCRT@D@ATL@@@@@ATL@@@Z 004304f0 f   Dlg_Exist.obj
 0001:0002f680       ?OnCtlColor@Dlg_Exist@@IAEPAUHBRUSH__@@PAVCDC@@PAVCWnd@@I@Z 00430680 f   Dlg_Exist.obj
 0001:0002f760       ?PreTranslateMessage@Dlg_Exist@@MAEHPAUtagMSG@@@Z 00430760 f   Dlg_Exist.obj
 0001:0002f7e0       ??_EDlg_Exist@@UAEPAXI@Z   004307e0 f i Dlg_Exist.obj
 0001:0002f7e0       ??_GDlg_Exist@@UAEPAXI@Z   004307e0 f i Dlg_Exist.obj
 0001:0002f810       ??0Dlg_Setup@@QAE@PAVCWnd@@@Z 00430810 f   Dlg_Setup.obj
 0001:0002f890       ??1Dlg_Setup@@UAE@XZ       00430890 f   Dlg_Setup.obj
 0001:0002f900       ?DoDataExchange@Dlg_Setup@@MAEXPAVCDataExchange@@@Z 00430900 f   Dlg_Setup.obj
 0001:0002f940       ?GetMessageMap@Dlg_Setup@@MBEPBUAFX_MSGMAP@@XZ 00430940 f   Dlg_Setup.obj
 0001:0002f950       ?GetThisMessageMap@Dlg_Setup@@KGPBUAFX_MSGMAP@@XZ 00430950 f   Dlg_Setup.obj
 0001:0002f960       ?OnInitDialog@Dlg_Setup@@MAEHXZ 00430960 f   Dlg_Setup.obj
 0001:0002f9e0       ?InitWindow@Dlg_Setup@@QAEXXZ 004309e0 f   Dlg_Setup.obj
 0001:0002fcf0       ?InitSetup@Dlg_Setup@@QAEXXZ 00430cf0 f   Dlg_Setup.obj
 0001:0002fe00       ?Skin_ButtonPressed@Dlg_Setup@@UAE_NV?$CStringT@DV?$StrTraitMFC@DV?$ChTraitsCRT@D@ATL@@@@@ATL@@@Z 00430e00 f   Dlg_Setup.obj
 0001:00030190       ?OnCtlColor@Dlg_Setup@@IAEPAUHBRUSH__@@PAVCDC@@PAVCWnd@@I@Z 00431190 f   Dlg_Setup.obj
 0001:00030200       ??_EDlg_Setup@@UAEPAXI@Z   00431200 f i Dlg_Setup.obj
 0001:00030200       ??_GDlg_Setup@@UAEPAXI@Z   00431200 f i Dlg_Setup.obj
 0001:00030230       ??0Dlg_Slide@@QAE@PAVCWnd@@@Z 00431230 f   Dlg_Slide.obj
 0001:000302c0       ??1Dlg_Slide@@UAE@XZ       004312c0 f   Dlg_Slide.obj
 0001:00030330       ?DoDataExchange@Dlg_Slide@@MAEXPAVCDataExchange@@@Z 00431330 f   Dlg_Slide.obj
 0001:00030370       ?GetMessageMap@Dlg_Slide@@MBEPBUAFX_MSGMAP@@XZ 00431370 f   Dlg_Slide.obj
 0001:00030380       ?GetThisMessageMap@Dlg_Slide@@KGPBUAFX_MSGMAP@@XZ 00431380 f   Dlg_Slide.obj
 0001:00030390       ?OnInitDialog@Dlg_Slide@@MAEHXZ 00431390 f   Dlg_Slide.obj
 0001:000304b0       ?InitWindow@Dlg_Slide@@QAEXXZ 004314b0 f   Dlg_Slide.obj
 0001:00030580       ?OnTimer@Dlg_Slide@@QAEXI@Z 00431580 f   Dlg_Slide.obj
 0001:00030680       ?Skin_ButtonPressed@Dlg_Slide@@UAE_NV?$CStringT@DV?$StrTraitMFC@DV?$ChTraitsCRT@D@ATL@@@@@ATL@@@Z 00431680 f   Dlg_Slide.obj
 0001:00030720       ?OnCtlColor@Dlg_Slide@@QAEPAUHBRUSH__@@PAVCDC@@PAVCWnd@@I@Z 00431720 f   Dlg_Slide.obj
 0001:000307c0       ??_EDlg_Slide@@UAEPAXI@Z   004317c0 f i Dlg_Slide.obj
 0001:000307c0       ??_GDlg_Slide@@UAEPAXI@Z   004317c0 f i Dlg_Slide.obj
 0001:000307ea       _URLDownloadToFileA@20     004317ea f   Urlmon:urlmon.dll
 0001:000307f0       ?_com_issue_error@@YGXJ@Z  004317f0 f   comsuppw:comsupp.obj
 0001:00030800       ?ConvertStringToBSTR@_com_util@@YGPA_WPBD@Z 00431800 f   comsuppw:comutil.obj
 0001:00030990       ??1_com_error@@UAE@XZ      00431990 f i comsuppw:comraise.obj
 0001:000309d0       ?_com_raise_error@@YGXJPAUIErrorInfo@@@Z 004319d0 f   comsuppw:comraise.obj
 0001:00030a10       ??0_com_error@@QAE@ABV0@@Z 00431a10 f i comsuppw:comraise.obj
 0001:00030a50       ??_G_com_error@@UAEPAXI@Z  00431a50 f i comsuppw:comraise.obj
 0001:00030a50       ??_E_com_error@@UAEPAXI@Z  00431a50 f i comsuppw:comraise.obj
 0001:00030a9b       ?AfxNewHandler@@YAHI@Z     00431a9b f   nafxcw:afxmem.obj
 0001:00030aa0       ?AfxSetNewHandler@@YGP6AHI@ZP6AHI@Z@Z 00431aa0 f   nafxcw:afxmem.obj
 0001:00030ab2       ??2@YAPAXI@Z               00431ab2 f   nafxcw:afxmem.obj
 0001:00030add       ??3@YAXPAX@Z               00431add f   nafxcw:afxmem.obj
 0001:00030add       ??_V@YAXPAX@Z              00431add f   nafxcw:afxmem.obj
 0001:00030ae2       ??_U@YAPAXI@Z              00431ae2 f   nafxcw:afxmem.obj
 0001:00030ae7       ?GetRuntimeClass@COleException@@UBEPAUCRuntimeClass@@XZ 00431ae7 f   nafxcw:olemisc.obj
 0001:00030aed       ??$AtlMultiply@K@ATL@@YAJPAKKK@Z 00431aed f i nafxcw:olemisc.obj
 0001:00030b0d       ?AtlCoTaskMemCAlloc@ATL@@YAPAXKK@Z 00431b0d f i nafxcw:olemisc.obj
 0001:00030b3a       _wmemcpy_s                 00431b3a f i nafxcw:olemisc.obj
 0001:00030b3a       ?CopyChars@?$CSimpleStringT@_W$0A@@ATL@@SAXPA_WIPB_WH@Z 00431b3a f i nafxcw:olemisc.obj
 0001:00030b59       ?wmemcpy_s@Checked@ATL@@YAXPA_WIPB_WI@Z 00431b59 f i nafxcw:olemisc.obj
 0001:00030b78       ?tcsncpy_s@Checked@ATL@@YAHPADIPBDI@Z 00431b78 f i nafxcw:olemisc.obj
 0001:00030b97       ?GetBaseTypeLength@?$ChTraitsCRT@_W@ATL@@SAHPBD@Z 00431b97 f i nafxcw:olemisc.obj
 0001:00030bb1       ?ConvertToBaseType@?$ChTraitsCRT@_W@ATL@@SAXPA_WHPBDH@Z 00431bb1 f i nafxcw:olemisc.obj
 0001:00030bd1       ?ConvertToBaseType@?$ChTraitsCRT@_W@ATL@@SAXPA_WHPB_WH@Z 00431bd1 f i nafxcw:olemisc.obj
 0001:00030bfa       ??0COleException@@QAE@XZ   00431bfa f i nafxcw:olemisc.obj
 0001:00030c10       ?AfxThrowOleException@@YGXJ@Z 00431c10 f   nafxcw:olemisc.obj
 0001:00030c53       ?GetErrorMessage@COleException@@UBEHPADIPAI@Z 00431c53 f   nafxcw:olemisc.obj
 0001:00030cad       ??1?$CStringT@_WV?$StrTraitMFC@_WV?$ChTraitsCRT@_W@ATL@@@@@ATL@@QAE@XZ 00431cad f i nafxcw:olemisc.obj
 0001:00030cad       ??1?$CSimpleStringT@_W$0A@@ATL@@QAE@XZ 00431cad f i nafxcw:olemisc.obj
 0001:00030cb7       ?AtlCrtErrorCheck@ATL@@YAHH@Z 00431cb7 f i nafxcw:olemisc.obj
 0001:00030cec       ??_GCOleException@@UAEPAXI@Z 00431cec f i nafxcw:olemisc.obj
 0001:00030cec       ??_ECOleException@@UAEPAXI@Z 00431cec f i nafxcw:olemisc.obj
 0001:00030d09       ??0?$CSimpleStringT@_W$0A@@ATL@@QAE@PAUIAtlStringMgr@1@@Z 00431d09 f i nafxcw:olemisc.obj
 0001:00030d2e       ?SetLength@?$CSimpleStringT@_W$0A@@ATL@@AAEXH@Z 00431d2e f i nafxcw:olemisc.obj
 0001:00030d55       ?ThrowMemoryException@?$CSimpleStringT@_W$0A@@ATL@@KAXXZ 00431d55 f i nafxcw:olemisc.obj
 0001:00030d60       ?Empty@?$CSimpleStringT@_W$0A@@ATL@@QAEXXZ 00431d60 f i nafxcw:olemisc.obj
 0001:00030da4       ?Fork@?$CSimpleStringT@_W$0A@@ATL@@AAEXH@Z 00431da4 f i nafxcw:olemisc.obj
 0001:00030e0c       ?Reallocate@?$CSimpleStringT@_W$0A@@ATL@@AAEXH@Z 00431e0c f i nafxcw:olemisc.obj
 0001:00030e40       ?PrepareWrite2@?$CSimpleStringT@_W$0A@@ATL@@AAEXH@Z 00431e40 f i nafxcw:olemisc.obj
 0001:00030e87       ?PrepareWrite@?$CSimpleStringT@_W$0A@@ATL@@AAEPA_WH@Z 00431e87 f i nafxcw:olemisc.obj
 0001:00030eb1       ??4?$CStringT@_WV?$StrTraitMFC@_WV?$ChTraitsCRT@_W@ATL@@@@@ATL@@QAEAAV01@PBD@Z 00431eb1 f i nafxcw:olemisc.obj
 0001:00030efb       ?LoadStringA@?$CStringT@_WV?$StrTraitMFC@_WV?$ChTraitsCRT@_W@ATL@@@@@ATL@@QAEHPAUHINSTANCE__@@I@Z 00431efb f i nafxcw:olemisc.obj
 0001:00030f43       ?LoadStringA@?$CStringT@_WV?$StrTraitMFC@_WV?$ChTraitsCRT@_W@ATL@@@@@ATL@@QAEHI@Z 00431f43 f i nafxcw:olemisc.obj
 0001:00030f63       ?CheckImplicitLoad@?$CStringT@_WV?$StrTraitMFC@_WV?$ChTraitsCRT@_W@ATL@@@@@ATL@@AAE_NPBX@Z 00431f63 f i nafxcw:olemisc.obj
 0001:00030f83       ??0?$CStringT@_WV?$StrTraitMFC@_WV?$ChTraitsCRT@_W@ATL@@@@@ATL@@QAE@PBD@Z 00431f83 f i nafxcw:olemisc.obj
 0001:00030fc7       ?Delete@CException@@QAEXXZ 00431fc7 f   nafxcw:except.obj
 0001:00030fd5       ?GetErrorMessage@CException@@UAEHPADIPAI@Z 00431fd5 f   nafxcw:except.obj
 0001:00030fda       ?ReportError@CException@@UAEHII@Z 00431fda f   nafxcw:except.obj
 0001:0003104c       ?GetRuntimeClass@CMemoryException@@UBEPAUCRuntimeClass@@XZ 0043204c f   nafxcw:except.obj
 0001:00031052       ?GetRuntimeClass@CNotSupportedException@@UBEPAUCRuntimeClass@@XZ 00432052 f   nafxcw:except.obj
 0001:00031058       ?GetRuntimeClass@CInvalidArgException@@UBEPAUCRuntimeClass@@XZ 00432058 f   nafxcw:except.obj
 0001:0003105e       ?InitString@CSimpleException@@QAEXXZ 0043205e f   nafxcw:except.obj
 0001:00031087       ?AfxThrowMemoryException@@YGXXZ 00432087 f   nafxcw:except.obj
 0001:000310a1       ?AfxThrowNotSupportedException@@YGXXZ 004320a1 f   nafxcw:except.obj
 0001:000310bb       ?AfxThrowInvalidArgException@@YGXXZ 004320bb f   nafxcw:except.obj
 0001:000310d5       ?CreateObject@?$CThreadLocal@V_AFX_THREAD_STATE@@@@SGPAVCNoTrackObject@@XZ 004320d5 f i nafxcw:except.obj
 0001:00031104       ??0CException@@QAE@XZ      00432104 f   nafxcw:except.obj
 0001:0003110e       ??0CException@@QAE@H@Z     0043210e f   nafxcw:except.obj
 0001:0003111a       ?GetErrorMessage@CSimpleException@@UBEHPADIPAI@Z 0043211a f   nafxcw:except.obj
 0001:0003116c       ??_ECMemoryException@@UAEPAXI@Z 0043216c f i nafxcw:except.obj
 0001:0003116c       ??_GCMemoryException@@UAEPAXI@Z 0043216c f i nafxcw:except.obj
 0001:00031189       ??_ECNotSupportedException@@UAEPAXI@Z 00432189 f i nafxcw:except.obj
 0001:00031189       ??_GCNotSupportedException@@UAEPAXI@Z 00432189 f i nafxcw:except.obj
 0001:000311a6       ??_ECInvalidArgException@@UAEPAXI@Z 004321a6 f i nafxcw:except.obj
 0001:000311a6       ??_GCInvalidArgException@@UAEPAXI@Z 004321a6 f i nafxcw:except.obj
 0001:000311c3       ?AfxGetExceptionContext@@YAPAUAFX_EXCEPTION_CONTEXT@@XZ 004321c3 f i nafxcw:except.obj
 0001:000311f4       ??0AFX_EXCEPTION_LINK@@QAE@XZ 004321f4 f   nafxcw:except.obj
 0001:0003120a       ?AfxTryCleanup@@YGXXZ      0043220a f   nafxcw:except.obj
 0001:0003122c       ?GetMessageMap@CWinApp@@MBEPBUAFX_MSGMAP@@XZ 0043222c f   nafxcw:appcore.obj
 0001:0003122c       ?GetThisMessageMap@CWinApp@@KGPBUAFX_MSGMAP@@XZ 0043222c f   nafxcw:appcore.obj
 0001:00031248       ??0CActivationContext@@QAE@PAX@Z 00432248 f i nafxcw:appcore.obj
 0001:000312f8       ?Create@CActivationContext@@QAE_NPBUtagACTCTXA@@@Z 004322f8 f i nafxcw:appcore.obj
 0001:0003132e       ?Activate@CActivationContext@@QAE_NXZ 0043232e f i nafxcw:appcore.obj
 0001:0003135b       ?Deactivate@CActivationContext@@QAE_NXZ 0043235b f i nafxcw:appcore.obj
 0001:00031381       ?_LoadSysPolicies@CWinApp@@IAEHXZ 00432381 f   nafxcw:appcore.obj
 0001:00031444       ?InitApplication@CWinApp@@UAEHXZ 00432444 f   nafxcw:appcore.obj
 0001:00031484       ?SaveStdProfileSettings@CWinApp@@IAEXXZ 00432484 f   nafxcw:appcore.obj
 0001:000314b9       ?ExitInstance@CWinApp@@UAEHXZ 004324b9 f   nafxcw:appcore.obj
 0001:0003151a       ?AfxPostQuitMessage@@YGXH@Z 0043251a f   nafxcw:appcore.obj
 0001:00031536       ?ProcessWndProcException@CWinApp@@UAEJPAVCException@@PBUtagMSG@@@Z 00432536 f   nafxcw:appcore.obj
 0001:000315b5       ?OnIdle@CWinApp@@UAEHJ@Z   004325b5 f   nafxcw:appcore.obj
 0001:00031619       ?DevModeChange@CWinApp@@QAEXPAD@Z 00432619 f   nafxcw:appcore.obj
 0001:000316b7       ?GetRuntimeClass@CWinApp@@UBEPAUCRuntimeClass@@XZ 004326b7 f   nafxcw:appcore.obj
 0001:000316bd       ?CreateObject@?$CThreadLocal@VAFX_MODULE_THREAD_STATE@@@@SGPAVCNoTrackObject@@XZ 004326bd f i nafxcw:appcore.obj
 0001:000316e9       ?tcscpy_s@Checked@ATL@@YAXPADIPBD@Z 004326e9 f i nafxcw:appcore.obj
 0001:00031704       ?AfxGetMainWnd@@YGPAVCWnd@@XZ 00432704 f i nafxcw:appcore.obj
 0001:00031717       ?AfxInvariantStrICmp@@YAHPBD0@Z 00432717 f i nafxcw:appcore.obj
 0001:00031871       ?Release@CActivationContext@@QAEXXZ 00432871 f i nafxcw:appcore.obj
 0001:00031891       ?LoadSysPolicies@CWinApp@@UAEHXZ 00432891 f   nafxcw:appcore.obj
 0001:00031896       ?InitInstance@CWinApp@@UAEHXZ 00432896 f   nafxcw:appcore.obj
 0001:000318ce       ?Run@CWinApp@@UAEHXZ       004328ce f   nafxcw:appcore.obj
 0001:000318ef       ?WinHelpA@CWinApp@@UAEXKI@Z 004328ef f   nafxcw:appcore.obj
 0001:0003192c       ?HtmlHelpA@CWinApp@@UAEXKI@Z 0043292c f   nafxcw:appcore.obj
 0001:00031969       ?WinHelpInternal@CWinApp@@UAEXKI@Z 00432969 f   nafxcw:appcore.obj
 0001:000319a6       ?GetData@?$CThreadLocal@VAFX_MODULE_THREAD_STATE@@@@QAEPAVAFX_MODULE_THREAD_STATE@@XZ 004329a6 f i nafxcw:appcore.obj
 0001:000319ba       ??1CActivationContext@@QAE@XZ 004329ba f i nafxcw:appcore.obj
 0001:00031cb9       ?LoadAppLangResourceDLL@CWinApp@@UAEPAUHINSTANCE__@@XZ 00432cb9 f   nafxcw:appcore.obj
 0001:00031d2d       ??0CWinApp@@QAE@PBD@Z      00432d2d f   nafxcw:appcore.obj
 0001:00031e02       ??1CWinApp@@UAE@XZ         00432e02 f   nafxcw:appcore.obj
 0001:00031ff6       ??_ECWinApp@@UAEPAXI@Z     00432ff6 f i nafxcw:appcore.obj
 0001:00031ff6       ??_GCWinApp@@UAEPAXI@Z     00432ff6 f i nafxcw:appcore.obj
 0001:00032012       _IsEqualGUID               00433012 f i nafxcw:cmdtarg.obj
 0001:0003202a       ?_AfxDispatchCmdMsg@@YGHPAVCCmdTarget@@IHP81@AEXXZPAXIPAUAFX_CMDHANDLERINFO@@@Z 0043302a f   nafxcw:cmdtarg.obj
 0001:00032162       ?OnCmdMsg@CCmdTarget@@UAEHIHPAXPAUAFX_CMDHANDLERINFO@@@Z 00433162 f   nafxcw:cmdtarg.obj
 0001:0003227c       ?OnHideUI@CHtmlView@@UAEJXZ 0043327c f   nafxcw:viewhtml.obj
 0001:0003227c       ?GetOccDialogInfo@CWnd@@MAEPAU_AFX_OCC_DIALOG_INFO@@XZ 0043327c f   nafxcw:wincore.obj
 0001:0003227c       ?OnFileNameOK@CFileDialog@@MAEHXZ 0043327c f   nafxcw:dlgfile.obj
 0001:0003227c       ?GetTypeInfoCount@CCmdTarget@@UAEIXZ 0043327c f   nafxcw:cmdtarg.obj
 0001:0003227c       ?InitInstance@CWinThread@@UAEHXZ 0043327c f   nafxcw:thrdcore.obj
 0001:0003227c       ?GetTypeLibCache@CCmdTarget@@UAEPAVCTypeLibCache@@XZ 0043327c f   nafxcw:cmdtarg.obj
 0001:0003227c       ?OnUpdateUI@CHtmlView@@UAEJXZ 0043327c f   nafxcw:viewhtml.obj
 0001:0003227c       ?IsFrameWnd@CWnd@@UBEHXZ   0043327c f   nafxcw:wincore.obj
 0001:0003227f       ?GetTypeLib@CCmdTarget@@UAEJKPAPAUITypeLib@@@Z 0043327f f   nafxcw:cmdtarg.obj
 0001:00032287       ?GetDispatchMap@CCmdTarget@@MBEPBUAFX_DISPMAP@@XZ 00433287 f   nafxcw:cmdtarg.obj
 0001:0003228d       ?GetEventSinkMap@CCmdTarget@@MBEPBUAFX_EVENTSINKMAP@@XZ 0043328d f   nafxcw:cmdtarg.obj
 0001:00032293       ?GetInterfaceMap@CCmdTarget@@MBEPBUAFX_INTERFACEMAP@@XZ 00433293 f   nafxcw:cmdtarg.obj
 0001:00032299       ?OnFinalRelease@CCmdTarget@@UAEXXZ 00433299 f   nafxcw:cmdtarg.obj
 0001:000322c7       ?GetConnectionMap@CCmdTarget@@MBEPBUAFX_CONNECTIONMAP@@XZ 004332c7 f   nafxcw:cmdtarg.obj
 0001:000322cd       ?GetCommandMap@CCmdTarget@@MBEPBUAFX_OLECMDMAP@@XZ 004332cd f   nafxcw:cmdtarg.obj
 0001:000322d3       ??0CCmdUI@@QAE@XZ          004332d3 f   nafxcw:cmdtarg.obj
 0001:000322f9       ?DoUpdate@CCmdUI@@QAEHPAVCCmdTarget@@H@Z 004332f9 f   nafxcw:cmdtarg.obj
 0001:00032363       ?GetRuntimeClass@CCmdTarget@@UBEPAUCRuntimeClass@@XZ 00433363 f   nafxcw:cmdtarg.obj
 0001:00032369       ?ModifyMenuA@CMenu@@QAEHIIIPBD@Z 00433369 f i nafxcw:cmdtarg.obj
 0001:00032385       ??0CCmdTarget@@QAE@XZ      00433385 f   nafxcw:cmdtarg.obj
 0001:000323ab       ??1CCmdTarget@@UAE@XZ      004333ab f   nafxcw:cmdtarg.obj
 0001:000323c0       ?BeginWaitCursor@CCmdTarget@@QAEXXZ 004333c0 f   nafxcw:cmdtarg.obj
 0001:000323d5       ?EndWaitCursor@CCmdTarget@@QAEXXZ 004333d5 f   nafxcw:cmdtarg.obj
 0001:000323ea       ?GetMessageMap@CCmdTarget@@MBEPBUAFX_MSGMAP@@XZ 004333ea f   nafxcw:cmdtarg.obj
 0001:000323ea       ?GetThisMessageMap@CCmdTarget@@KGPBUAFX_MSGMAP@@XZ 004333ea f   nafxcw:cmdtarg.obj
 0001:000323f0       ?Enable@CCmdUI@@UAEXH@Z    004333f0 f   nafxcw:cmdtarg.obj
 0001:0003247f       ?SetCheck@CCmdUI@@UAEXH@Z  0043347f f   nafxcw:cmdtarg.obj
 0001:000324f4       ?SetText@CCmdUI@@UAEXPBD@Z 004334f4 f   nafxcw:cmdtarg.obj
 0001:0003255b       ?_AfxLoadDotBitmap@@YGXXZ  0043355b f   nafxcw:cmdtarg.obj
 0001:00032659       ?SetRadio@CCmdUI@@UAEXH@Z  00433659 f   nafxcw:cmdtarg.obj
 0001:000326bc       ?AfxGetThread@@YGPAVCWinThread@@XZ 004336bc f   nafxcw:thrdcore.obj
 0001:000326c5       ?AfxGetCurrentMessage@@YGPAUtagMSG@@XZ 004336c5 f   nafxcw:thrdcore.obj
 0001:000326ce       ?AfxInternalProcessWndProcException@@YGJPAVCException@@PBUtagMSG@@@Z 004336ce f   nafxcw:thrdcore.obj
 0001:000326f3       ?AfxProcessWndProcException@@YGJPAVCException@@PBUtagMSG@@@Z 004336f3 f   nafxcw:thrdcore.obj
 0001:00032709       ?CommonConstruct@CWinThread@@QAEXXZ 00433709 f   nafxcw:thrdcore.obj
 0001:00032740       ??1CWinThread@@UAE@XZ      00433740 f   nafxcw:thrdcore.obj
 0001:00032788       ?Delete@CWinThread@@UAEXXZ 00433788 f   nafxcw:thrdcore.obj
 0001:00032796       ?Run@CWinThread@@UAEHXZ    00433796 f   nafxcw:thrdcore.obj
 0001:00032823       ?ExitInstance@CWinThread@@UAEHXZ 00433823 f   nafxcw:thrdcore.obj
 0001:0003282c       ?DispatchThreadMessageEx@CWinThread@@IAEHPAUtagMSG@@@Z 0043382c f   nafxcw:thrdcore.obj
 0001:000328a4       ?ProcessWndProcException@CWinThread@@UAEJPAVCException@@PBUtagMSG@@@Z 004338a4 f   nafxcw:thrdcore.obj
 0001:000328a9       ?IsEnterKey@@YAHPAUtagMSG@@@Z 004338a9 f i nafxcw:thrdcore.obj
 0001:000328c3       ?GetRuntimeClass@CWinThread@@UBEPAUCRuntimeClass@@XZ 004338c3 f   nafxcw:thrdcore.obj
 0001:000328c9       ??8CPoint@@QBEHUtagPOINT@@@Z 004338c9 f i nafxcw:thrdcore.obj
 0001:000328e4       ?AfxInternalPreTranslateMessage@@YAHPAUtagMSG@@@Z 004338e4 f   nafxcw:thrdcore.obj
 0001:00032950       ?AfxPreTranslateMessage@@YAHPAUtagMSG@@@Z 00433950 f   nafxcw:thrdcore.obj
 0001:0003296b       ?AfxInternalIsIdleMessage@@YAHPAUtagMSG@@@Z 0043396b f   nafxcw:thrdcore.obj
 0001:000329d7       ?AfxIsIdleMessage@@YAHPAUtagMSG@@@Z 004339d7 f   nafxcw:thrdcore.obj
 0001:000329f2       ??_GCWinThread@@UAEPAXI@Z  004339f2 f i nafxcw:thrdcore.obj
 0001:000329f2       ??_ECWinThread@@UAEPAXI@Z  004339f2 f i nafxcw:thrdcore.obj
 0001:00032a0e       ??0CWinThread@@QAE@XZ      00433a0e f   nafxcw:thrdcore.obj
 0001:00032a44       ?IsIdleMessage@CWinThread@@UAEHPAUtagMSG@@@Z 00433a44 f   nafxcw:thrdcore.obj
 0001:00032a51       ?PreTranslateMessage@CWinThread@@UAEHPAUtagMSG@@@Z 00433a51 f   nafxcw:thrdcore.obj
 0001:00032a5e       ?GetMainWnd@CWinThread@@UAEPAVCWnd@@XZ 00433a5e f   nafxcw:thrdcore.obj
 0001:00032a79       ?AfxInternalPumpMessage@@YGHXZ 00433a79 f   nafxcw:thrdcore.obj
 0001:00032abd       ?AfxPumpMessage@@YGHXZ     00433abd f   nafxcw:thrdcore.obj
 0001:00032ad3       ?_AfxMsgFilterHook@@YGJHIJ@Z 00433ad3 f   nafxcw:thrdcore.obj
 0001:00032b35       ?ProcessMessageFilter@CWinThread@@UAEHHPAUtagMSG@@@Z 00433b35 f   nafxcw:thrdcore.obj
 0001:00032c62       ?PumpMessage@CWinThread@@UAEHXZ 00433c62 f   nafxcw:thrdcore.obj
 0001:00032c67       ?AfxInitThread@@YGXXZ      00433c67 f   nafxcw:thrdcore.obj
 0001:00032c95       ?OnIdle@CWinThread@@UAEHJ@Z 00433c95 f   nafxcw:thrdcore.obj
 0001:00032d90       ?OnCreateAggregates@CCmdTarget@@UAEHXZ 00433d90 f   nafxcw:cmdtarg.obj
 0001:00032d90       ?Register@CWinApp@@UAEHXZ  00433d90 f   nafxcw:appui2.obj
 0001:00032d90       ?CheckAutoCenter@CWnd@@UAEHXZ 00433d90 f   nafxcw:wincore.obj
 0001:00032d90       ?IsFrameWnd@CFrameWnd@@UBEHXZ 00433d90 f   nafxcw:wincore.obj
 0001:00032d94       ?GetFirstDocTemplatePosition@CWinApp@@QBEPAU__POSITION@@XZ 00433d94 f   nafxcw:appui2.obj
 0001:00032da5       ?GetNextDocTemplate@CWinApp@@QBEPAVCDocTemplate@@AAPAU__POSITION@@@Z 00433da5 f   nafxcw:appui2.obj
 0001:00032db8       ?AfxDelRegTreeHelper@@YGJPAUHKEY__@@ABV?$CStringT@DV?$StrTraitMFC@DV?$ChTraitsCRT@D@ATL@@@@@ATL@@@Z 00433db8 f   nafxcw:appui2.obj
 0001:00032ec7       ?Unregister@CWinApp@@UAEHXZ 00433ec7 f   nafxcw:appui2.obj
 0001:00033027       ?DoWaitCursor@CWinApp@@UAEXH@Z 00434027 f   nafxcw:appui.obj
 0001:000330a1       ?SaveAllModified@CWinApp@@UAEHXZ 004340a1 f   nafxcw:appui.obj
 0001:000330b3       ?AddToRecentFileList@CWinApp@@UAEXPBD@Z 004340b3 f   nafxcw:appui.obj
 0001:000330d6       ?OpenDocumentFile@CWinApp@@UAEPAVCDocument@@PBD@Z 004340d6 f   nafxcw:appui.obj
 0001:000330e9       ?CloseAllDocuments@CWinApp@@QAEXH@Z 004340e9 f   nafxcw:appui.obj
 0001:000330fa       ?OnUpdateRecentFileMenu@CWinApp@@IAEXPAVCCmdUI@@@Z 004340fa f   nafxcw:appui.obj
 0001:00033128       ?OnDDECommand@CWinApp@@UAEHPAD@Z 00434128 f   nafxcw:appui.obj
 0001:0003313b       ??ACRecentFileList@@QAEAAV?$CStringT@DV?$StrTraitMFC@DV?$ChTraitsCRT@D@ATL@@@@@ATL@@H@Z 0043413b f i nafxcw:appui.obj
 0001:00033156       ?OnAppExit@CWinApp@@IAEXXZ 00434156 f   nafxcw:appui.obj
 0001:00033169       ?HideApplication@CWinApp@@QAEXXZ 00434169 f   nafxcw:appui.obj
 0001:0003319b       ?OnOpenRecentFile@CWinApp@@IAEHI@Z 0043419b f   nafxcw:appui.obj
 0001:000331f9       ?GetRoutingFrame_@CCmdTarget@@KGPAVCFrameWnd@@XZ 004341f9 f   nafxcw:appui1.obj
 0001:00033205       ?AfxCtxMessageBoxA@@YAHPAUHWND__@@PBD1I@Z 00434205 f i nafxcw:appui1.obj
 0001:0003329c       ?DoEnableModeless@CWinApp@@SAXH@Z 0043429c f   nafxcw:appui1.obj
 0001:000332d0       ?GetSafeOwner_@CWnd@@SGPAUHWND__@@PAU2@PAPAU2@@Z 004342d0 f   nafxcw:appui1.obj
 0001:0003336e       ?EnableModeless@CWinApp@@QAEXH@Z 0043436e f   nafxcw:appui1.obj
 0001:0003337b       ?ShowAppMessageBox@CWinApp@@SAHPAV1@PBDII@Z 0043437b f   nafxcw:appui1.obj
 0001:000334d6       ?AfxMessageBox@@YGHPBDII@Z 004344d6 f   nafxcw:appui1.obj
 0001:00033507       ?DoMessageBox@CWinApp@@UAEHPBDII@Z 00434507 f   nafxcw:appui1.obj
 0001:0003351f       ?AfxMessageBox@@YGHIII@Z   0043451f f   nafxcw:appui1.obj
 0001:00033574       ?AfxDlgProc@@YGHPAUHWND__@@IIJ@Z 00434574 f   nafxcw:dlgcore.obj
 0001:000335ae       ??1CDialog@@UAE@XZ         004345ae f   nafxcw:dlgcore.obj
 0001:000335e5       ?OnPaint@CDialog@@IAEXXZ   004345e5 f   nafxcw:dlgcore.obj
 0001:00033628       ?SetOccDialogInfo@CDialog@@MAEHPAU_AFX_OCC_DIALOG_INFO@@@Z 00434628 f   nafxcw:dlgcore.obj
 0001:00033635       ?GetOccDialogInfo@CDialog@@MAEPAU_AFX_OCC_DIALOG_INFO@@XZ 00434635 f   nafxcw:dlgcore.obj
 0001:00033639       ??0CDialog@@QAE@IPAVCWnd@@@Z 00434639 f   nafxcw:dlgcore.obj
 0001:00033672       ?EndDialog@CDialog@@QAEXH@Z 00434672 f   nafxcw:dlgcore.obj
 0001:00033698       ?OnOK@CDialog@@MAEXXZ      00434698 f   nafxcw:dlgcore.obj
 0001:000336b1       ?OnCancel@CDialog@@MAEXXZ  004346b1 f   nafxcw:dlgcore.obj
 0001:000336b9       ?OnHelpHitTest@CDialog@@IAEJIJ@Z 004346b9 f   nafxcw:dlgcore.obj
 0001:000336cc       ?GetRuntimeClass@CDialog@@UBEPAUCRuntimeClass@@XZ 004346cc f   nafxcw:dlgcore.obj
 0001:000336d2       ??_9CDialog@@$BBFE@AE      004346d2 f i nafxcw:dlgcore.obj
 0001:000336da       ??_9CDialog@@$BBFA@AE      004346da f i nafxcw:dlgcore.obj
 0001:000336e2       ?GetNextDlgTabItem@CWnd@@QBEPAV1@PAV1@H@Z 004346e2 f i nafxcw:dlgcore.obj
 0001:00033704       ?PreTranslateMessage@CDialog@@UAEHPAUtagMSG@@@Z 00434704 f   nafxcw:dlgcore.obj
 0001:0003379f       ?OnCmdMsg@CDialog@@UAEHIHPAXPAUAFX_CMDHANDLERINFO@@@Z 0043479f f   nafxcw:dlgcore.obj
 0001:00033824       ??_GCDialog@@UAEPAXI@Z     00434824 f i nafxcw:dlgcore.obj
 0001:00033824       ??_ECDialog@@UAEPAXI@Z     00434824 f i nafxcw:dlgcore.obj
 0001:00033840       ?PreModal@CDialog@@IAEPAUHWND__@@XZ 00434840 f   nafxcw:dlgcore.obj
 0001:0003387a       ?PostModal@CDialog@@IAEXXZ 0043487a f   nafxcw:dlgcore.obj
 0001:000338bc       ?HandleSetFont@CDialog@@IAEJIJ@Z 004348bc f   nafxcw:dlgcore.obj
 0001:000338de       ?HandleInitDialog@CDialog@@IAEJIJ@Z 004348de f   nafxcw:dlgcore.obj
 0001:0003396f       ?AfxHelpEnabled@@YGHXZ     0043496f f   nafxcw:dlgcore.obj
 0001:000339c5       ?OnInitDialog@CDialog@@UAEHXZ 004349c5 f   nafxcw:dlgcore.obj
 0001:00033a26       ?CheckAutoCenter@CDialog@@UAEHXZ 00434a26 f   nafxcw:dlgcore.obj
 0001:00033abd       ?OnCommandHelp@CDialog@@IAEJIJ@Z 00434abd f   nafxcw:dlgcore.obj
 0001:00033afb       ?GetMessageMap@CDialog@@MBEPBUAFX_MSGMAP@@XZ 00434afb f   nafxcw:dlgcore.obj
 0001:00033afb       ?GetThisMessageMap@CDialog@@KGPBUAFX_MSGMAP@@XZ 00434afb f   nafxcw:dlgcore.obj
 0001:00033b01       ?CreateDlgIndirect@CWnd@@IAEHPBUDLGTEMPLATE@@PAV1@PAUHINSTANCE__@@@Z 00434b01 f   nafxcw:dlgcore.obj
 0001:00033cf9       ?DoModal@CDialog@@UAEHXZ   00434cf9 f   nafxcw:dlgcore.obj
 0001:00033ec4       ?CreateIndirect@CDialog@@IAEHPBUDLGTEMPLATE@@PAVCWnd@@PAXPAUHINSTANCE__@@@Z 00434ec4 f   nafxcw:dlgcore.obj
 0001:00033eef       ?CreateDlg@CWnd@@IAEHPBDPAV1@@Z 00434eef f   nafxcw:dlgcore.obj
 0001:00033f45       ?CreateIndirect@CDialog@@IAEHPAXPAVCWnd@@PAUHINSTANCE__@@@Z 00434f45 f   nafxcw:dlgcore.obj
 0001:00033f68       ?CreateIndirect@CDialog@@UAEHPBUDLGTEMPLATE@@PAVCWnd@@PAX@Z 00434f68 f   nafxcw:dlgcore.obj
 0001:00033f7e       ?Create@CDialog@@UAEHPBDPAVCWnd@@@Z 00434f7e f   nafxcw:dlgcore.obj
 0001:00033fd8       ?CreateIndirect@CDialog@@UAEHPAXPAVCWnd@@@Z 00434fd8 f   nafxcw:dlgcore.obj
 0001:00034001       ?_AfxFindFirstDlgItem@@YGPAUDLGITEMTEMPLATE@@PBUDLGTEMPLATE@@@Z 00435001 f   nafxcw:occmgr.obj
 0001:00034080       ?_AfxFindNextDlgItem@@YGPAUDLGITEMTEMPLATE@@PAU1@H@Z 00435080 f   nafxcw:occmgr.obj
 0001:000340e3       ?OnEvent@COccManager@@UAEHPAVCCmdTarget@@IPAUAFX_EVENT@@PAUAFX_CMDHANDLERINFO@@@Z 004350e3 f   nafxcw:occmgr.obj
 0001:000340fb       ?PreCreateDialog@COccManager@@UAEPBUDLGTEMPLATE@@PAU_AFX_OCC_DIALOG_INFO@@PBU2@@Z 004350fb f   nafxcw:occmgr.obj
 0001:0003421a       ?PostCreateDialog@COccManager@@UAEXPAU_AFX_OCC_DIALOG_INFO@@@Z 0043521a f   nafxcw:occmgr.obj
 0001:00034247       ?SplitDialogTemplate@COccManager@@UAEPAUDLGTEMPLATE@@PBU2@PAPAUDLGITEMTEMPLATE@@@Z 00435247 f   nafxcw:occmgr.obj
 0001:00034384       ??$CompareElements@PAVIControlSiteFactory@@PAV1@@@YGHPBQAVIControlSiteFactory@@0@Z 00435384 f i nafxcw:occmgr.obj
 0001:000343a5       ?GetHeadPosition@CPtrList@@QBEPAU__POSITION@@XZ 004353a5 f i nafxcw:occmgr.obj
 0001:000343a5       ?Clone@CFixedStringMgr@ATL@@UAEPAUIAtlStringMgr@2@XZ 004353a5 f i nafxcw:olevar.obj
 0001:000343a9       ?GetNext@CPtrList@@QAEAAPAXAAPAU__POSITION@@@Z 004353a9 f i nafxcw:occmgr.obj
 0001:000343c2       ??_EIControlSiteFactory@@UAEPAXI@Z 004353c2 f i nafxcw:occmgr.obj
 0001:000343c2       ??_GCOleControlSiteFactory@@UAEPAXI@Z 004353c2 f i nafxcw:occmgr.obj
 0001:000343c2       ??_GIControlSiteFactory@@UAEPAXI@Z 004353c2 f i nafxcw:occmgr.obj
 0001:000343c2       ??_ECOleControlSiteFactory@@UAEPAXI@Z 004353c2 f i nafxcw:occmgr.obj
 0001:000343df       ??1?$CList@PAVIControlSiteFactory@@PAV1@@@UAE@XZ 004353df f i nafxcw:occmgr.obj
 0001:000343ea       ?EnsureRead@CArchive@@QAEXPAXI@Z 004353ea f i nafxcw:occmgr.obj
 0001:00034409       ??_E?$CList@PAVIControlSiteFactory@@PAV1@@@UAEPAXI@Z 00435409 f i nafxcw:occmgr.obj
 0001:00034409       ??_G?$CList@PAVIControlSiteFactory@@PAV1@@@UAEPAXI@Z 00435409 f i nafxcw:occmgr.obj
 0001:0003442b       ?CreateContainer@COccManager@@UAEPAVCOleControlContainer@@PAVCWnd@@@Z 0043542b f   nafxcw:occmgr.obj
 0001:00034460       ?CreateDlgControls@COccManager@@UAEHPAVCWnd@@PBDPAU_AFX_OCC_DIALOG_INFO@@@Z 00435460 f   nafxcw:occmgr.obj
 0001:000344f0       ?CreateSite@COleControlSiteFactory@@UAEPAVCOleControlSite@@PAVCOleControlContainer@@ABVCControlCreationInfo@@@Z 004354f0 f i nafxcw:occmgr.obj
 0001:00034525       ??1CControlSiteFactoryMgr@@UAE@XZ 00435525 f   nafxcw:occmgr.obj
 0001:0003456e       ?CreateSite@CControlSiteFactoryMgr@@QAEPAVCOleControlSite@@PAVCOleControlContainer@@ABVCControlCreationInfo@@@Z 0043556e f   nafxcw:occmgr.obj
 0001:0003459a       ?GetNext@?$_CTypedPtrList@VCPtrList@@PAUCOleControlSiteOrWnd@@@@QAEAAPAUCOleControlSiteOrWnd@@AAPAU__POSITION@@@Z 0043559a f i nafxcw:occmgr.obj
 0001:0003459f       ??0?$CList@PAVIControlSiteFactory@@PAV1@@@QAE@H@Z 0043559f f i nafxcw:occmgr.obj
 0001:000345c2       ?Find@?$CList@PAVIControlSiteFactory@@PAV1@@@QBEPAU__POSITION@@PAVIControlSiteFactory@@PAU2@@Z 004355c2 f i nafxcw:occmgr.obj
 0001:000345f6       ??$SerializeElements@W4LoadArrayObjType@CArchive@@@@YGXAAVCArchive@@PAW4LoadArrayObjType@0@H@Z 004355f6 f i nafxcw:arcobj.obj
 0001:000345f6       ??$SerializeElements@PAUHWND__@@@@YGXAAVCArchive@@PAPAUHWND__@@H@Z 004355f6 f i nafxcw:winfrm.obj
 0001:000345f6       ??$SerializeElements@PAVIControlSiteFactory@@@@YGXAAVCArchive@@PAPAVIControlSiteFactory@@H@Z 004355f6 f i nafxcw:occmgr.obj
 0001:0003467c       ?BindControls@COccManager@@IAEXPAVCWnd@@@Z 0043567c f   nafxcw:occmgr.obj
 0001:0003478f       ??_GCControlSiteFactoryMgr@@UAEPAXI@Z 0043578f f i nafxcw:occmgr.obj
 0001:0003478f       ??_ECControlSiteFactoryMgr@@UAEPAXI@Z 0043578f f i nafxcw:occmgr.obj
 0001:000347aa       ?CreateObject@?$CProcessLocal@VCOccManager@@@@SGPAVCNoTrackObject@@XZ 004357aa f i nafxcw:occmgr.obj
 0001:000347bf       ??_ECOccManager@@UAEPAXI@Z 004357bf f i nafxcw:occmgr.obj
 0001:000347bf       ??_GCOccManager@@UAEPAXI@Z 004357bf f i nafxcw:occmgr.obj
 0001:000347bf       ??_ECThreadData@@UAEPAXI@Z 004357bf f i nafxcw:afxtls.obj
 0001:000347bf       ??_GCThreadData@@UAEPAXI@Z 004357bf f i nafxcw:afxtls.obj
 0001:000347d5       ?AddHead@?$CList@PAVIControlSiteFactory@@PAV1@@@QAEPAU__POSITION@@PAVIControlSiteFactory@@@Z 004357d5 f i nafxcw:occmgr.obj
 0001:000347ff       ?Serialize@?$CList@PAVIControlSiteFactory@@PAV1@@@UAEXAAVCArchive@@@Z 004357ff f i nafxcw:occmgr.obj
 0001:000347ff       ?Serialize@?$CList@PAUHWND__@@PAU1@@@UAEXAAVCArchive@@@Z 004357ff f i nafxcw:winfrm.obj
 0001:00034861       ?RegisterSiteFactory@CControlSiteFactoryMgr@@QAEHPAVIControlSiteFactory@@@Z 00435861 f   nafxcw:occmgr.obj
 0001:00034890       ?AfxEnableControlContainer@@YAXPAVCOccManager@@@Z 00435890 f   nafxcw:occmgr.obj
 0001:000348bd       ??0CControlSiteFactoryMgr@@QAE@XZ 004358bd f   nafxcw:occmgr.obj
 0001:0003492e       ?CreateObject@?$CProcessLocal@VCControlSiteFactoryMgr@@@@SGPAVCNoTrackObject@@XZ 0043592e f i nafxcw:occmgr.obj
 0001:0003495a       ?CreateSite@COccManager@@UAEPAVCOleControlSite@@PAVCOleControlContainer@@ABVCControlCreationInfo@@@Z 0043595a f   nafxcw:occmgr.obj
 0001:000349ae       ?CreateDlgControl@COccManager@@IAEHPAVCWnd@@PAUHWND__@@HPAUDLGITEMTEMPLATE@@GPAEKPAPAU3@@Z 004359ae f   nafxcw:occmgr.obj
 0001:00034cb4       ?CreateDlgControls@COccManager@@UAEHPAVCWnd@@PAXPAU_AFX_OCC_DIALOG_INFO@@@Z 00435cb4 f   nafxcw:occmgr.obj
 0001:00034e05       _IsPlatformNT              00435e05 f   nafxcw:wincore.obj
 0001:00034e5d       _InitMultipleMonitorStubs  00435e5d f   nafxcw:wincore.obj
 0001:00034f52       _xMonitorFromRect@8        00435f52 f   nafxcw:wincore.obj
 0001:00034f9e       _xMonitorFromWindow@8      00435f9e f   nafxcw:wincore.obj
 0001:00035009       _xGetMonitorInfo@8         00436009 f   nafxcw:wincore.obj
 0001:000350a2       ?AtlIAccessibleInvokeHelper@ATL@@YGJPAUIAccessible@@JABU_GUID@@KGPAUtagDISPPARAMS@@PAUtagVARIANT@@PAUtagEXCEPINFO@@PAI@Z 004360a2 f i nafxcw:wincore.obj
 0001:0003566e       ?AtlIAccessibleGetIDsOfNamesHelper@ATL@@YGJABU_GUID@@PAPA_WIKPAJ@Z 0043666e f i nafxcw:wincore.obj
 0001:000356ce       ??0CWnd@@AAE@PAUHWND__@@@Z 004366ce f   nafxcw:wincore.obj
 0001:00035714       ?_AfxModifyStyle@@YGHPAUHWND__@@HKKI@Z 00436714 f   nafxcw:wincore.obj
 0001:00035764       ?ModifyStyle@CWnd@@SGHPAUHWND__@@KKI@Z 00436764 f   nafxcw:wincore.obj
 0001:0003577e       ?ModifyStyleEx@CWnd@@SGHPAUHWND__@@KKI@Z 0043677e f   nafxcw:wincore.obj
 0001:00035798       ?OnFinalRelease@CWnd@@UAEXXZ 00436798 f   nafxcw:wincore.obj
 0001:000357a9       ?DefWindowProcA@CWnd@@MAEJIIJ@Z 004367a9 f   nafxcw:wincore.obj
 0001:000357f0       ?GetSuperWndProcAddr@CWnd@@MAEPAP6GJPAUHWND__@@IIJ@ZXZ 004367f0 f   nafxcw:wincore.obj
 0001:000357f4       ?PreTranslateMessage@CWnd@@UAEHPAUtagMSG@@@Z 004367f4 f   nafxcw:wincore.obj
 0001:00035810       ?OnToolHitTest@CWnd@@UBEHVCPoint@@PAUtagTOOLINFOA@@@Z 00436810 f   nafxcw:wincore.obj
 0001:00035883       ?AfxFindMessageEntry@@YGPBUAFX_MSGMAP_ENTRY@@PBU1@III@Z 00436883 f   nafxcw:wincore.obj
 0001:000358c3       ?WindowProc@CWnd@@MAEJIIJ@Z 004368c3 f   nafxcw:wincore.obj
 0001:00035907       ??0CTestCmdUI@@QAE@XZ      00436907 f   nafxcw:wincore.obj
 0001:00035920       ?Enable@CTestCmdUI@@UAEXH@Z 00436920 f   nafxcw:wincore.obj
 0001:00035931       ?SetScrollInfo@CWnd@@QAEHHPAUtagSCROLLINFO@@H@Z 00436931 f   nafxcw:wincore.obj
 0001:0003596e       ?GetScrollInfo@CWnd@@QAEHHPAUtagSCROLLINFO@@I@Z 0043696e f   nafxcw:wincore.obj
 0001:000359ab       ?AfxRepositionWindow@@YGXPAUAFX_SIZEPARENTPARAMS@@PAUHWND__@@PBUtagRECT@@@Z 004369ab f   nafxcw:wincore.obj
 0001:00035a37       ?CalcWindowRect@CWnd@@UAEXPAUtagRECT@@I@Z 00436a37 f   nafxcw:wincore.obj
 0001:00035a64       ?GetInterfaceMap@CWnd@@MBEPBUAFX_INTERFACEMAP@@XZ 00436a64 f   nafxcw:wincore.obj
 0001:00035a6a       ?GetIDsOfNames@XAccessible@CWnd@@UAGJABU_GUID@@PAPA_WIKPAJ@Z 00436a6a f   nafxcw:wincore.obj
 0001:00035a85       ?GetTypeInfoCount@XAccessible@CWnd@@UAGJPAI@Z 00436a85 f   nafxcw:wincore.obj
 0001:00035a9f       ?GetEnumVariant@XAccessibleServer@CWnd@@UAGJPAPAUIEnumVARIANT@@@Z 00436a9f f   nafxcw:wincore.obj
 0001:00035ab9       ?EnsureStdObj@CWnd@@UAEJXZ 00436ab9 f   nafxcw:wincore.obj
 0001:00035ad8       ?get_accParent@CWnd@@UAEJPAPAUIDispatch@@@Z 00436ad8 f   nafxcw:wincore.obj
 0001:00035ae8       ?get_accChildCount@CWnd@@UAEJPAJ@Z 00436ae8 f   nafxcw:wincore.obj
 0001:00035af8       ?get_accChild@CWnd@@UAEJUtagVARIANT@@PAPAUIDispatch@@@Z 00436af8 f   nafxcw:wincore.obj
 0001:00035b19       ?get_accName@CWnd@@UAEJUtagVARIANT@@PAPA_W@Z 00436b19 f   nafxcw:wincore.obj
 0001:00035b3a       ?get_accValue@CWnd@@UAEJUtagVARIANT@@PAPA_W@Z 00436b3a f   nafxcw:wincore.obj
 0001:00035b5b       ?get_accDescription@CWnd@@UAEJUtagVARIANT@@PAPA_W@Z 00436b5b f   nafxcw:wincore.obj
 0001:00035b7c       ?get_accRole@CWnd@@UAEJUtagVARIANT@@PAU2@@Z 00436b7c f   nafxcw:wincore.obj
 0001:00035b9d       ?get_accState@CWnd@@UAEJUtagVARIANT@@PAU2@@Z 00436b9d f   nafxcw:wincore.obj
 0001:00035bbe       ?get_accHelp@CWnd@@UAEJUtagVARIANT@@PAPA_W@Z 00436bbe f   nafxcw:wincore.obj
 0001:00035bdf       ?get_accHelpTopic@CWnd@@UAEJPAPA_WUtagVARIANT@@PAJ@Z 00436bdf f   nafxcw:wincore.obj
 0001:00035c04       ?get_accKeyboardShortcut@CWnd@@UAEJUtagVARIANT@@PAPA_W@Z 00436c04 f   nafxcw:wincore.obj
 0001:00035c25       ?get_accFocus@CWnd@@UAEJPAUtagVARIANT@@@Z 00436c25 f   nafxcw:wincore.obj
 0001:00035c35       ?get_accSelection@CWnd@@UAEJPAUtagVARIANT@@@Z 00436c35 f   nafxcw:wincore.obj
 0001:00035c45       ?get_accDefaultAction@CWnd@@UAEJUtagVARIANT@@PAPA_W@Z 00436c45 f   nafxcw:wincore.obj
 0001:00035c66       ?accSelect@CWnd@@UAEJJUtagVARIANT@@@Z 00436c66 f   nafxcw:wincore.obj
 0001:00035c87       ?accLocation@CWnd@@UAEJPAJ000UtagVARIANT@@@Z 00436c87 f   nafxcw:wincore.obj
 0001:00035cb3       ?accNavigate@CWnd@@UAEJJUtagVARIANT@@PAU2@@Z 00436cb3 f   nafxcw:wincore.obj
 0001:00035cd8       ?accHitTest@CWnd@@UAEJJJPAUtagVARIANT@@@Z 00436cd8 f   nafxcw:wincore.obj
 0001:00035cf0       ?accDoDefaultAction@CWnd@@UAEJUtagVARIANT@@@Z 00436cf0 f   nafxcw:wincore.obj
 0001:00035d0d       ?put_accName@CWnd@@UAEJUtagVARIANT@@PA_W@Z 00436d0d f   nafxcw:wincore.obj
 0001:00035d0d       ?put_accValue@CWnd@@UAEJUtagVARIANT@@PA_W@Z 00436d0d f   nafxcw:wincore.obj
 0001:00035d2e       ?SetProxy@CWnd@@UAEJPAUIAccessibleProxy@@@Z 00436d2e f   nafxcw:wincore.obj
 0001:00035d3a       ?PreTranslateInput@CWnd@@QAEHPAUtagMSG@@@Z 00436d3a f   nafxcw:wincore.obj
 0001:00035d6a       ?ContinueModal@CWnd@@UAEHXZ 00436d6a f   nafxcw:wincore.obj
 0001:00035d71       ??3CObject@@SGXPAX0@Z      00436d71 f i nafxcw:wincore.obj
 0001:00035d7e       ?IsTracking@CFrameWnd@@QBEHXZ 00436d7e f   nafxcw:wincore.obj
 0001:00035d9d       ?CreateControlContainer@CWnd@@MAEHPAPAVCOleControlContainer@@@Z 00436d9d f   nafxcw:wincore.obj
 0001:00035db3       ?CreateControlSite@CWnd@@MAEHPAVCOleControlContainer@@PAPAVCOleControlSite@@IABU_GUID@@@Z 00436db3 f   nafxcw:wincore.obj
 0001:00035dc9       ?GetControlContainer@CWnd@@QAEPAVCOleControlContainer@@XZ 00436dc9 f   nafxcw:wincore.obj
 0001:00035dcd       ?GetRuntimeClass@CWnd@@UBEPAUCRuntimeClass@@XZ 00436dcd f   nafxcw:wincore.obj
 0001:00035dd3       ?AfxCtxRegisterClassA@@YAGPBUtagWNDCLASSA@@@Z 00436dd3 f i nafxcw:wincore.obj
 0001:00035e66       ?AfxCtxGetClassInfoA@@YAHPAUHINSTANCE__@@PBDPAUtagWNDCLASSA@@@Z 00436e66 f i nafxcw:wincore.obj
 0001:00035efa       ?AfxCtxGetClassInfoExA@@YAHPAUHINSTANCE__@@PBDPAUtagWNDCLASSEXA@@@Z 00436efa f i nafxcw:wincore.obj
 0001:00035f8e       ?AfxCtxCreateWindowExA@@YAPAUHWND__@@KPBD0KHHHHPAU1@PAUHMENU__@@PAUHINSTANCE__@@PAX@Z 00436f8e f i nafxcw:wincore.obj
 0001:0003603d       ?AfxCtxLoadLibraryA@@YAPAUHINSTANCE__@@PBD@Z 0043703d f i nafxcw:wincore.obj
 0001:000360cb       ??1AFX_MAINTAIN_STATE2@@QAE@XZ 004370cb f i nafxcw:wincore.obj
 0001:000360db       ?GetSubMenu@CMenu@@QBEPAV1@H@Z 004370db f i nafxcw:wincore.obj
 0001:000360f1       ?SetScrollRange@CScrollBar@@QAEXHHH@Z 004370f1 f i nafxcw:wincore.obj
 0001:0003610b       ?Lock@CInternalGlobalLock@@QAEXH@Z 0043710b f i nafxcw:wincore.obj
 0001:0003613a       ?Unlock@CInternalGlobalLock@@QAEXXZ 0043713a f i nafxcw:wincore.obj
 0001:00036154       ??0CWnd@@QAE@XZ            00437154 f   nafxcw:wincore.obj
 0001:00036197       ?_AfxPreInitDialog@@YGXPAVCWnd@@PAUtagRECT@@PAK@Z 00437197 f   nafxcw:wincore.obj
 0001:000361ba       ?CreateEx@CWnd@@UAEHKPBD0KABUtagRECT@@PAV1@IPAX@Z 004371ba f   nafxcw:wincore.obj
 0001:00036203       ?Create@CWnd@@UAEHPBD0KABUtagRECT@@PAV1@IPAUCCreateContext@@@Z 00437203 f   nafxcw:wincore.obj
 0001:00036251       ?CancelToolTips@CWnd@@SGXH@Z 00437251 f   nafxcw:wincore.obj
 0001:000362a2       ?TrackPopupMenu@CMenu@@QAEHIHHPAVCWnd@@PBUtagRECT@@@Z 004372a2 f   nafxcw:wincore.obj
 0001:000362f6       ?_AfxFindPopupMenuFromID@@YGPAVCMenu@@PAV1@I@Z 004372f6 f   nafxcw:wincore.obj
 0001:00036362       ??1_AFX_HTMLHELP_STATE@@UAE@XZ 00437362 f   nafxcw:wincore.obj
 0001:00036377       ??_G_AFX_HTMLHELP_STATE@@UAEPAXI@Z 00437377 f i nafxcw:wincore.obj
 0001:00036377       ??_E_AFX_HTMLHELP_STATE@@UAEPAXI@Z 00437377 f i nafxcw:wincore.obj
 0001:00036392       ?WinHelpInternal@CWnd@@UAEXKI@Z 00437392 f   nafxcw:wincore.obj
 0001:000363e3       ?SetScrollPos@CWnd@@QAEHHHH@Z 004373e3 f   nafxcw:wincore.obj
 0001:00036413       ?GetScrollPos@CWnd@@QBEHH@Z 00437413 f   nafxcw:wincore.obj
 0001:0003643b       ?SetScrollRange@CWnd@@QAEXHHHH@Z 0043743b f   nafxcw:wincore.obj
 0001:00036470       ?GetScrollRange@CWnd@@QBEXHPAH0@Z 00437470 f   nafxcw:wincore.obj
 0001:000364a0       ?EnableScrollBarCtrl@CWnd@@QAEXHH@Z 004374a0 f   nafxcw:wincore.obj
 0001:000364e3       ?GetScrollLimit@CWnd@@QAEHH@Z 004374e3 f   nafxcw:wincore.obj
 0001:0003652a       ?ScrollWindow@CWnd@@QAEXHHPBUtagRECT@@0@Z 0043752a f   nafxcw:wincore.obj
 0001:000365d4       ?OnActivateTopLevel@CWnd@@IAEJIJ@Z 004375d4 f   nafxcw:wincore.obj
 0001:000365fd       ?AddRef@XAccessible@CWnd@@UAGKXZ 004375fd f   nafxcw:wincore.obj
 0001:00036645       ?Release@XAccessible@CWnd@@UAGKXZ 00437645 f   nafxcw:wincore.obj
 0001:0003668d       ?QueryInterface@XAccessible@CWnd@@UAGJABU_GUID@@PAPAX@Z 0043768d f   nafxcw:wincore.obj
 0001:000366db       ?Invoke@XAccessible@CWnd@@UAGJJABU_GUID@@KGPAUtagDISPPARAMS@@PAUtagVARIANT@@PAUtagEXCEPINFO@@PAI@Z 004376db f   nafxcw:wincore.obj
 0001:00036737       ?get_accParent@XAccessible@CWnd@@UAGJPAPAUIDispatch@@@Z 00437737 f   nafxcw:wincore.obj
 0001:00036785       ?get_accChildCount@XAccessible@CWnd@@UAGJPAJ@Z 00437785 f   nafxcw:wincore.obj
 0001:000367d3       ?get_accChild@XAccessible@CWnd@@UAGJUtagVARIANT@@PAPAUIDispatch@@@Z 004377d3 f   nafxcw:wincore.obj
 0001:0003682d       ?get_accName@XAccessible@CWnd@@UAGJUtagVARIANT@@PAPA_W@Z 0043782d f   nafxcw:wincore.obj
 0001:00036887       ?get_accValue@XAccessible@CWnd@@UAGJUtagVARIANT@@PAPA_W@Z 00437887 f   nafxcw:wincore.obj
 0001:000368e1       ?get_accDescription@XAccessible@CWnd@@UAGJUtagVARIANT@@PAPA_W@Z 004378e1 f   nafxcw:wincore.obj
 0001:0003693b       ?get_accRole@XAccessible@CWnd@@UAGJUtagVARIANT@@PAU3@@Z 0043793b f   nafxcw:wincore.obj
 0001:00036995       ?get_accState@XAccessible@CWnd@@UAGJUtagVARIANT@@PAU3@@Z 00437995 f   nafxcw:wincore.obj
 0001:000369ef       ?get_accHelp@XAccessible@CWnd@@UAGJUtagVARIANT@@PAPA_W@Z 004379ef f   nafxcw:wincore.obj
 0001:00036a49       ?get_accHelpTopic@XAccessible@CWnd@@UAGJPAPA_WUtagVARIANT@@PAJ@Z 00437a49 f   nafxcw:wincore.obj
 0001:00036aa6       ?get_accKeyboardShortcut@XAccessible@CWnd@@UAGJUtagVARIANT@@PAPA_W@Z 00437aa6 f   nafxcw:wincore.obj
 0001:00036b00       ?get_accFocus@XAccessible@CWnd@@UAGJPAUtagVARIANT@@@Z 00437b00 f   nafxcw:wincore.obj
 0001:00036b4e       ?get_accSelection@XAccessible@CWnd@@UAGJPAUtagVARIANT@@@Z 00437b4e f   nafxcw:wincore.obj
 0001:00036b9c       ?get_accDefaultAction@XAccessible@CWnd@@UAGJUtagVARIANT@@PAPA_W@Z 00437b9c f   nafxcw:wincore.obj
 0001:00036bf6       ?accSelect@XAccessible@CWnd@@UAGJJUtagVARIANT@@@Z 00437bf6 f   nafxcw:wincore.obj
 0001:00036c50       ?accLocation@XAccessible@CWnd@@UAGJPAJ000UtagVARIANT@@@Z 00437c50 f   nafxcw:wincore.obj
 0001:00036cb3       ?accNavigate@XAccessible@CWnd@@UAGJJUtagVARIANT@@PAU3@@Z 00437cb3 f   nafxcw:wincore.obj
 0001:00036d10       ?accHitTest@XAccessible@CWnd@@UAGJJJPAUtagVARIANT@@@Z 00437d10 f   nafxcw:wincore.obj
 0001:00036d64       ?accDoDefaultAction@XAccessible@CWnd@@UAGJUtagVARIANT@@@Z 00437d64 f   nafxcw:wincore.obj
 0001:00036dbb       ?put_accName@XAccessible@CWnd@@UAGJUtagVARIANT@@PA_W@Z 00437dbb f   nafxcw:wincore.obj
 0001:00036e15       ?put_accValue@XAccessible@CWnd@@UAGJUtagVARIANT@@PA_W@Z 00437e15 f   nafxcw:wincore.obj
 0001:00036e6f       ?AddRef@XAccessibleServer@CWnd@@UAGKXZ 00437e6f f   nafxcw:wincore.obj
 0001:00036eb7       ?Release@XAccessibleServer@CWnd@@UAGKXZ 00437eb7 f   nafxcw:wincore.obj
 0001:00036eff       ?QueryInterface@XAccessibleServer@CWnd@@UAGJABU_GUID@@PAPAX@Z 00437eff f   nafxcw:wincore.obj
 0001:00036f4d       ?SetProxy@XAccessibleServer@CWnd@@UAGJPAUIAccessibleProxy@@@Z 00437f4d f   nafxcw:wincore.obj
 0001:00036f9b       ?GetHWND@XAccessibleServer@CWnd@@UAGJPAPAUHWND__@@@Z 00437f9b f   nafxcw:wincore.obj
 0001:00036fdb       ?GetWindowLessChildCount@CWnd@@QAEJXZ 00437fdb f   nafxcw:wincore.obj
 0001:00037021       ?GetAccessibilityLocation@CWnd@@QAEJUtagVARIANT@@PAJ111@Z 00438021 f   nafxcw:wincore.obj
 0001:000370f4       ?UpdateData@CWnd@@QAEHH@Z  004380f4 f   nafxcw:wincore.obj
 0001:0003717f       ?CenterWindow@CWnd@@QAEXPAV1@@Z 0043817f f   nafxcw:wincore.obj
 0001:00037341       ?RunModalLoop@CWnd@@QAEHK@Z 00438341 f   nafxcw:wincore.obj
 0001:00037490       ?EndModalLoop@CWnd@@UAEXH@Z 00438490 f   nafxcw:wincore.obj
 0001:000374b5       ?CreateObject@CWnd@@SGPAVCObject@@XZ 004384b5 f   nafxcw:wincore.obj
 0001:000374e2       ?Construct@?$ConstructDestruct@VCWnd@@@@SGXPAVCObject@@@Z 004384e2 f i nafxcw:wincore.obj
 0001:00037509       ?GetProcAddress_InitCommonControls@CComCtlWrapper@@QAE?AUInitCommonControls_Type@1@XZ 00438509 f i nafxcw:wincore.obj
 0001:00037533       ?_InitCommonControls@CComCtlWrapper@@QAEXXZ 00438533 f i nafxcw:wincore.obj
 0001:000375a7       ?GetProcAddress_InitCommonControlsEx@CComCtlWrapper@@QAE?AUInitCommonControlsEx_Type@1@XZ 004385a7 f i nafxcw:wincore.obj
 0001:000375d1       ?_InitCommonControlsEx@CComCtlWrapper@@QAEHPAUtagINITCOMMONCONTROLSEX@@@Z 004385d1 f i nafxcw:wincore.obj
 0001:0003767c       ?AfxInitCommonControlsEx@@YGHPAUtagINITCOMMONCONTROLSEX@@@Z 0043867c f i nafxcw:wincore.obj
 0001:00037692       ??1CInternalGlobalLock@@QAE@XZ 00438692 f i nafxcw:wincore.obj
 0001:00037697       ?GetCurrentMessage@CWnd@@KGPBUtagMSG@@XZ 00438697 f   nafxcw:wincore.obj
 0001:000376d5       ?Default@CWnd@@IAEJXZ      004386d5 f   nafxcw:wincore.obj
 0001:00037705       ?afxMapHWND@@YGPAVCHandleMap@@H@Z 00438705 f   nafxcw:wincore.obj
 0001:00037779       ?FromHandle@CWnd@@SGPAV1@PAUHWND__@@@Z 00438779 f   nafxcw:wincore.obj
 0001:000377a0       ?FromHandlePermanent@CWnd@@SGPAV1@PAUHWND__@@@Z 004387a0 f   nafxcw:wincore.obj
 0001:000377ba       ?Attach@CWnd@@QAEHPAUHWND__@@@Z 004387ba f   nafxcw:wincore.obj
 0001:000377f3       ?Detach@CWnd@@QAEPAUHWND__@@XZ 004387f3 f   nafxcw:wincore.obj
 0001:00037821       ?AfxUnhookWindowCreate@@YGHXZ 00438821 f   nafxcw:wincore.obj
 0001:0003786c       ?OnDestroy@CWnd@@IAEXXZ    0043886c f   nafxcw:wincore.obj
 0001:000378a7       ?OnNcDestroy@CWnd@@IAEXXZ  004388a7 f   nafxcw:wincore.obj
 0001:000379b8       ?DestroyWindow@CWnd@@UAEHXZ 004389b8 f   nafxcw:wincore.obj
 0001:00037a15       ?OnNTCtlColor@CWnd@@IAEJIJ@Z 00438a15 f   nafxcw:wincore.obj
 0001:00037a64       ?GetParentOwner@CWnd@@QBEPAV1@XZ 00438a64 f   nafxcw:wincore.obj
 0001:00037aa8       ?GetDescendantWindow@CWnd@@SGPAV1@PAUHWND__@@HH@Z 00438aa8 f   nafxcw:wincore.obj
 0001:00037b1f       ?RepositionBars@CWnd@@QAEXIIIIPAUtagRECT@@PBU2@H@Z 00438b1f f   nafxcw:wincore.obj
 0001:00037c69       ?WalkPreTranslateTree@CWnd@@SGHPAUHWND__@@PAUtagMSG@@@Z 00438c69 f   nafxcw:wincore.obj
 0001:00037cab       ?SendChildNotifyLastMsg@CWnd@@QAEHPAJ@Z 00438cab f   nafxcw:wincore.obj
 0001:00037ce1       ?OnSetFocus@CWnd@@IAEXPAV1@@Z 00438ce1 f   nafxcw:wincore.obj
 0001:00037d04       ?OnHelpInfo@CWnd@@IAEHPAUtagHELPINFO@@@Z 00438d04 f   nafxcw:wincore.obj
 0001:00037d6e       ?OnGetObject@CWnd@@IAEJIJ@Z 00438d6e f   nafxcw:wincore.obj
 0001:00037daa       ?OnVScroll@CWnd@@IAEXIIPAVCScrollBar@@@Z 00438daa f   nafxcw:wincore.obj
 0001:00037daa       ?OnHScroll@CWnd@@IAEXIIPAVCScrollBar@@@Z 00438daa f   nafxcw:wincore.obj
 0001:00037dcb       ?OnPaint@CWnd@@IAEXXZ      00438dcb f   nafxcw:wincore.obj
 0001:00037e14       ?OnEnterIdle@CWnd@@IAEXIPAV1@@Z 00438e14 f   nafxcw:wincore.obj
 0001:00037e54       ?OnCtlColor@CWnd@@IAEPAUHBRUSH__@@PAVCDC@@PAV1@I@Z 00438e54 f   nafxcw:wincore.obj
 0001:00037e7b       ?_AfxInitCommonControls@@YGJPAUtagINITCOMMONCONTROLSEX@@J@Z 00438e7b f   nafxcw:wincore.obj
 0001:00037ed2       ?UnsubclassWindow@CWnd@@QAEPAUHWND__@@XZ 00438ed2 f   nafxcw:wincore.obj
 0001:00037ef9       ?CreateObject@?$CProcessLocal@V_AFX_HTMLHELP_STATE@@@@SGPAVCNoTrackObject@@XZ 00438ef9 f i nafxcw:wincore.obj
 0001:00037f0e       ?_AfxPostInitDialog@@YGXPAVCWnd@@ABUtagRECT@@K@Z 00438f0e f   nafxcw:wincore.obj
 0001:00037f8a       ?AfxCallWndProc@@YGJPAVCWnd@@PAUHWND__@@IIJ@Z 00438f8a f   nafxcw:wincore.obj
 0001:0003807d       ?AfxWndProc@@YGJPAUHWND__@@IIJ@Z 0043907d f   nafxcw:wincore.obj
 0001:000380c8       ??1CWnd@@UAE@XZ            004390c8 f   nafxcw:wincore.obj
 0001:0003813d       ?OnCharToItem@CWnd@@IAEHIPAVCListBox@@I@Z 0043913d f   nafxcw:wincore.obj
 0001:0003813d       ?OnVKeyToItem@CWnd@@IAEHIPAVCListBox@@I@Z 0043913d f   nafxcw:wincore.obj
 0001:00038168       ?OnMeasureItem@CWnd@@IAEXHPAUtagMEASUREITEMSTRUCT@@@Z 00439168 f   nafxcw:wincore.obj
 0001:000381ed       ?GetParentFrame@CWnd@@QBEPAVCFrameWnd@@XZ 004391ed f   nafxcw:wincore.obj
 0001:0003822c       ?GetTopLevelFrame@CWnd@@QBEPAVCFrameWnd@@XZ 0043922c f   nafxcw:wincore.obj
 0001:0003826b       ?SendMessageToDescendants@CWnd@@SGXPAUHWND__@@IIJHH@Z 0043926b f   nafxcw:wincore.obj
 0001:000382e8       ?ReflectLastMsg@CWnd@@KGHPAUHWND__@@PAJ@Z 004392e8 f   nafxcw:wincore.obj
 0001:00038388       ?OnParentNotify@CWnd@@IAEXIJ@Z 00439388 f   nafxcw:wincore.obj
 0001:000383b5       ?OnDragList@CWnd@@IAEJIJ@Z 004393b5 f   nafxcw:wincore.obj
 0001:000383df       ?GetWindowedChildCount@CWnd@@QAEJXZ 004393df f   nafxcw:wincore.obj
 0001:0003840f       ?GetAccessibleChildCount@CWnd@@QAEJXZ 0043940f f   nafxcw:wincore.obj
 0001:00038426       ?GetAccessibleChild@CWnd@@QAEJUtagVARIANT@@PAPAUIDispatch@@@Z 00439426 f   nafxcw:wincore.obj
 0001:00038495       ?GetAccessibilityHitTest@CWnd@@QAEJJJPAUtagVARIANT@@@Z 00439495 f   nafxcw:wincore.obj
 0001:00038539       ?SubclassWindow@CWnd@@QAEHPAUHWND__@@@Z 00439539 f   nafxcw:wincore.obj
 0001:0003857b       ?get_accParent@?$IAccessibleProxyImpl@VCAccessibleProxy@ATL@@@ATL@@UAGJPAPAUIDispatch@@@Z 0043957b f i nafxcw:wincore.obj
 0001:000385aa       ?get_accChildCount@?$IAccessibleProxyImpl@VCAccessibleProxy@ATL@@@ATL@@UAGJPAJ@Z 004395aa f i nafxcw:wincore.obj
 0001:000385d9       ?get_accChild@?$IAccessibleProxyImpl@VCAccessibleProxy@ATL@@@ATL@@UAGJUtagVARIANT@@PAPAUIDispatch@@@Z 004395d9 f i nafxcw:wincore.obj
 0001:00038617       ?get_accName@?$IAccessibleProxyImpl@VCAccessibleProxy@ATL@@@ATL@@UAGJUtagVARIANT@@PAPA_W@Z 00439617 f i nafxcw:wincore.obj
 0001:00038655       ?get_accValue@?$IAccessibleProxyImpl@VCAccessibleProxy@ATL@@@ATL@@UAGJUtagVARIANT@@PAPA_W@Z 00439655 f i nafxcw:wincore.obj
 0001:00038693       ?get_accDescription@?$IAccessibleProxyImpl@VCAccessibleProxy@ATL@@@ATL@@UAGJUtagVARIANT@@PAPA_W@Z 00439693 f i nafxcw:wincore.obj
 0001:000386d1       ?get_accRole@?$IAccessibleProxyImpl@VCAccessibleProxy@ATL@@@ATL@@UAGJUtagVARIANT@@PAU3@@Z 004396d1 f i nafxcw:wincore.obj
 0001:0003870f       ?get_accState@?$IAccessibleProxyImpl@VCAccessibleProxy@ATL@@@ATL@@UAGJUtagVARIANT@@PAU3@@Z 0043970f f i nafxcw:wincore.obj
 0001:0003874d       ?get_accHelp@?$IAccessibleProxyImpl@VCAccessibleProxy@ATL@@@ATL@@UAGJUtagVARIANT@@PAPA_W@Z 0043974d f i nafxcw:wincore.obj
 0001:0003878b       ?get_accHelpTopic@?$IAccessibleProxyImpl@VCAccessibleProxy@ATL@@@ATL@@UAGJPAPA_WUtagVARIANT@@PAJ@Z 0043978b f i nafxcw:wincore.obj
 0001:000387d2       ?get_accKeyboardShortcut@?$IAccessibleProxyImpl@VCAccessibleProxy@ATL@@@ATL@@UAGJUtagVARIANT@@PAPA_W@Z 004397d2 f i nafxcw:wincore.obj
 0001:00038810       ?get_accFocus@?$IAccessibleProxyImpl@VCAccessibleProxy@ATL@@@ATL@@UAGJPAUtagVARIANT@@@Z 00439810 f i nafxcw:wincore.obj
 0001:0003883f       ?get_accSelection@?$IAccessibleProxyImpl@VCAccessibleProxy@ATL@@@ATL@@UAGJPAUtagVARIANT@@@Z 0043983f f i nafxcw:wincore.obj
 0001:0003886e       ?get_accDefaultAction@?$IAccessibleProxyImpl@VCAccessibleProxy@ATL@@@ATL@@UAGJUtagVARIANT@@PAPA_W@Z 0043986e f i nafxcw:wincore.obj
 0001:000388ac       ?accSelect@?$IAccessibleProxyImpl@VCAccessibleProxy@ATL@@@ATL@@UAGJJUtagVARIANT@@@Z 004398ac f i nafxcw:wincore.obj
 0001:000388dc       ?accLocation@?$IAccessibleProxyImpl@VCAccessibleProxy@ATL@@@ATL@@UAGJPAJ000UtagVARIANT@@@Z 004398dc f i nafxcw:wincore.obj
 0001:00038933       ?accNavigate@?$IAccessibleProxyImpl@VCAccessibleProxy@ATL@@@ATL@@UAGJJUtagVARIANT@@PAU3@@Z 00439933 f i nafxcw:wincore.obj
 0001:00038974       ?accHitTest@?$IAccessibleProxyImpl@VCAccessibleProxy@ATL@@@ATL@@UAGJJJPAUtagVARIANT@@@Z 00439974 f i nafxcw:wincore.obj
 0001:000389aa       ?accDoDefaultAction@?$IAccessibleProxyImpl@VCAccessibleProxy@ATL@@@ATL@@UAGJUtagVARIANT@@@Z 004399aa f i nafxcw:wincore.obj
 0001:000389d6       ?put_accName@?$IAccessibleProxyImpl@VCAccessibleProxy@ATL@@@ATL@@UAGJUtagVARIANT@@PA_W@Z 004399d6 f i nafxcw:wincore.obj
 0001:000389d6       ?put_accValue@?$IAccessibleProxyImpl@VCAccessibleProxy@ATL@@@ATL@@UAGJUtagVARIANT@@PA_W@Z 004399d6 f i nafxcw:wincore.obj
 0001:000389ee       ?SetServer@?$IAccessibleProxyImpl@VCAccessibleProxy@ATL@@@ATL@@UAGJPAUIAccessible@@PAUIAccessibleServer@@@Z 004399ee f i nafxcw:wincore.obj
 0001:00038a05       ?Invoke@?$IAccessibleProxyImpl@VCAccessibleProxy@ATL@@@ATL@@UAGJJABU_GUID@@KGPAUtagDISPPARAMS@@PAUtagVARIANT@@PAUtagEXCEPINFO@@PAI@Z 00439a05 f i nafxcw:wincore.obj
 0001:00038a3d       ?GetIDsOfNames@?$IAccessibleProxyImpl@VCAccessibleProxy@ATL@@@ATL@@UAGJABU_GUID@@PAPA_WIKPAJ@Z 00439a3d f i nafxcw:wincore.obj
 0001:00038a6c       ?GetTypeInfoCount@?$IAccessibleProxyImpl@VCAccessibleProxy@ATL@@@ATL@@UAGJPAI@Z 00439a6c f i nafxcw:wincore.obj
 0001:00038a8d       ?GetTypeInfo@?$IAccessibleProxyImpl@VCAccessibleProxy@ATL@@@ATL@@UAGJIKPAPAUITypeInfo@@@Z 00439a8d f i nafxcw:wincore.obj
 0001:00038ab6       ?GetBufferSetLength@?$CSimpleStringT@D$0A@@ATL@@QAEPADH@Z 00439ab6 f i nafxcw:wincore.obj
 0001:00038ad7       ??_GCWnd@@UAEPAXI@Z        00439ad7 f i nafxcw:wincore.obj
 0001:00038ad7       ??_ECWnd@@UAEPAXI@Z        00439ad7 f i nafxcw:wincore.obj
 0001:00038af3       ?GetWindowTextA@CWnd@@QBEXAAV?$CStringT@DV?$StrTraitMFC@DV?$ChTraitsCRT@D@ATL@@@@@ATL@@@Z 00439af3 f   nafxcw:wincore.obj
 0001:00038b38       ?OnDrawItem@CWnd@@IAEXHPAUtagDRAWITEMSTRUCT@@@Z 00439b38 f   nafxcw:wincore.obj
 0001:00038b75       ?OnCompareItem@CWnd@@IAEHHPAUtagCOMPAREITEMSTRUCT@@@Z 00439b75 f   nafxcw:wincore.obj
 0001:00038b9f       ?OnDeleteItem@CWnd@@IAEXHPAUtagDELETEITEMSTRUCT@@@Z 00439b9f f   nafxcw:wincore.obj
 0001:00038bbf       ?AfxHtmlHelp@@YGPAUHWND__@@PAU1@PBDIK@Z 00439bbf f   nafxcw:wincore.obj
 0001:00038c3d       ?OnCommand@CWnd@@MAEHIJ@Z  00439c3d f   nafxcw:wincore.obj
 0001:00038cd4       ?OnNotify@CWnd@@MAEHIJPAJ@Z 00439cd4 f   nafxcw:wincore.obj
 0001:00038d57       ?AfxGetParentOwner@@YGPAUHWND__@@PAU1@@Z 00439d57 f   nafxcw:wincore.obj
 0001:00038d9c       ?GetTopLevelParent@CWnd@@QBEPAV1@XZ 00439d9c f   nafxcw:wincore.obj
 0001:00038dc4       ?OnSysColorChange@CWnd@@IAEXXZ 00439dc4 f   nafxcw:wincore.obj
 0001:00038e0a       ?OnDevModeChange@CWnd@@IAEXPAD@Z 00439e0a f   nafxcw:wincore.obj
 0001:00038e55       ?OnDisplayChange@CWnd@@IAEJIJ@Z 00439e55 f   nafxcw:wincore.obj
 0001:00038e9e       ?GetAccessibleName@CWnd@@QAEJUtagVARIANT@@PAPA_W@Z 00439e9e f   nafxcw:wincore.obj
 0001:00038f7e       ??0?$CMFCComObject@VCAccessibleProxy@ATL@@@@QAE@PAX@Z 00439f7e f i nafxcw:wincore.obj
 0001:00038fab       _InlineIsEqualGUID         00439fab f i nafxcw:wincore.obj
 0001:00038fd8       ?FinalRelease@CAccessibleProxy@ATL@@QAEJXZ 00439fd8 f i nafxcw:wincore.obj
 0001:00038fed       ?InlineIsEqualUnknown@ATL@@YGHABU_GUID@@@Z 00439fed f i nafxcw:wincore.obj
 0001:00039018       ?AtlInternalQueryInterface@ATL@@YGJPAXPBU_ATL_INTMAP_ENTRY@1@ABU_GUID@@PAPAX@Z 0043a018 f i nafxcw:wincore.obj
 0001:000390b9       ??1?$CMFCComObject@VCAccessibleProxy@ATL@@@@UAE@XZ 0043a0b9 f i nafxcw:wincore.obj
 0001:000390de       ?AddRef@?$CMFCComObject@VCAccessibleProxy@ATL@@@@UAGKXZ 0043a0de f i nafxcw:wincore.obj
 0001:000390eb       ?Release@?$CMFCComObject@VCAccessibleProxy@ATL@@@@UAGKXZ 0043a0eb f i nafxcw:wincore.obj
 0001:00039109       ?QueryInterface@?$CMFCComObject@VCAccessibleProxy@ATL@@@@UAGJABU_GUID@@PAPAX@Z 0043a109 f i nafxcw:wincore.obj
 0001:00039122       ??_E?$CMFCComObject@VCAccessibleProxy@ATL@@@@UAEPAXI@Z 0043a122 f i nafxcw:wincore.obj
 0001:00039122       ??_G?$CMFCComObject@VCAccessibleProxy@ATL@@@@UAEPAXI@Z 0043a122 f i nafxcw:wincore.obj
 0001:0003913e       ?Release@?$CMFCComObject@VCAccessibleProxy@ATL@@@@WBA@AGKXZ 0043a13e f i nafxcw:wincore.obj
 0001:00039148       ?QueryInterface@?$CMFCComObject@VCAccessibleProxy@ATL@@@@W3AGJABU_GUID@@PAPAX@Z 0043a148 f i nafxcw:wincore.obj
 0001:00039152       ?AddRef@?$CMFCComObject@VCAccessibleProxy@ATL@@@@WBA@AGKXZ 0043a152 f i nafxcw:wincore.obj
 0001:0003915c       ?QueryInterface@?$CMFCComObject@VCAccessibleProxy@ATL@@@@WBA@AGJABU_GUID@@PAPAX@Z 0043a15c f i nafxcw:wincore.obj
 0001:00039166       ?Release@?$CMFCComObject@VCAccessibleProxy@ATL@@@@W3AGKXZ 0043a166 f i nafxcw:wincore.obj
 0001:00039170       ?AddRef@?$CMFCComObject@VCAccessibleProxy@ATL@@@@W3AGKXZ 0043a170 f i nafxcw:wincore.obj
 0001:0003917a       ?_AfxHandleActivate@@YGXPAVCWnd@@I0@Z 0043a17a f   nafxcw:wincore.obj
 0001:000391f0       ?_AfxHandleSetCursor@@YGHPAVCWnd@@II@Z 0043a1f0 f   nafxcw:wincore.obj
 0001:00039266       ?_AfxActivationWndProc@@YGJPAUHWND__@@IIJ@Z 0043a266 f   nafxcw:wincore.obj
 0001:000393b0       ?_AfxCbtFilterHook@@YGJHIJ@Z 0043a3b0 f   nafxcw:wincore.obj
 0001:00039603       ?AfxHookWindowCreate@@YGXPAVCWnd@@@Z 0043a603 f   nafxcw:wincore.obj
 0001:00039658       ?CreateEx@CWnd@@UAEHKPBD0KHHHHPAUHWND__@@PAUHMENU__@@PAX@Z 0043a658 f   nafxcw:wincore.obj
 0001:00039735       ?PrepareForHelp@CWnd@@QAEXXZ 0043a735 f   nafxcw:wincore.obj
 0001:000397b1       ?OnWndMsg@CWnd@@MAEHIIJPAJ@Z 0043a7b1 f   nafxcw:wincore.obj
 0001:00039ddd       ?IsTopParentActive@CWnd@@QBEHXZ 0043addd f   nafxcw:wincore.obj
 0001:00039e18       ?ReflectChildNotify@CWnd@@IAEHIIJPAJ@Z 0043ae18 f   nafxcw:wincore.obj
 0001:00039efd       ?OnSettingChange@CWnd@@IAEXIPBD@Z 0043aefd f   nafxcw:wincore.obj
 0001:00039f29       ?CreateInstance@?$CMFCComObject@VCAccessibleProxy@ATL@@@@SGJPAPAV1@@Z 0043af29 f i nafxcw:wincore.obj
 0001:00039f9b       ??1CWaitCursor@@QAE@XZ     0043af9b f i nafxcw:wincore.obj
 0001:0003a08b       ?WinHelpA@CWnd@@UAEXKI@Z   0043b08b f   nafxcw:wincore.obj
 0001:0003a100       ?HtmlHelpA@CWnd@@UAEXKI@Z  0043b100 f   nafxcw:wincore.obj
 0001:0003a174       ?OnChildNotify@CWnd@@MAEHIIJPAJ@Z 0043b174 f   nafxcw:wincore.obj
 0001:0003a1bf       ?CreateAccessibleProxy@CWnd@@UAEJIJPAJ@Z 0043b1bf f   nafxcw:wincore.obj
 0001:0003a27e       ?GetMessageMap@CWnd@@MBEPBUAFX_MSGMAP@@XZ 0043b27e f   nafxcw:wincore.obj
 0001:0003a27e       ?GetThisMessageMap@CWnd@@KGPBUAFX_MSGMAP@@XZ 0043b27e f   nafxcw:wincore.obj
 0001:0003a284       ?AfxRegisterClass@@YGHPAUtagWNDCLASSA@@@Z 0043b284 f   nafxcw:wincore.obj
 0001:0003a312       ?AfxRegisterWndClass@@YGPBDIPAUHICON__@@PAUHBRUSH__@@0@Z 0043b312 f   nafxcw:wincore.obj
 0001:0003a415       ?ExecuteDlgInit@CWnd@@QAEHPAX@Z 0043b415 f   nafxcw:wincore.obj
 0001:0003a52a       ?_AfxRegisterWithIcon@@YGHPAUtagWNDCLASSA@@PBDI@Z 0043b52a f   nafxcw:wincore.obj
 0001:0003a56b       ?AfxEndDeferRegisterClass@@YGHJ@Z 0043b56b f   nafxcw:wincore.obj
 0001:0003a83e       ?PreCreateWindow@CWnd@@UAEHAAUtagCREATESTRUCTA@@@Z 0043b83e f   nafxcw:wincore.obj
 0001:0003a85e       ?ExecuteDlgInit@CWnd@@QAEHPBD@Z 0043b85e f   nafxcw:wincore.obj
 0001:0003a8c3       ?Close@CFileFind@@QAEXXZ   0043b8c3 f   nafxcw:filefind.obj
 0001:0003a903       ?CloseContext@CFileFind@@MAEXXZ 0043b903 f   nafxcw:filefind.obj
 0001:0003a90d       ?MatchesMask@CFileFind@@UBEHK@Z 0043b90d f   nafxcw:filefind.obj
 0001:0003a927       ?GetLastAccessTime@CFileFind@@UBEHPAU_FILETIME@@@Z 0043b927 f   nafxcw:filefind.obj
 0001:0003a94b       ?GetLastWriteTime@CFileFind@@UBEHPAU_FILETIME@@@Z 0043b94b f   nafxcw:filefind.obj
 0001:0003a96f       ?GetCreationTime@CFileFind@@UBEHPAU_FILETIME@@@Z 0043b96f f   nafxcw:filefind.obj
 0001:0003a993       ?FindNextFileA@CFileFind@@UAEHXZ 0043b993 f   nafxcw:filefind.obj
 0001:0003a9cd       ?GetLength@CFileFind@@QBE_KXZ 0043b9cd f   nafxcw:filefind.obj
 0001:0003a9e4       ?GetRuntimeClass@CFileFind@@UBEPAUCRuntimeClass@@XZ 0043b9e4 f   nafxcw:filefind.obj
 0001:0003a9ea       ?IsValidFILETIME@CTime@ATL@@SGHABU_FILETIME@@@Z 0043b9ea f i nafxcw:filefind.obj
 0001:0003aa19       ??0CTime@ATL@@QAE@ABU_SYSTEMTIME@@H@Z 0043ba19 f i nafxcw:filefind.obj
 0001:0003aa71       ??0CTime@ATL@@QAE@ABU_FILETIME@@H@Z 0043ba71 f i nafxcw:filefind.obj
 0001:0003aacf       ?GetLastAccessTime@CFileFind@@UBEHAAVCTime@ATL@@@Z 0043bacf f   nafxcw:filefind.obj
 0001:0003ab21       ?GetLastWriteTime@CFileFind@@UBEHAAVCTime@ATL@@@Z 0043bb21 f   nafxcw:filefind.obj
 0001:0003ab73       ?GetCreationTime@CFileFind@@UBEHAAVCTime@ATL@@@Z 0043bb73 f   nafxcw:filefind.obj
 0001:0003abc5       ?IsDots@CFileFind@@UBEHXZ  0043bbc5 f   nafxcw:filefind.obj
 0001:0003abfe       ??0CFileFind@@QAE@XZ       0043bbfe f   nafxcw:filefind.obj
 0001:0003ac22       ??1CFileFind@@UAE@XZ       0043bc22 f   nafxcw:filefind.obj
 0001:0003ac53       ?GetRoot@CFileFind@@UBE?AV?$CStringT@DV?$StrTraitMFC@DV?$ChTraitsCRT@D@ATL@@@@@ATL@@XZ 0043bc53 f   nafxcw:filefind.obj
 0001:0003ac6e       ??_ECFileFind@@UAEPAXI@Z   0043bc6e f i nafxcw:filefind.obj
 0001:0003ac6e       ??_GCFileFind@@UAEPAXI@Z   0043bc6e f i nafxcw:filefind.obj
 0001:0003ac8a       ?FindFile@CFileFind@@UAEHPBDK@Z 0043bc8a f   nafxcw:filefind.obj
 0001:0003adb5       ?GetFileTitle@CFileFind@@UBE?AV?$CStringT@DV?$StrTraitMFC@DV?$ChTraitsCRT@D@ATL@@@@@ATL@@XZ 0043bdb5 f   nafxcw:filefind.obj
 0001:0003ae29       ?GetFilePath@CFileFind@@UBE?AV?$CStringT@DV?$StrTraitMFC@DV?$ChTraitsCRT@D@ATL@@@@@ATL@@XZ 0043be29 f   nafxcw:filefind.obj
 0001:0003aeb9       ?GetFileName@CFileFind@@UBE?AV?$CStringT@DV?$StrTraitMFC@DV?$ChTraitsCRT@D@ATL@@@@@ATL@@XZ 0043beb9 f   nafxcw:filefind.obj
 0001:0003aefc       ?GetFileURL@CFileFind@@UBE?AV?$CStringT@DV?$StrTraitMFC@DV?$ChTraitsCRT@D@ATL@@@@@ATL@@XZ 0043befc f   nafxcw:filefind.obj
 0001:0003af53       ?StringLengthWorkerA@@YGJPBDIPAI@Z 0043bf53 f i nafxcw:filecore.obj
 0001:0003af8e       ?GetRuntimeClass@CFile@@UBEPAUCRuntimeClass@@XZ 0043bf8e f   nafxcw:filecore.obj
 0001:0003af94       ?StringCchLengthA@@YGJPBDIPAI@Z 0043bf94 f i nafxcw:filecore.obj
 0001:0003afcd       ?Read@CFile@@UAEIPAXI@Z    0043bfcd f   nafxcw:filecore.obj
 0001:0003b00d       ?Write@CFile@@UAEXPBXI@Z   0043c00d f   nafxcw:filecore.obj
 0001:0003b058       ?Seek@CFile@@UAE_K_JI@Z    0043c058 f   nafxcw:filecore.obj
 0001:0003b0a9       ?GetPosition@CFile@@UBE_KXZ 0043c0a9 f   nafxcw:filecore.obj
 0001:0003b0f3       ?Flush@CFile@@UAEXXZ       0043c0f3 f   nafxcw:filecore.obj
 0001:0003b11a       ?LockRange@CFile@@UAEX_K0@Z 0043c11a f   nafxcw:filecore.obj
 0001:0003b14d       ?UnlockRange@CFile@@UAEX_K0@Z 0043c14d f   nafxcw:filecore.obj
 0001:0003b180       ?SetLength@CFile@@UAEX_K@Z 0043c180 f   nafxcw:filecore.obj
 0001:0003b1b2       ?GetLength@CFile@@UBE_KXZ  0043c1b2 f   nafxcw:filecore.obj
 0001:0003b1f1       ?AfxGetFileTitle@@YGIPBDPADI@Z 0043c1f1 f   nafxcw:filecore.obj
 0001:0003b25d       ?Close@CFile@@UAEXXZ       0043c25d f   nafxcw:filecore.obj
 0001:0003b2a0       ?Abort@CFile@@UAEXXZ       0043c2a0 f   nafxcw:filecore.obj
 0001:0003b2bf       ??0CFile@@QAE@XZ           0043c2bf f   nafxcw:filecore.obj
 0001:0003b2dc       ?Duplicate@CFile@@UBEPAV1@XZ 0043c2dc f   nafxcw:filecore.obj
 0001:0003b350       ??1CFileException@@UAE@XZ  0043c350 f i nafxcw:filecore.obj
 0001:0003b361       ?AfxGetRoot@@YGXPBDAAV?$CStringT@DV?$StrTraitMFC@DV?$ChTraitsCRT@D@ATL@@@@@ATL@@@Z 0043c361 f   nafxcw:filecore.obj
 0001:0003b3a4       ??_ECFileException@@UAEPAXI@Z 0043c3a4 f i nafxcw:filecore.obj
 0001:0003b3a4       ??_GCFileException@@UAEPAXI@Z 0043c3a4 f i nafxcw:filecore.obj
 0001:0003b3cc       ??1CFile@@UAE@XZ           0043c3cc f   nafxcw:filecore.obj
 0001:0003b4e4       ??_ECFile@@UAEPAXI@Z       0043c4e4 f i nafxcw:filecore.obj
 0001:0003b4e4       ??_GCFile@@UAEPAXI@Z       0043c4e4 f i nafxcw:filecore.obj
 0001:0003b500       ?_AfxFillExceptionInfo@@YGXPAVCFileException@@PBD@Z 0043c500 f   nafxcw:filecore.obj
 0001:0003b52b       ?_AfxFullPath2@@YGHPADPBDPAVCFileException@@@Z 0043c52b f   nafxcw:filecore.obj
 0001:0003b6dd       ??0CFileException@@QAE@HJPBD@Z 0043c6dd f i nafxcw:filecore.obj
 0001:0003b727       ?SetFilePath@CFile@@UAEXPBD@Z 0043c727 f i nafxcw:filecore.obj
 0001:0003b73c       ?Open@CFile@@UAEHPBDIPAVCFileException@@@Z 0043c73c f   nafxcw:filecore.obj
 0001:0003b8fb       ??0CFile@@QAE@PBDI@Z       0043c8fb f   nafxcw:filecore.obj
 0001:0003b972       ??1?$CThreadLocal@VAFX_MODULE_THREAD_STATE@@@@QAE@XZ 0043c972 f i nafxcw:afxstate.obj
 0001:0003b977       ?_AfxInitContextAPI@@YGXXZ 0043c977 f   nafxcw:afxstate.obj
 0001:0003b9e5       ?AfxCreateActCtxW@@YGPAXPBUtagACTCTXW@@@Z 0043c9e5 f   nafxcw:afxstate.obj
 0001:0003b9f6       ?AfxReleaseActCtx@@YGXPAX@Z 0043c9f6 f   nafxcw:afxstate.obj
 0001:0003ba04       ?AfxActivateActCtx@@YGHPAXPAK@Z 0043ca04 f   nafxcw:afxstate.obj
 0001:0003ba14       ?AfxDeactivateActCtx@@YGHKK@Z 0043ca14 f   nafxcw:afxstate.obj
 0001:0003ba24       ?AfxActivateActCtxWrapper@@YG?AW4eActCtxResult@@PAXPAK@Z 0043ca24 f   nafxcw:afxstate.obj
 0001:0003ba54       ?CreateActivationContext@AFX_MODULE_STATE@@QAEXXZ 0043ca54 f   nafxcw:afxstate.obj
 0001:0003bb41       ?Unlock@CTypeLibCache@@QAEXXZ 0043cb41 f   nafxcw:afxstate.obj
 0001:0003bb76       ??0_AFX_THREAD_STATE@@QAE@XZ 0043cb76 f   nafxcw:afxstate.obj
 0001:0003bb8f       ??1_AFX_THREAD_STATE@@UAE@XZ 0043cb8f f   nafxcw:afxstate.obj
 0001:0003bbc4       ??1AFX_MODULE_THREAD_STATE@@UAE@XZ 0043cbc4 f   nafxcw:afxstate.obj
 0001:0003bc70       ??_E_AFX_THREAD_STATE@@UAEPAXI@Z 0043cc70 f i nafxcw:afxstate.obj
 0001:0003bc70       ??_G_AFX_THREAD_STATE@@UAEPAXI@Z 0043cc70 f i nafxcw:afxstate.obj
 0001:0003bc8b       ??0AFX_MODULE_THREAD_STATE@@QAE@XZ 0043cc8b f   nafxcw:afxstate.obj
 0001:0003bcb5       ??_EAFX_MODULE_THREAD_STATE@@UAEPAXI@Z 0043ccb5 f i nafxcw:afxstate.obj
 0001:0003bcb5       ??_GAFX_MODULE_THREAD_STATE@@UAEPAXI@Z 0043ccb5 f i nafxcw:afxstate.obj
 0001:0003bcd0       ?AfxGetThreadState@@YGPAV_AFX_THREAD_STATE@@XZ 0043ccd0 f   nafxcw:afxstate.obj
 0001:0003bce9       ??1AFX_MODULE_STATE@@UAE@XZ 0043cce9 f   nafxcw:afxstate.obj
 0001:0003bd8c       ??0CDllIsolationWrapperBase@@QAE@ABV?$CStringT@DV?$StrTraitMFC@DV?$ChTraitsCRT@D@ATL@@@@@ATL@@@Z 0043cd8c f i nafxcw:afxstate.obj
 0001:0003bdaf       ??1CDllIsolationWrapperBase@@UAE@XZ 0043cdaf f i nafxcw:afxstate.obj
 0001:0003bdd3       ??_G_AFX_BASE_MODULE_STATE@@UAEPAXI@Z 0043cdd3 f i nafxcw:afxstate.obj
 0001:0003bdd3       ??_E_AFX_BASE_MODULE_STATE@@UAEPAXI@Z 0043cdd3 f i nafxcw:afxstate.obj
 0001:0003bdd3       ??_GAFX_MODULE_STATE@@UAEPAXI@Z 0043cdd3 f i nafxcw:afxstate.obj
 0001:0003bdd3       ??_EAFX_MODULE_STATE@@UAEPAXI@Z 0043cdd3 f i nafxcw:afxstate.obj
 0001:0003bdee       ??0CComCtlWrapper@@QAE@XZ  0043cdee f i nafxcw:afxstate.obj
 0001:0003c012       ??0CCommDlgWrapper@@QAE@XZ 0043d012 f i nafxcw:afxstate.obj
 0001:0003c095       ??_ECDllIsolationWrapperBase@@UAEPAXI@Z 0043d095 f i nafxcw:afxstate.obj
 0001:0003c095       ??_GCCommDlgWrapper@@UAEPAXI@Z 0043d095 f i nafxcw:afxstate.obj
 0001:0003c095       ??_ECComCtlWrapper@@UAEPAXI@Z 0043d095 f i nafxcw:afxstate.obj
 0001:0003c095       ??_GCDllIsolationWrapperBase@@UAEPAXI@Z 0043d095 f i nafxcw:afxstate.obj
 0001:0003c095       ??_ECCommDlgWrapper@@UAEPAXI@Z 0043d095 f i nafxcw:afxstate.obj
 0001:0003c095       ??_GCComCtlWrapper@@UAEPAXI@Z 0043d095 f i nafxcw:afxstate.obj
 0001:0003c0b0       ??0AFX_MODULE_STATE@@QAE@H@Z 0043d0b0 f   nafxcw:afxstate.obj
 0001:0003c1b9       ??0_AFX_BASE_MODULE_STATE@@QAE@XZ 0043d1b9 f i nafxcw:afxstate.obj
 0001:0003c1cd       ?CreateObject@?$CProcessLocal@V_AFX_BASE_MODULE_STATE@@@@SGPAVCNoTrackObject@@XZ 0043d1cd f i nafxcw:afxstate.obj
 0001:0003c1fc       ?AfxGetModuleState@@YGPAVAFX_MODULE_STATE@@XZ 0043d1fc f   nafxcw:afxstate.obj
 0001:0003c22f       ?AfxGetModuleThreadState@@YGPAVAFX_MODULE_THREAD_STATE@@XZ 0043d22f f   nafxcw:afxstate.obj
 0001:0003c248       ??0AFX_MAINTAIN_STATE2@@QAE@PAVAFX_MODULE_STATE@@@Z 0043d248 f   nafxcw:afxstate.obj
 0001:0003c27b       ?AfxGetStringManager@@YGPAUIAtlStringMgr@ATL@@XZ 0043d27b f   nafxcw:strcore.obj
 0001:0003c281       ?Allocate@CAfxStringMgr@@UAEPAUCStringData@ATL@@HH@Z 0043d281 f   nafxcw:strcore.obj
 0001:0003c2bc       ?Reallocate@CAfxStringMgr@@UAEPAUCStringData@ATL@@PAU23@HH@Z 0043d2bc f   nafxcw:strcore.obj
 0001:0003c2eb       ?Clone@CAfxStringMgr@@UAEPAUIAtlStringMgr@ATL@@XZ 0043d2eb f   nafxcw:strcore.obj
 0001:0003c2eb       ?GetActiveFrame@CFrameWnd@@UAEPAV1@XZ 0043d2eb f   nafxcw:winfrm.obj
 0001:0003c2ee       ?FreeHeap@?$CTempBuffer@_W$0IA@VCCRTAllocator@ATL@@@ATL@@AAEXXZ 0043d2ee f i nafxcw:strcore.obj
 0001:0003c2f7       ?AllocateHeap@?$CTempBuffer@_W$0IA@VCCRTAllocator@ATL@@@ATL@@AAEXI@Z 0043d2f7 f i nafxcw:strcore.obj
 0001:0003c318       ??0CAfxStringMgr@@QAE@XZ   0043d318 f i nafxcw:strcore.obj
 0001:0003c33b       ?GetNilString@CAfxStringMgr@@UAEPAUCStringData@ATL@@XZ 0043d33b f   nafxcw:strcore.obj
 0001:0003c349       ??1?$CTempBuffer@_W$0IA@VCCRTAllocator@ATL@@@ATL@@QAE@XZ 0043d349 f i nafxcw:strcore.obj
 0001:0003c356       ?AllocateBytes@?$CTempBuffer@_W$0IA@VCCRTAllocator@ATL@@@ATL@@QAEPA_WI@Z 0043d356 f i nafxcw:strcore.obj
 0001:0003c379       ??$?6DV?$StrTraitMFC@DV?$ChTraitsCRT@D@ATL@@@@@CArchive@@QAEAAV0@ABV?$CStringT@DV?$StrTraitMFC@DV?$ChTraitsCRT@D@ATL@@@@@ATL@@@Z 0043d379 f i nafxcw:strcore.obj
 0001:0003c3a2       ?Allocate@?$CTempBuffer@_W$0IA@VCCRTAllocator@ATL@@@ATL@@QAEPA_WI@Z 0043d3a2 f i nafxcw:strcore.obj
 0001:0003c3be       ??0?$CStringT@DV?$StrTraitMFC@DV?$ChTraitsCRT@D@ATL@@@@@ATL@@QAE@PBDH@Z 0043d3be f i nafxcw:strcore.obj
 0001:0003c3d9       ??0?$CStringT@DV?$StrTraitMFC@DV?$ChTraitsCRT@D@ATL@@@@@ATL@@QAE@PB_WH@Z 0043d3d9 f i nafxcw:strcore.obj
 0001:0003c446       ??$?5DV?$StrTraitMFC@DV?$ChTraitsCRT@D@ATL@@@@@CArchive@@QAEAAV0@AAV?$CStringT@DV?$StrTraitMFC@DV?$ChTraitsCRT@D@ATL@@@@@ATL@@@Z 0043d446 f i nafxcw:strcore.obj
 0001:0003c57d       ?Create@CStatic@@UAEHPBDKABUtagRECT@@PAVCWnd@@I@Z 0043d57d f   nafxcw:winctrl1.obj
 0001:0003c59f       ??1CStatic@@UAE@XZ         0043d59f f   nafxcw:winctrl1.obj
 0001:0003c5d0       ?OnChildNotify@CButton@@MAEHIIJPAJ@Z 0043d5d0 f   nafxcw:winctrl1.obj
 0001:0003c5d0       ?OnChildNotify@CStatic@@MAEHIIJPAJ@Z 0043d5d0 f   nafxcw:winctrl1.obj
 0001:0003c5f1       ?Create@CButton@@UAEHPBDKABUtagRECT@@PAVCWnd@@I@Z 0043d5f1 f   nafxcw:winctrl1.obj
 0001:0003c613       ??1CButton@@UAE@XZ         0043d613 f   nafxcw:winctrl1.obj
 0001:0003c644       ?Create@CComboBox@@UAEHKABUtagRECT@@PAVCWnd@@I@Z 0043d644 f   nafxcw:winctrl1.obj
 0001:0003c665       ??1CComboBox@@UAE@XZ       0043d665 f   nafxcw:winctrl1.obj
 0001:0003c696       ?OnChildNotify@CComboBox@@MAEHIIJPAJ@Z 0043d696 f   nafxcw:winctrl1.obj
 0001:0003c6f0       ?Create@CEdit@@QAEHKABUtagRECT@@PAVCWnd@@I@Z 0043d6f0 f   nafxcw:winctrl1.obj
 0001:0003c711       ??1CEdit@@UAE@XZ           0043d711 f   nafxcw:winctrl1.obj
 0001:0003c742       ?GetRuntimeClass@CStatic@@UBEPAUCRuntimeClass@@XZ 0043d742 f   nafxcw:winctrl1.obj
 0001:0003c748       ?GetRuntimeClass@CButton@@UBEPAUCRuntimeClass@@XZ 0043d748 f   nafxcw:winctrl1.obj
 0001:0003c74e       ?GetRuntimeClass@CComboBox@@UBEPAUCRuntimeClass@@XZ 0043d74e f   nafxcw:winctrl1.obj
 0001:0003c754       ?GetRuntimeClass@CEdit@@UBEPAUCRuntimeClass@@XZ 0043d754 f   nafxcw:winctrl1.obj
 0001:0003c75a       ?GetLBText@CComboBox@@QBEHHPAD@Z 0043d75a f i nafxcw:winctrl1.obj
 0001:0003c773       ?GetLBTextLen@CComboBox@@QBEHH@Z 0043d773 f i nafxcw:winctrl1.obj
 0001:0003c78a       ?GetLBText@CComboBox@@QBEXHAAV?$CStringT@DV?$StrTraitMFC@DV?$ChTraitsCRT@D@ATL@@@@@ATL@@@Z 0043d78a f   nafxcw:winctrl1.obj
 0001:0003c7bb       ?OnAmbientProperty@CWnd@@UAEHPAVCOleControlSite@@JPAUtagVARIANT@@@Z 0043d7bb f   nafxcw:winocc.obj
 0001:0003c7c3       ?GetControlUnknown@CWnd@@QAEPAUIUnknown@@XZ 0043d7c3 f   nafxcw:winocc.obj
 0001:0003c7cf       ?PaintWindowlessControls@CWnd@@QAEHPAVCDC@@@Z 0043d7cf f   nafxcw:winocc.obj
 0001:0003c7e5       ?GetOleControlSite@CWnd@@QBEPAVCOleControlSite@@I@Z 0043d7e5 f   nafxcw:winocc.obj
 0001:0003c7f8       ?GetDlgItem@CWnd@@QBEPAV1@H@Z 0043d7f8 f   nafxcw:winocc.obj
 0001:0003c81c       ?GetDlgItem@CWnd@@QBEXHPAPAUHWND__@@@Z 0043d81c f   nafxcw:winocc.obj
 0001:0003c840       ?IsDialogMessageA@CWnd@@QAEHPAUtagMSG@@@Z 0043d840 f   nafxcw:winocc.obj
 0001:0003c872       ?GetStyle@CWnd@@QBEKXZ     0043d872 f   nafxcw:winocc.obj
 0001:0003c88c       ?GetExStyle@CWnd@@QBEKXZ   0043d88c f   nafxcw:winocc.obj
 0001:0003c8a6       ?ModifyStyle@CWnd@@QAEHKKI@Z 0043d8a6 f   nafxcw:winocc.obj
 0001:0003c8d0       ?ModifyStyleEx@CWnd@@QAEHKKI@Z 0043d8d0 f   nafxcw:winocc.obj
 0001:0003c8fa       ?SetWindowTextA@CWnd@@QAEXPBD@Z 0043d8fa f   nafxcw:winocc.obj
 0001:0003c93b       ?GetDlgCtrlID@CWnd@@QBEHXZ 0043d93b f   nafxcw:winocc.obj
 0001:0003c956       ?SetDlgCtrlID@CWnd@@QAEHH@Z 0043d956 f   nafxcw:winocc.obj
 0001:0003c979       ?MoveWindow@CWnd@@QAEXHHHHH@Z 0043d979 f   nafxcw:winocc.obj
 0001:0003c9b7       ?ShowWindow@CWnd@@QAEHH@Z  0043d9b7 f   nafxcw:winocc.obj
 0001:0003c9d8       ?IsWindowEnabled@CWnd@@QBEHXZ 0043d9d8 f   nafxcw:winocc.obj
 0001:0003c9f3       ?EnableWindow@CWnd@@QAEHH@Z 0043d9f3 f   nafxcw:winocc.obj
 0001:0003ca14       ?SetFocus@CWnd@@QAEPAV1@XZ 0043da14 f   nafxcw:winocc.obj
 0001:0003ca35       ?InvokeHelper@CWnd@@QAAXJGGPAXPBEZZ 0043da35 f   nafxcw:winocc.obj
 0001:0003ca5c       ?GetProperty@CWnd@@QBEXJGPAX@Z 0043da5c f   nafxcw:winocc.obj
 0001:0003ca7e       ?AttachControlSite@CWnd@@QAEXPAV1@I@Z 0043da7e f   nafxcw:winocc.obj
 0001:0003caa3       ?GetStyle@COleControlSiteOrWnd@@QBEKXZ 0043daa3 f   nafxcw:winocc.obj
 0001:0003cabc       ?IsDisabled@CDlgGroupRadioButtonIterator@@SA_NPBUCOleControlSiteOrWnd@@@Z 0043dabc f i nafxcw:winocc.obj
 0001:0003caff       ?AttachControlSite@COleControlContainer@@UAEXPAVCWnd@@I@Z 0043daff f   nafxcw:winocc.obj
 0001:0003cb3f       ??0?$CTypedPtrListIterator@VCPtrList@@PAUCOleControlSiteOrWnd@@@@QAE@ABV0@@Z 0043db3f f i nafxcw:winocc.obj
 0001:0003cb5b       ??4?$CTypedPtrListIterator@VCPtrList@@PAUCOleControlSiteOrWnd@@@@QAEAAV0@ABV0@@Z 0043db5b f i nafxcw:winocc.obj
 0001:0003cb75       ?GetNext@CPtrList@@QBEPBXAAPAU__POSITION@@@Z 0043db75 f i nafxcw:winocc.obj
 0001:0003cb8e       ?GetPrev@CPtrList@@QAEAAPAXAAPAU__POSITION@@@Z 0043db8e f i nafxcw:winocc.obj
 0001:0003cba8       ?GetPrev@CPtrList@@QBEPBXAAPAU__POSITION@@@Z 0043dba8 f i nafxcw:winocc.obj
 0001:0003cbc2       ?SetWindowPos@CWnd@@QAEHPBV1@HHHHI@Z 0043dbc2 f   nafxcw:winocc.obj
 0001:0003cbfe       ?AttachControlSite@CWnd@@IAEXPAVCHandleMap@@@Z 0043dbfe f   nafxcw:winocc.obj
 0001:0003cc3f       ?GetPrev@?$_CTypedPtrList@VCPtrList@@PAUCOleControlSiteOrWnd@@@@QAEAAPAUCOleControlSiteOrWnd@@AAPAU__POSITION@@@Z 0043dc3f f i nafxcw:winocc.obj
 0001:0003cc44       ?GetNextDlgTabItem@CWnd@@QBEPAUCOleControlSiteOrWnd@@PAU2@H@Z 0043dc44 f   nafxcw:winocc.obj
 0001:0003cd87       ?RemoveRadioCheckFromGroup@CWnd@@QBEXPBUCOleControlSiteOrWnd@@@Z 0043dd87 f   nafxcw:winocc.obj
 0001:0003ce97       ?Skip@?$CTypedPtrListIterator@VCPtrList@@PAUCOleControlSiteOrWnd@@@@QBE?AV1@H@Z 0043de97 f i nafxcw:winocc.obj
 0001:0003ced1       ?GetWindowTextA@CWnd@@QBEHPADH@Z 0043ded1 f   nafxcw:winocc.obj
 0001:0003cf4a       ?Skip@CDlgControlIterator@@QBE?AV1@H@Z 0043df4a f i nafxcw:winocc.obj
 0001:0003cf6b       ?GetFirstButton@CDlgGroupRadioButtonIterator@@QBE?AVCDlgControlIterator@@XZ 0043df6b f i nafxcw:winocc.obj
 0001:0003cfd1       ?GetLastButton@CDlgGroupRadioButtonIterator@@QBE?AVCDlgControlIterator@@XZ 0043dfd1 f i nafxcw:winocc.obj
 0001:0003d02c       ?FindSiteOrWnd@CWnd@@QBEPAU__POSITION@@PBUCOleControlSiteOrWnd@@@Z 0043e02c f   nafxcw:winocc.obj
 0001:0003d075       ?FindSiteOrWndWithFocus@CWnd@@QBEPAU__POSITION@@XZ 0043e075 f   nafxcw:winocc.obj
 0001:0003d0e7       ?MoveNext@CDlgGroupRadioButtonIterator@@QAEXXZ 0043e0e7 f i nafxcw:winocc.obj
 0001:0003d162       ?MovePrev@CDlgGroupRadioButtonIterator@@QAEXXZ 0043e162 f i nafxcw:winocc.obj
 0001:0003d1dd       ?GetPrevDlgGroupItem@CWnd@@QBEPAUCOleControlSiteOrWnd@@PAU2@@Z 0043e1dd f   nafxcw:winocc.obj
 0001:0003d22b       ?GetNextDlgGroupItem@CWnd@@QBEPAUCOleControlSiteOrWnd@@PAU2@@Z 0043e22b f   nafxcw:winocc.obj
 0001:0003d279       ?SetAttribDC@CDC@@UAEXPAUHDC__@@@Z 0043e279 f   nafxcw:wingdi.obj
 0001:0003d283       ?SetOutputDC@CDC@@UAEXPAUHDC__@@@Z 0043e283 f   nafxcw:wingdi.obj
 0001:0003d28d       ?ReleaseAttribDC@CDC@@UAEXXZ 0043e28d f   nafxcw:wingdi.obj
 0001:0003d292       ?ReleaseOutputDC@CDC@@UAEXXZ 0043e292 f   nafxcw:wingdi.obj
 0001:0003d297       ?SaveDC@CDC@@UAEHXZ        0043e297 f   nafxcw:wingdi.obj
 0001:0003d2c8       ?RestoreDC@CDC@@UAEHH@Z    0043e2c8 f   nafxcw:wingdi.obj
 0001:0003d306       ?SetBkColor@CDC@@UAEKK@Z   0043e306 f   nafxcw:wingdi.obj
 0001:0003d335       ?SetBkMode@CDC@@QAEHH@Z    0043e335 f   nafxcw:wingdi.obj
 0001:0003d363       ?SetTextColor@CDC@@UAEKK@Z 0043e363 f   nafxcw:wingdi.obj
 0001:0003d392       ?SetMapMode@CDC@@UAEHH@Z   0043e392 f   nafxcw:wingdi.obj
 0001:0003d3c0       ?GetClipBox@CDC@@UBEHPAUtagRECT@@@Z 0043e3c0 f   nafxcw:wingdi.obj
 0001:0003d3d0       ?GetRuntimeClass@CResourceException@@UBEPAUCRuntimeClass@@XZ 0043e3d0 f   nafxcw:wingdi.obj
 0001:0003d3d6       ?GetRuntimeClass@CUserException@@UBEPAUCRuntimeClass@@XZ 0043e3d6 f   nafxcw:wingdi.obj
 0001:0003d3dc       ?GetRuntimeClass@CDC@@UBEPAUCRuntimeClass@@XZ 0043e3dc f   nafxcw:wingdi.obj
 0001:0003d3e2       ?GetRuntimeClass@CClientDC@@UBEPAUCRuntimeClass@@XZ 0043e3e2 f   nafxcw:wingdi.obj
 0001:0003d3e8       ?GetRuntimeClass@CWindowDC@@UBEPAUCRuntimeClass@@XZ 0043e3e8 f   nafxcw:wingdi.obj
 0001:0003d3ee       ?GetRuntimeClass@CPaintDC@@UBEPAUCRuntimeClass@@XZ 0043e3ee f   nafxcw:wingdi.obj
 0001:0003d3f4       ?GetRuntimeClass@CGdiObject@@UBEPAUCRuntimeClass@@XZ 0043e3f4 f   nafxcw:wingdi.obj
 0001:0003d3fa       ?GetRuntimeClass@CPen@@UBEPAUCRuntimeClass@@XZ 0043e3fa f   nafxcw:wingdi.obj
 0001:0003d400       ?GetRuntimeClass@CBrush@@UBEPAUCRuntimeClass@@XZ 0043e400 f   nafxcw:wingdi.obj
 0001:0003d406       ?GetRuntimeClass@CFont@@UBEPAUCRuntimeClass@@XZ 0043e406 f   nafxcw:wingdi.obj
 0001:0003d40c       ?GetRuntimeClass@CBitmap@@UBEPAUCRuntimeClass@@XZ 0043e40c f   nafxcw:wingdi.obj
 0001:0003d412       ?GetRuntimeClass@CRgn@@UBEPAUCRuntimeClass@@XZ 0043e412 f   nafxcw:wingdi.obj
 0001:0003d418       ?AfxThrowResourceException@@YGXXZ 0043e418 f   nafxcw:wingdi.obj
 0001:0003d432       ?AfxThrowUserException@@YGXXZ 0043e432 f   nafxcw:wingdi.obj
 0001:0003d44c       ?Destruct@?$ConstructDestruct@VCMenu@@@@SGXPAVCObject@@@Z 0043e44c f i nafxcw:winmenu.obj
 0001:0003d44c       ?Destruct@?$ConstructDestruct@VCWnd@@@@SGXPAVCObject@@@Z 0043e44c f i nafxcw:wincore.obj
 0001:0003d44c       ?Destruct@?$ConstructDestruct@VCGdiObject@@@@SGXPAVCObject@@@Z 0043e44c f i nafxcw:wingdi.obj
 0001:0003d44c       ?Destruct@?$ConstructDestruct@VCImageList@@@@SGXPAVCObject@@@Z 0043e44c f i nafxcw:winctrl2.obj
 0001:0003d44c       ?Destruct@?$ConstructDestruct@VCDC@@@@SGXPAVCObject@@@Z 0043e44c f i nafxcw:wingdi.obj
 0001:0003d45a       ?GetViewportExt@CDC@@QBE?AVCSize@@XZ 0043e45a f i nafxcw:wingdi.obj
 0001:0003d47e       ?GetWindowExt@CDC@@QBE?AVCSize@@XZ 0043e47e f i nafxcw:wingdi.obj
 0001:0003d4a2       ??0CDC@@QAE@XZ             0043e4a2 f   nafxcw:wingdi.obj
 0001:0003d4b6       ?PtVisible@CDC@@UBEHHH@Z   0043e4b6 f i nafxcw:wingdi.obj
 0001:0003d4ca       ?RectVisible@CDC@@UBEHPBUtagRECT@@@Z 0043e4ca f i nafxcw:wingdi.obj
 0001:0003d4da       ?TextOutA@CDC@@UAEHHHPBDH@Z 0043e4da f i nafxcw:wingdi.obj
 0001:0003d4f6       ?ExtTextOutA@CDC@@UAEHHHIPBUtagRECT@@PBDIPAH@Z 0043e4f6 f i nafxcw:wingdi.obj
 0001:0003d51b       ?TabbedTextOutA@CDC@@UAE?AVCSize@@HHPBDHHPAHH@Z 0043e51b f i nafxcw:wingdi.obj
 0001:0003d553       ?DrawTextA@CDC@@UAEHPBDHPAUtagRECT@@I@Z 0043e553 f i nafxcw:wingdi.obj
 0001:0003d56f       ?DrawTextExA@CDC@@UAEHPADHPAUtagRECT@@IPAUtagDRAWTEXTPARAMS@@@Z 0043e56f f i nafxcw:wingdi.obj
 0001:0003d58e       ?GrayStringA@CDC@@UAEHPAVCBrush@@P6GHPAUHDC__@@JH@ZJHHHHH@Z 0043e58e f i nafxcw:wingdi.obj
 0001:0003d5be       ?Escape@CDC@@UAEHHHPBDPAX@Z 0043e5be f i nafxcw:wingdi.obj
 0001:0003d5da       ?SetViewportOrg@CDC@@UAE?AVCPoint@@HH@Z 0043e5da f   nafxcw:wingdi.obj
 0001:0003d617       ?OffsetViewportOrg@CDC@@UAE?AVCPoint@@HH@Z 0043e617 f   nafxcw:wingdi.obj
 0001:0003d654       ?SetViewportExt@CDC@@UAE?AVCSize@@HH@Z 0043e654 f   nafxcw:wingdi.obj
 0001:0003d691       ?ScaleViewportExt@CDC@@UAE?AVCSize@@HHHH@Z 0043e691 f   nafxcw:wingdi.obj
 0001:0003d6da       ?SetWindowExt@CDC@@UAE?AVCSize@@HH@Z 0043e6da f   nafxcw:wingdi.obj
 0001:0003d717       ?ScaleWindowExt@CDC@@UAE?AVCSize@@HHHH@Z 0043e717 f   nafxcw:wingdi.obj
 0001:0003d760       ?SelectClipRgn@CDC@@QAEHPAVCRgn@@@Z 0043e760 f   nafxcw:wingdi.obj
 0001:0003d7a0       ?ScreenToClient@CWnd@@QBEXPAUtagRECT@@@Z 0043e7a0 f   nafxcw:wingdi.obj
 0001:0003d7dc       ?ClientToScreen@CWnd@@QBEXPAUtagRECT@@@Z 0043e7dc f   nafxcw:wingdi.obj
 0001:0003d818       ?SelectClipRgn@CDC@@QAEHPAVCRgn@@H@Z 0043e818 f   nafxcw:wingdi.obj
 0001:0003d860       ?LPtoDP@CDC@@QBEXPAUtagSIZE@@@Z 0043e860 f   nafxcw:wingdi.obj
 0001:0003d8c9       ?DPtoLP@CDC@@QBEXPAUtagSIZE@@@Z 0043e8c9 f   nafxcw:wingdi.obj
 0001:0003d932       ?CreateObject@CDC@@SGPAVCObject@@XZ 0043e932 f   nafxcw:wingdi.obj
 0001:0003d953       ?CreateObject@CGdiObject@@SGPAVCObject@@XZ 0043e953 f   nafxcw:wingdi.obj
 0001:0003d96d       ?Construct@?$ConstructDestruct@VCDC@@@@SGXPAVCObject@@@Z 0043e96d f i nafxcw:wingdi.obj
 0001:0003d989       ?Construct@?$ConstructDestruct@VCGdiObject@@@@SGXPAVCObject@@@Z 0043e989 f i nafxcw:wingdi.obj
 0001:0003d99e       ??_GCResourceException@@UAEPAXI@Z 0043e99e f i nafxcw:wingdi.obj
 0001:0003d99e       ??_ECResourceException@@UAEPAXI@Z 0043e99e f i nafxcw:wingdi.obj
 0001:0003d9bb       ??_GCUserException@@UAEPAXI@Z 0043e9bb f i nafxcw:wingdi.obj
 0001:0003d9bb       ??_ECUserException@@UAEPAXI@Z 0043e9bb f i nafxcw:wingdi.obj
 0001:0003d9d8       ?afxMapHDC@@YGPAVCHandleMap@@H@Z 0043e9d8 f   nafxcw:wingdi.obj
 0001:0003da4c       ?FromHandle@CDC@@SGPAV1@PAUHDC__@@@Z 0043ea4c f   nafxcw:wingdi.obj
 0001:0003da5a       ?Attach@CDC@@QAEHPAUHDC__@@@Z 0043ea5a f   nafxcw:wingdi.obj
 0001:0003da8d       ?Detach@CDC@@QAEPAUHDC__@@XZ 0043ea8d f   nafxcw:wingdi.obj
 0001:0003dabe       ?DeleteDC@CDC@@QAEHXZ      0043eabe f   nafxcw:wingdi.obj
 0001:0003dad4       ??1CDC@@UAE@XZ             0043ead4 f   nafxcw:wingdi.obj
 0001:0003daed       ??0CClientDC@@QAE@PAVCWnd@@@Z 0043eaed f   nafxcw:wingdi.obj
 0001:0003db41       ??1CClientDC@@UAE@XZ       0043eb41 f   nafxcw:wingdi.obj
 0001:0003db7c       ??0CWindowDC@@QAE@PAVCWnd@@@Z 0043eb7c f   nafxcw:wingdi.obj
 0001:0003dbd0       ??1CWindowDC@@UAE@XZ       0043ebd0 f   nafxcw:wingdi.obj
 0001:0003dc0b       ??0CPaintDC@@QAE@PAVCWnd@@@Z 0043ec0b f   nafxcw:wingdi.obj
 0001:0003dc5f       ??1CPaintDC@@UAE@XZ        0043ec5f f   nafxcw:wingdi.obj
 0001:0003dc9f       ?afxMapHGDIOBJ@@YGPAVCHandleMap@@H@Z 0043ec9f f   nafxcw:wingdi.obj
 0001:0003dd13       ?FromHandle@CGdiObject@@SGPAV1@PAX@Z 0043ed13 f   nafxcw:wingdi.obj
 0001:0003dd21       ?Attach@CGdiObject@@QAEHPAX@Z 0043ed21 f   nafxcw:wingdi.obj
 0001:0003dd4a       ?Detach@CGdiObject@@QAEPAXXZ 0043ed4a f   nafxcw:wingdi.obj
 0001:0003dd74       ?DeleteObject@CGdiObject@@QAEHXZ 0043ed74 f   nafxcw:wingdi.obj
 0001:0003dd8a       ?CreatePatternBrush@CBrush@@QAEHPAVCBitmap@@@Z 0043ed8a f i nafxcw:wingdi.obj
 0001:0003ddab       ?CreateBitmap@CBitmap@@QAEHHHIIPBX@Z 0043edab f i nafxcw:wingdi.obj
 0001:0003ddd3       ??_GCDC@@UAEPAXI@Z         0043edd3 f i nafxcw:wingdi.obj
 0001:0003ddd3       ??_ECDC@@UAEPAXI@Z         0043edd3 f i nafxcw:wingdi.obj
 0001:0003ddef       ?SelectGdiObject@CDC@@KGPAVCGdiObject@@PAUHDC__@@PAX@Z 0043edef f   nafxcw:wingdi.obj
 0001:0003de06       ?SelectStockObject@CDC@@UAEPAVCGdiObject@@H@Z 0043ee06 f   nafxcw:wingdi.obj
 0001:0003de42       ?SelectObject@CDC@@QAEPAVCBrush@@PAV2@@Z 0043ee42 f   nafxcw:wingdi.obj
 0001:0003de42       ?SelectObject@CDC@@QAEPAVCPen@@PAV2@@Z 0043ee42 f   nafxcw:wingdi.obj
 0001:0003de42       ?SelectObject@CDC@@UAEPAVCFont@@PAV2@@Z 0043ee42 f   nafxcw:wingdi.obj
 0001:0003de88       ??_GCClientDC@@UAEPAXI@Z   0043ee88 f i nafxcw:wingdi.obj
 0001:0003de88       ??_ECClientDC@@UAEPAXI@Z   0043ee88 f i nafxcw:wingdi.obj
 0001:0003dea4       ??_ECWindowDC@@UAEPAXI@Z   0043eea4 f i nafxcw:wingdi.obj
 0001:0003dea4       ??_GCWindowDC@@UAEPAXI@Z   0043eea4 f i nafxcw:wingdi.obj
 0001:0003dec0       ??_ECPaintDC@@UAEPAXI@Z    0043eec0 f i nafxcw:wingdi.obj
 0001:0003dec0       ??_GCPaintDC@@UAEPAXI@Z    0043eec0 f i nafxcw:wingdi.obj
 0001:0003dedc       ??0CPen@@QAE@HHK@Z         0043eedc f   nafxcw:wingdi.obj
 0001:0003df25       ??0CBrush@@QAE@K@Z         0043ef25 f   nafxcw:wingdi.obj
 0001:0003df68       ?AfxGetGrayBitmap@@YGXABVCBitmap@@PAV1@K@Z 0043ef68 f   nafxcw:wingdi.obj
 0001:0003e1e5       ?AfxGetDitheredBitmap@@YGXABVCBitmap@@PAV1@KK@Z 0043f1e5 f   nafxcw:wingdi.obj
 0001:0003e4c8       ??1CListCtrl@@UAE@XZ       0043f4c8 f   nafxcw:winctrl2.obj
 0001:0003e4f9       ?GetItemRect@CListCtrl@@QBEHHPAUtagRECT@@I@Z 0043f4f9 f   nafxcw:winctrl2.obj
 0001:0003e519       ?SetItem@CListCtrl@@QAEHHHIPBDHIIJH@Z 0043f519 f   nafxcw:winctrl2.obj
 0001:0003e56d       ?SetItemState@CListCtrl@@QAEHHII@Z 0043f56d f   nafxcw:winctrl2.obj
 0001:0003e598       ?SetItemText@CListCtrl@@QAEHHHPBD@Z 0043f598 f   nafxcw:winctrl2.obj
 0001:0003e5c3       ?GetItemData@CListCtrl@@QBEKH@Z 0043f5c3 f   nafxcw:winctrl2.obj
 0001:0003e605       ?OnChildNotify@CListCtrl@@MAEHIIJPAJ@Z 0043f605 f   nafxcw:winctrl2.obj
 0001:0003e626       ?Create@CHeaderCtrl@@UAEHKABUtagRECT@@PAVCWnd@@I@Z 0043f626 f   nafxcw:winctrl2.obj
 0001:0003e657       ?CreateEx@CHeaderCtrl@@UAEHKKABUtagRECT@@PAVCWnd@@I@Z 0043f657 f   nafxcw:winctrl2.obj
 0001:0003e68d       ??1CHeaderCtrl@@UAE@XZ     0043f68d f   nafxcw:winctrl2.obj
 0001:0003e6be       ?OnChildNotify@CHeaderCtrl@@MAEHIIJPAJ@Z 0043f6be f   nafxcw:winctrl2.obj
 0001:0003e6df       ?GetRuntimeClass@CHeaderCtrl@@UBEPAUCRuntimeClass@@XZ 0043f6df f   nafxcw:winctrl2.obj
 0001:0003e6e5       ?GetRuntimeClass@CListCtrl@@UBEPAUCRuntimeClass@@XZ 0043f6e5 f   nafxcw:winctrl2.obj
 0001:0003e6eb       ?GetRuntimeClass@CImageList@@UBEPAUCRuntimeClass@@XZ 0043f6eb f   nafxcw:winctrl2.obj
 0001:0003e6f1       ?GetSubItemRect@CListCtrl@@QAEHHHHAAVCRect@@@Z 0043f6f1 f   nafxcw:winctrl2.obj
 0001:0003e733       ?InsertColumn@CListCtrl@@QAEHHPBDHHH@Z 0043f733 f   nafxcw:winctrl2.obj
 0001:0003e786       ?InsertItem@CListCtrl@@QAEHIHPBDIIHJ@Z 0043f786 f   nafxcw:winctrl2.obj
 0001:0003e7d2       ?SetItem@CListCtrl@@QAEHHHIPBDHIIJ@Z 0043f7d2 f   nafxcw:winctrl2.obj
 0001:0003e7f8       ??0CImageList@@QAE@XZ      0043f7f8 f   nafxcw:winctrl2.obj
 0001:0003e805       ?CreateObject@CImageList@@SGPAVCObject@@XZ 0043f805 f   nafxcw:winctrl2.obj
 0001:0003e81f       ?Construct@?$ConstructDestruct@VCImageList@@@@SGXPAVCObject@@@Z 0043f81f f i nafxcw:winctrl2.obj
 0001:0003e834       ?GetProcAddress_ImageList_Create@CComCtlWrapper@@QAE?AUImageList_Create_Type@1@XZ 0043f834 f i nafxcw:winctrl2.obj
 0001:0003e85e       ?_ImageList_Create@CComCtlWrapper@@QAEPAU_IMAGELIST@@HHIHH@Z 0043f85e f i nafxcw:winctrl2.obj
 0001:0003e915       ?GetProcAddress_ImageList_Destroy@CComCtlWrapper@@QAE?AUImageList_Destroy_Type@1@XZ 0043f915 f i nafxcw:winctrl2.obj
 0001:0003e93f       ?_ImageList_Destroy@CComCtlWrapper@@QAEHPAU_IMAGELIST@@@Z 0043f93f f i nafxcw:winctrl2.obj
 0001:0003e9ea       ?AfxImageList_Create@@YGPAU_IMAGELIST@@HHIHH@Z 0043f9ea f i nafxcw:winctrl2.obj
 0001:0003ea0f       ?AfxImageList_Destroy@@YGHPAU_IMAGELIST@@@Z 0043fa0f f i nafxcw:winctrl2.obj
 0001:0003ea25       ?afxMapHIMAGELIST@@YGPAVCHandleMap@@H@Z 0043fa25 f   nafxcw:winctrl2.obj
 0001:0003ea99       ?Detach@CImageList@@QAEPAU_IMAGELIST@@XZ 0043fa99 f   nafxcw:winctrl2.obj
 0001:0003eac3       ?DeleteImageList@CImageList@@QAEHXZ 0043fac3 f   nafxcw:winctrl2.obj
 0001:0003ead8       ?FromHandle@CImageList@@SGPAV1@PAU_IMAGELIST@@@Z 0043fad8 f   nafxcw:winctrl2.obj
 0001:0003eae6       ?FromHandlePermanent@CImageList@@SGPAV1@PAU_IMAGELIST@@@Z 0043fae6 f   nafxcw:winctrl2.obj
 0001:0003eb00       ?Attach@CImageList@@QAEHPAU_IMAGELIST@@@Z 0043fb00 f   nafxcw:winctrl2.obj
 0001:0003eb2d       ?RemoveImageList@CListCtrl@@IAEXH@Z 0043fb2d f   nafxcw:winctrl2.obj
 0001:0003eb66       ?OnNcDestroy@CListCtrl@@IAEXXZ 0043fb66 f   nafxcw:winctrl2.obj
 0001:0003eb8a       ?Create@CImageList@@QAEHHHIHH@Z 0043fb8a f   nafxcw:winctrl2.obj
 0001:0003ebb1       ?GetThisMessageMap@CListCtrl@@KGPBUAFX_MSGMAP@@XZ 0043fbb1 f   nafxcw:winctrl2.obj
 0001:0003ebb1       ?GetMessageMap@CListCtrl@@MBEPBUAFX_MSGMAP@@XZ 0043fbb1 f   nafxcw:winctrl2.obj
 0001:0003ebb7       ?GetItemText@CListCtrl@@QBE?AV?$CStringT@DV?$StrTraitMFC@DV?$ChTraitsCRT@D@ATL@@@@@ATL@@HH@Z 0043fbb7 f   nafxcw:winctrl2.obj
 0001:0003ec37       ??1CImageList@@UAE@XZ      0043fc37 f   nafxcw:winctrl2.obj
 0001:0003ed25       ??_GCImageList@@UAEPAXI@Z  0043fd25 f i nafxcw:winctrl2.obj
 0001:0003ed25       ??_ECImageList@@UAEPAXI@Z  0043fd25 f i nafxcw:winctrl2.obj
 0001:0003ed41       ??0CToolTipCtrl@@QAE@XZ    0043fd41 f   nafxcw:tooltip.obj
 0001:0003ed73       ?CreateEx@CToolTipCtrl@@UAEHPAVCWnd@@KK@Z 0043fd73 f   nafxcw:tooltip.obj
 0001:0003eda8       ??1CToolTipCtrl@@UAE@XZ    0043fda8 f   nafxcw:tooltip.obj
 0001:0003ede8       ?DestroyToolTipCtrl@CToolTipCtrl@@UAEHXZ 0043fde8 f   nafxcw:tooltip.obj
 0001:0003edfe       ?GetRuntimeClass@CToolTipCtrl@@UBEPAUCRuntimeClass@@XZ 0043fdfe f   nafxcw:tooltip.obj
 0001:0003ee04       ?SetOwner@CWnd@@QAEXPAV1@@Z 0043fe04 f i nafxcw:tooltip.obj
 0001:0003ee19       ??_GCToolTipCtrl@@UAEPAXI@Z 0043fe19 f i nafxcw:tooltip.obj
 0001:0003ee19       ??_ECToolTipCtrl@@UAEPAXI@Z 0043fe19 f i nafxcw:tooltip.obj
 0001:0003ee35       ?Create@CToolTipCtrl@@UAEHPAVCWnd@@K@Z 0043fe35 f   nafxcw:tooltip.obj
 0001:0003ee8b       ?OnAddTool@CToolTipCtrl@@IAEJIJ@Z 0043fe8b f   nafxcw:tooltip.obj
 0001:0003ef08       ?OnDisableModal@CToolTipCtrl@@IAEJIJ@Z 0043ff08 f   nafxcw:tooltip.obj
 0001:0003ef1f       ?OnEnable@CToolTipCtrl@@IAEXH@Z 0043ff1f f   nafxcw:tooltip.obj
 0001:0003ef36       ?OnWindowFromPoint@CToolTipCtrl@@IAEJIJ@Z 0043ff36 f   nafxcw:tooltip.obj
 0001:0003efa9       ?FillInToolInfo@CToolTipCtrl@@QBEXAAUtagTOOLINFOA@@PAVCWnd@@I@Z 0043ffa9 f   nafxcw:tooltip.obj
 0001:0003effc       ?_AfxRelayToolTipMessage@@YGXPAVCToolTipCtrl@@PAUtagMSG@@@Z 0043fffc f   nafxcw:tooltip.obj
 0001:0003f07a       ?AddTool@CToolTipCtrl@@QAEHPAVCWnd@@PBDPBUtagRECT@@I@Z 0044007a f   nafxcw:tooltip.obj
 0001:0003f0d0       ?UpdateTipText@CToolTipCtrl@@QAEXPBDPAVCWnd@@I@Z 004400d0 f   nafxcw:tooltip.obj
 0001:0003f131       ?FilterToolTipMessage@CWnd@@QAEXPAUtagMSG@@@Z 00440131 f   nafxcw:tooltip.obj
 0001:0003f547       ?GetMessageMap@CToolTipCtrl@@MBEPBUAFX_MSGMAP@@XZ 00440547 f   nafxcw:tooltip.obj
 0001:0003f54d       ?_FilterToolTipMessage@CWnd@@SGXPAUtagMSG@@PAV1@@Z 0044054d f   nafxcw:tooltip.obj
 0001:0003f55d       ?_EnableToolTips@CWnd@@QAEHHI@Z 0044055d f   nafxcw:tooltip.obj
 0001:0003f5f7       ?EnableToolTips@CWnd@@QAEHH@Z 004405f7 f   nafxcw:tooltip.obj
 0001:0003f605       ?GetHeaderCtrl@CListCtrl@@QAEPAVCHeaderCtrl@@XZ 00440605 f   nafxcw:winctrl6.obj
 0001:0003f623       ?FillSolidRect@CDC@@QAEXPBUtagRECT@@K@Z 00440623 f   nafxcw:wingdix.obj
 0001:0003f663       ?DPtoHIMETRIC@CDC@@QBEXPAUtagSIZE@@@Z 00440663 f   nafxcw:wingdix.obj
 0001:0003f6f1       ?HIMETRICtoDP@CDC@@QBEXPAUtagSIZE@@@Z 004406f1 f   nafxcw:wingdix.obj
 0001:0003f77f       ?FillSolidRect@CDC@@QAEXHHHHK@Z 0044077f f   nafxcw:wingdix.obj
 0001:0003f7cb       ?Draw3dRect@CDC@@QAEXHHHHKK@Z 004407cb f   nafxcw:wingdix.obj
 0001:0003f835       ?Draw3dRect@CDC@@QAEXPBUtagRECT@@KK@Z 00440835 f   nafxcw:wingdix.obj
 0001:0003f860       ?AfxLoadString@@YGHIPADI@Z 00440860 f   nafxcw:winstr.obj
 0001:0003f8b7       ?AfxFindStringResourceHandle@@YGPAUHINSTANCE__@@I@Z 004408b7 f   nafxcw:winstr.obj
 0001:0003f8c2       ?AfxExtractSubString@@YGHAAV?$CStringT@DV?$StrTraitMFC@DV?$ChTraitsCRT@D@ATL@@@@@ATL@@PBDHD@Z 004408c2 f   nafxcw:winstr.obj
 0001:0003f945       ?GetOFN@CFileDialog@@QAEAAUtagOFNA@@XZ 00440945 f   nafxcw:dlgfile.obj
 0001:0003f949       ?OnLBSelChangedNotify@CFileDialog@@MAEXIII@Z 00440949 f   nafxcw:dlgfile.obj
 0001:0003f94c       ?GetRuntimeClass@CFileDialog@@UBEPAUCRuntimeClass@@XZ 0044094c f   nafxcw:dlgfile.obj
 0001:0003f952       ??1CCommonDialog@@UAE@XZ   00440952 f i nafxcw:dlgfile.obj
 0001:0003f957       ?SetControlText@CFileDialog@@QAEXHPBD@Z 00440957 f   nafxcw:dlgfile.obj
 0001:0003f97f       ?HideControl@CFileDialog@@QAEXH@Z 0044097f f   nafxcw:dlgfile.obj
 0001:0003f9a5       ?OnInitDone@CFileDialog@@MAEXXZ 004409a5 f   nafxcw:dlgfile.obj
 0001:0003f9be       ?OnNotify@CFileDialog@@MAEHIJPAJ@Z 004409be f   nafxcw:dlgfile.obj
 0001:0003fa9c       ?GetProcAddress_GetOpenFileNameA@CCommDlgWrapper@@QAE?AUGetOpenFileNameA_Type@1@XZ 00440a9c f i nafxcw:dlgfile.obj
 0001:0003fac6       ?_GetOpenFileNameA@CCommDlgWrapper@@QAEHPAUtagOFNA@@@Z 00440ac6 f i nafxcw:dlgfile.obj
 0001:0003fb71       ?GetProcAddress_GetSaveFileNameA@CCommDlgWrapper@@QAE?AUGetSaveFileNameA_Type@1@XZ 00440b71 f i nafxcw:dlgfile.obj
 0001:0003fb9b       ?_GetSaveFileNameA@CCommDlgWrapper@@QAEHPAUtagOFNA@@@Z 00440b9b f i nafxcw:dlgfile.obj
 0001:0003fc46       ?AfxCtxGetOpenFileNameA@@YGHPAUtagOFNA@@@Z 00440c46 f i nafxcw:dlgfile.obj
 0001:0003fc5d       ?AfxCtxGetSaveFileNameA@@YGHPAUtagOFNA@@@Z 00440c5d f i nafxcw:dlgfile.obj
 0001:0003fc74       ?DoModal@CFileDialog@@UAEHXZ 00440c74 f   nafxcw:dlgfile.obj
 0001:0003fd5f       ??1CFileDialog@@UAE@XZ     00440d5f f   nafxcw:dlgfile.obj
 0001:0003fd84       ??_ECFileDialog@@UAEPAXI@Z 00440d84 f i nafxcw:dlgfile.obj
 0001:0003fd84       ??_GCFileDialog@@UAEPAXI@Z 00440d84 f i nafxcw:dlgfile.obj
 0001:0003fda0       ?GetFolderPath@CFileDialog@@QBE?AV?$CStringT@DV?$StrTraitMFC@DV?$ChTraitsCRT@D@ATL@@@@@ATL@@XZ 00440da0 f   nafxcw:dlgfile.obj
 0001:0003fe16       ??0CFileDialog@@QAE@HPBD0K0PAVCWnd@@K@Z 00440e16 f   nafxcw:dlgfile.obj
 0001:0003ffc2       ?GetEventSinkMap@CHtmlView@@MBEPBUAFX_EVENTSINKMAP@@XZ 00440fc2 f   nafxcw:viewhtml.obj
 0001:0003ffc8       ?PreCreateWindow@CHtmlView@@UAEHAAUtagCREATESTRUCTA@@@Z 00440fc8 f   nafxcw:viewhtml.obj
 0001:0003ffdc       ?GetInterfaceMap@CHtmlControlSite@@MBEPBUAFX_INTERFACEMAP@@XZ 00440fdc f   nafxcw:viewhtml.obj
 0001:0003ffe2       ?GetExternal@XDocHostUIHandler@CHtmlControlSite@@UAGJPAPAUIDispatch@@@Z 00440fe2 f   nafxcw:viewhtml.obj
 0001:00040009       ?ShowContextMenu@XDocHostUIHandler@CHtmlControlSite@@UAGJKPAUtagPOINT@@PAUIUnknown@@PAUIDispatch@@@Z 00441009 f   nafxcw:viewhtml.obj
 0001:0004003b       ?OnShowContextMenu@CHtmlView@@UAEJKPAUtagPOINT@@PAUIUnknown@@PAUIDispatch@@@Z 0044103b f   nafxcw:viewhtml.obj
 0001:00040041       ?GetHostInfo@XDocHostUIHandler@CHtmlControlSite@@UAGJPAU_DOCHOSTUIINFO@@@Z 00441041 f   nafxcw:viewhtml.obj
 0001:00040068       ?DiscardUndoState@XOleIPSite@COleControlSite@@UAGJXZ 00441068 f   nafxcw:occsite.obj
 0001:00040068       ?GetInterfaceHook@CCmdTarget@@UAEPAUIUnknown@@PBX@Z 00441068 f   nafxcw:cmdtarg.obj
 0001:00040068       ?OnShareViolation@CFileDialog@@MAEIPBD@Z 00441068 f   nafxcw:dlgfile.obj
 0001:00040068       ?OnFrameWindowActivate@CHtmlView@@UAEJH@Z 00441068 f   nafxcw:viewhtml.obj
 0001:00040068       ?SetOccDialogInfo@CWnd@@MAEHPAU_AFX_OCC_DIALOG_INFO@@@Z 00441068 f   nafxcw:wincore.obj
 0001:00040068       ?CanInPlaceActivate@XOleIPSite@COleControlSite@@UAGJXZ 00441068 f   nafxcw:occsite.obj
 0001:00040068       ?OnEnableModeless@CHtmlView@@UAEJH@Z 00441068 f   nafxcw:viewhtml.obj
 0001:00040068       ?Release@XNotifyDBEvents@COleControlSite@@UAGKXZ 00441068 f   nafxcw:occsite.obj
 0001:00040068       ?OnDocWindowActivate@CHtmlView@@UAEJH@Z 00441068 f   nafxcw:viewhtml.obj
 0001:00040068       ?Release@XRowsetNotify@COleControlSite@@UAGKXZ 00441068 f   nafxcw:occsite.obj
 0001:00040068       ?Release@XEventSink@COleControlSite@@UAGKXZ 00441068 f   nafxcw:occsite.obj
 0001:00040068       ?CreateSite@COccManager@@UAEPAVCOleControlSite@@PAVCOleControlContainer@@@Z 00441068 f   nafxcw:occmgr.obj
 0001:00040068       ?CompareItem@CComboBox@@UAEHPAUtagCOMPAREITEMSTRUCT@@@Z 00441068 f   nafxcw:winctrl1.obj
 0001:00040068       ?GetExtraConnectionPoints@CCmdTarget@@MAEHPAVCPtrArray@@@Z 00441068 f   nafxcw:cmdtarg.obj
 0001:00040068       ?OnInPlaceActivate@XOleIPSite@COleControlSite@@UAGJXZ 00441068 f   nafxcw:occsite.obj
 0001:00040068       ?Release@XPropertyNotifySink@COleControlSite@@UAGKXZ 00441068 f   nafxcw:occsite.obj
 0001:00040068       ?IsSelected@CView@@UBEHPBVCObject@@@Z 00441068 f   nafxcw:viewcore.obj
 0001:00040068       ?OnGetHostInfo@CHtmlView@@UAEJPAU_DOCHOSTUIINFO@@@Z 00441068 f   nafxcw:viewhtml.obj
 0001:00040068       ?Release@CArchiveStream@@UAGKXZ 00441068 f   nafxcw:arcstrm.obj
 0001:00040068       ?GetDispatchIID@CCmdTarget@@UAEHPAU_GUID@@@Z 00441068 f   nafxcw:cmdtarg.obj
 0001:00040068       ?GetConnectionHook@CCmdTarget@@MAEPAUIConnectionPoint@@ABU_GUID@@@Z 00441068 f   nafxcw:cmdtarg.obj
 0001:00040068       ?GetScrollBarCtrl@CWnd@@UBEPAVCScrollBar@@H@Z 00441068 f   nafxcw:wincore.obj
 0001:0004006d       ?ShowUI@XDocHostUIHandler@CHtmlControlSite@@UAGJKPAUIOleInPlaceActiveObject@@PAUIOleCommandTarget@@PAUIOleInPlaceFrame@@PAUIOleInPlaceUIWindow@@@Z 0044106d f   nafxcw:viewhtml.obj
 0001:000400a2       ?OnShowUI@CHtmlView@@UAEJKPAUIOleInPlaceActiveObject@@PAUIOleCommandTarget@@PAUIOleInPlaceFrame@@PAUIOleInPlaceUIWindow@@@Z 004410a2 f   nafxcw:viewhtml.obj
 0001:000400a8       ?HideUI@XDocHostUIHandler@CHtmlControlSite@@UAGJXZ 004410a8 f   nafxcw:viewhtml.obj
 0001:000400cb       ?UpdateUI@XDocHostUIHandler@CHtmlControlSite@@UAGJXZ 004410cb f   nafxcw:viewhtml.obj
 0001:000400ee       ?EnableModeless@XDocHostUIHandler@CHtmlControlSite@@UAGJH@Z 004410ee f   nafxcw:viewhtml.obj
 0001:00040115       ?OnDocWindowActivate@XDocHostUIHandler@CHtmlControlSite@@UAGJH@Z 00441115 f   nafxcw:viewhtml.obj
 0001:0004013c       ?OnFrameWindowActivate@XDocHostUIHandler@CHtmlControlSite@@UAGJH@Z 0044113c f   nafxcw:viewhtml.obj
 0001:00040163       ?ResizeBorder@XDocHostUIHandler@CHtmlControlSite@@UAGJPBUtagRECT@@PAUIOleInPlaceUIWindow@@H@Z 00441163 f   nafxcw:viewhtml.obj
 0001:00040192       ?OnResizeBorder@CHtmlView@@UAEJPBUtagRECT@@PAUIOleInPlaceUIWindow@@H@Z 00441192 f   nafxcw:viewhtml.obj
 0001:00040197       ?TranslateAcceleratorA@XDocHostUIHandler@CHtmlControlSite@@UAGJPAUtagMSG@@PBU_GUID@@K@Z 00441197 f   nafxcw:viewhtml.obj
 0001:000401c6       ?GetOptionKeyPath@XDocHostUIHandler@CHtmlControlSite@@UAGJPAPA_WK@Z 004411c6 f   nafxcw:viewhtml.obj
 0001:000401f1       ?OnFilterDataObject@CHtmlView@@UAEJPAUIDataObject@@PAPAU2@@Z 004411f1 f   nafxcw:viewhtml.obj
 0001:000401f1       ?OnGetDropTarget@CHtmlView@@UAEJPAUIDropTarget@@PAPAU2@@Z 004411f1 f   nafxcw:viewhtml.obj
 0001:000401f1       ?OnGetOptionKeyPath@CHtmlView@@UAEJPAPA_WK@Z 004411f1 f   nafxcw:viewhtml.obj
 0001:000401f7       ?GetDropTarget@XDocHostUIHandler@CHtmlControlSite@@UAGJPAUIDropTarget@@PAPAU3@@Z 004411f7 f   nafxcw:viewhtml.obj
 0001:00040222       ?TranslateUrl@XDocHostUIHandler@CHtmlControlSite@@UAGJKPA_WPAPA_W@Z 00441222 f   nafxcw:viewhtml.obj
 0001:00040251       ?FilterDataObject@XDocHostUIHandler@CHtmlControlSite@@UAGJPAUIDataObject@@PAPAU3@@Z 00441251 f   nafxcw:viewhtml.obj
 0001:0004027c       ?AddRef@XDocHostUIHandler@CHtmlControlSite@@UAGKXZ 0044127c f   nafxcw:viewhtml.obj
 0001:0004028e       ?Release@XDocHostUIHandler@CHtmlControlSite@@UAGKXZ 0044128e f   nafxcw:viewhtml.obj
 0001:000402a0       ?QueryInterface@XDocHostUIHandler@CHtmlControlSite@@UAGJABU_GUID@@PAPAX@Z 004412a0 f   nafxcw:viewhtml.obj
 0001:000402ba       ?OnNewWindow2@CHtmlView@@UAEXPAPAUIDispatch@@PAH@Z 004412ba f   nafxcw:viewhtml.obj
 0001:000402c4       ?OnToolBar@CHtmlView@@UAEXH@Z 004412c4 f   nafxcw:viewhtml.obj
 0001:000402c4       ?OnTheaterMode@CHtmlView@@UAEXH@Z 004412c4 f   nafxcw:viewhtml.obj
 0001:000402c4       ?DrawItem@CComboBox@@UAEXPAUtagDRAWITEMSTRUCT@@@Z 004412c4 f   nafxcw:winctrl1.obj
 0001:000402c4       ?DeleteItem@CComboBox@@UAEXPAUtagDELETEITEMSTRUCT@@@Z 004412c4 f   nafxcw:winctrl1.obj
 0001:000402c4       ?OnFullScreen@CHtmlView@@UAEXH@Z 004412c4 f   nafxcw:viewhtml.obj
 0001:000402c4       ?MeasureItem@CMenu@@UAEXPAUtagMEASUREITEMSTRUCT@@@Z 004412c4 f   nafxcw:winmenu.obj
 0001:000402c4       ?MeasureItem@CComboBox@@UAEXPAUtagMEASUREITEMSTRUCT@@@Z 004412c4 f   nafxcw:winctrl1.obj
 0001:000402c4       ?OnPropertyChange@CHtmlView@@UAEXPBD@Z 004412c4 f   nafxcw:viewhtml.obj
 0001:000402c4       ?OnNavigateComplete2@CHtmlView@@UAEXPBD@Z 004412c4 f   nafxcw:viewhtml.obj
 0001:000402c4       ?DrawItem@CMenu@@UAEXPAUtagDRAWITEMSTRUCT@@@Z 004412c4 f   nafxcw:winmenu.obj
 0001:000402c4       ?DrawItem@CListCtrl@@UAEXPAUtagDRAWITEMSTRUCT@@@Z 004412c4 f   nafxcw:winctrl2.obj
 0001:000402c4       ?SetText@CTestCmdUI@@UAEXPBD@Z 004412c4 f   nafxcw:wincore.obj
 0001:000402c4       ?OnStatusBar@CHtmlView@@UAEXH@Z 004412c4 f   nafxcw:viewhtml.obj
 0001:000402c4       ?SetCheck@CTestCmdUI@@UAEXH@Z 004412c4 f   nafxcw:wincore.obj
 0001:000402c4       ?OnMenuBar@CHtmlView@@UAEXH@Z 004412c4 f   nafxcw:viewhtml.obj
 0001:000402c4       ?OnTitleChange@CHtmlView@@UAEXPBD@Z 004412c4 f   nafxcw:viewhtml.obj
 0001:000402c4       ?OnSetFont@CDialog@@UAEXPAVCFont@@@Z 004412c4 f   nafxcw:dlgcore.obj
 0001:000402c4       ?OnDraw@CHtmlView@@UAEXPAVCDC@@@Z 004412c4 f   nafxcw:viewhtml.obj
 0001:000402c4       ?DrawItem@CHeaderCtrl@@UAEXPAUtagDRAWITEMSTRUCT@@@Z 004412c4 f   nafxcw:winctrl2.obj
 0001:000402c4       ?OnVisible@CHtmlView@@UAEXH@Z 004412c4 f   nafxcw:viewhtml.obj
 0001:000402c4       ?SetRadio@CTestCmdUI@@UAEXH@Z 004412c4 f   nafxcw:wincore.obj
 0001:000402c4       ?OnDocumentComplete@CHtmlView@@UAEXPBD@Z 004412c4 f   nafxcw:viewhtml.obj
 0001:000402c4       ?DrawItem@CStatic@@UAEXPAUtagDRAWITEMSTRUCT@@@Z 004412c4 f   nafxcw:winctrl1.obj
 0001:000402c4       ?DrawItem@CButton@@UAEXPAUtagDRAWITEMSTRUCT@@@Z 004412c4 f   nafxcw:winctrl1.obj
 0001:000402c7       ?OnBeforeNavigate2@CHtmlView@@UAEXPBDK0AAVCByteArray@@0PAH@Z 004412c7 f   nafxcw:viewhtml.obj
 0001:000402d1       ?OnStatusTextChange@CHtmlView@@UAEXPBD@Z 004412d1 f   nafxcw:viewhtml.obj
 0001:000402e4       ?OnNavigateError@CHtmlView@@UAEXPBD0KPAH@Z 004412e4 f   nafxcw:viewhtml.obj
 0001:000402ee       ?GetRuntimeClass@CHtmlView@@UBEPAUCRuntimeClass@@XZ 004412ee f   nafxcw:viewhtml.obj
 0001:000402f4       ?AtlComPtrAssign@ATL@@YGPAUIUnknown@@PAPAU2@PAU2@@Z 004412f4 f i nafxcw:viewhtml.obj
 0001:00040325       ??_9CHtmlView@@$BBNA@AE    00441325 f i nafxcw:viewhtml.obj
 0001:0004032d       ??_9CHtmlView@@$BBOA@AE    0044132d f i nafxcw:viewhtml.obj
 0001:00040335       ??_9CHtmlView@@$BBPA@AE    00441335 f i nafxcw:viewhtml.obj
 0001:0004033d       ??_9CHtmlView@@$BCAA@AE    0044133d f i nafxcw:viewhtml.obj
 0001:00040345       ??_9CHtmlView@@$BCBA@AE    00441345 f i nafxcw:viewhtml.obj
 0001:0004034d       ??_9CHtmlView@@$BBNE@AE    0044134d f i nafxcw:viewhtml.obj
 0001:00040355       ??_9CHtmlView@@$BBOE@AE    00441355 f i nafxcw:viewhtml.obj
 0001:0004035d       ??_9CHtmlView@@$BBPE@AE    0044135d f i nafxcw:viewhtml.obj
 0001:00040365       ??_9CHtmlView@@$BCAE@AE    00441365 f i nafxcw:viewhtml.obj
 0001:0004036d       ??_9CHtmlView@@$BCBE@AE    0044136d f i nafxcw:viewhtml.obj
 0001:00040375       ??_9CHtmlView@@$BBNI@AE    00441375 f i nafxcw:viewhtml.obj
 0001:0004037d       ??_9CHtmlView@@$BBOI@AE    0044137d f i nafxcw:viewhtml.obj
 0001:00040385       ??_9CHtmlView@@$BBPI@AE    00441385 f i nafxcw:viewhtml.obj
 0001:0004038d       ??_9CHtmlView@@$BCAI@AE    0044138d f i nafxcw:viewhtml.obj
 0001:00040395       ??_9CHtmlView@@$BCBI@AE    00441395 f i nafxcw:viewhtml.obj
 0001:0004039d       ??_9CHtmlView@@$BBMM@AE    0044139d f i nafxcw:viewhtml.obj
 0001:000403a5       ??_9CHtmlView@@$BBNM@AE    004413a5 f i nafxcw:viewhtml.obj
 0001:000403ad       ??_9CHtmlView@@$BBPM@AE    004413ad f i nafxcw:viewhtml.obj
 0001:000403b5       ??_9CHtmlView@@$BCBM@AE    004413b5 f i nafxcw:viewhtml.obj
 0001:000403bd       ??1CHtmlView@@UAE@XZ       004413bd f   nafxcw:viewhtml.obj
 0001:00040404       ?OnSize@CHtmlView@@IAEXIHH@Z 00441404 f   nafxcw:viewhtml.obj
 0001:0004047b       ??_GCHtmlControlSite@@UAEPAXI@Z 0044147b f i nafxcw:viewhtml.obj
 0001:0004047b       ??_ECHtmlControlSite@@UAEPAXI@Z 0044147b f i nafxcw:viewhtml.obj
 0001:0004049d       ?GetHtmlDocument@CHtmlView@@QBEPAUIDispatch@@XZ 0044149d f   nafxcw:viewhtml.obj
 0001:000404be       ??0?$CComQIPtr@UIHTMLDocument2@@$1?_GUID_332c4425_26cb_11d0_b483_00c04fd90119@@3U__s_GUID@@B@ATL@@QAE@PAUIUnknown@@@Z 004414be f i nafxcw:viewhtml.obj
 0001:000404dd       ??0CHtmlView@@IAE@XZ       004414dd f   nafxcw:viewhtml.obj
 0001:00040519       ??_GCHtmlView@@UAEPAXI@Z   00441519 f i nafxcw:viewhtml.obj
 0001:00040519       ??_ECHtmlView@@UAEPAXI@Z   00441519 f i nafxcw:viewhtml.obj
 0001:00040535       ??1?$CComPtr@UIAccessor@@@ATL@@QAE@XZ 00441535 f i nafxcw:occsite.obj
 0001:00040535       ??1?$CComQIPtr@UIHTMLDocument2@@$1?_GUID_332c4425_26cb_11d0_b483_00c04fd90119@@3U__s_GUID@@B@ATL@@QAE@XZ 00441535 f i nafxcw:viewhtml.obj
 0001:00040535       ??1?$CComPtr@UIUnknown@@@ATL@@QAE@XZ 00441535 f i nafxcw:occcont.obj
 0001:00040535       ??1?$CComQIPtr@UIOleCommandTarget@@$1?_GUID_b722bccb_4e68_101b_a2bc_00aa00404770@@3U__s_GUID@@B@ATL@@QAE@XZ 00441535 f i nafxcw:viewhtml.obj
 0001:00040535       ??1?$CComQIPtr@UIOleInPlaceActiveObject@@$1?_GUID_00000117_0000_0000_c000_000000000046@@3U__s_GUID@@B@ATL@@QAE@XZ 00441535 f i nafxcw:viewhtml.obj
 0001:00040535       ??1?$CComPtr@UIColumnsInfo@@@ATL@@QAE@XZ 00441535 f i nafxcw:occsite.obj
 0001:00040535       ??1?$CComPtr@UIAccessibleProxy@@@ATL@@QAE@XZ 00441535 f i nafxcw:wincore.obj
 0001:00040542       ?CreateObject@CHtmlView@@SGPAVCObject@@XZ 00441542 f   nafxcw:viewhtml.obj
 0001:00040572       ??0?$CComQIPtr@UIOleCommandTarget@@$1?_GUID_b722bccb_4e68_101b_a2bc_00aa00404770@@3U__s_GUID@@B@ATL@@QAE@PAUIUnknown@@@Z 00441572 f i nafxcw:viewhtml.obj
 0001:00040591       ??0?$CComQIPtr@UIOleInPlaceActiveObject@@$1?_GUID_00000117_0000_0000_c000_000000000046@@3U__s_GUID@@B@ATL@@QAE@PAUIUnknown@@@Z 00441591 f i nafxcw:viewhtml.obj
 0001:000405b0       ?OnFilePrint@CHtmlView@@QAEXXZ 004415b0 f   nafxcw:viewhtml.obj
 0001:00040626       ??0CHtmlControlSite@@QAE@PAVCOleControlContainer@@@Z 00441626 f   nafxcw:viewhtml.obj
 0001:00040648       ?CreateControlSite@CHtmlView@@UAEHPAVCOleControlContainer@@PAPAVCOleControlSite@@IABU_GUID@@@Z 00441648 f   nafxcw:viewhtml.obj
 0001:00040685       ?Create@CHtmlView@@UAEHPBD0KABUtagRECT@@PAVCWnd@@IPAUCCreateContext@@@Z 00441685 f   nafxcw:viewhtml.obj
 0001:0004073f       ?PreTranslateMessage@CHtmlView@@UAEHPAUtagMSG@@@Z 0044173f f   nafxcw:viewhtml.obj
 0001:000407dd       ?ExecFormsCommand@CHtmlView@@QAEJKPAUtagVARIANT@@0@Z 004417dd f   nafxcw:viewhtml.obj
 0001:00040892       ?QueryFormsCommand@CHtmlView@@QAEJKPAH00@Z 00441892 f   nafxcw:viewhtml.obj
 0001:0004097f       ?OnEditCopy@CHtmlView@@IAEXXZ 0044197f f   nafxcw:viewhtml.obj
 0001:0004098b       ?OnUpdateEditCopy@CHtmlView@@IAEXPAVCCmdUI@@@Z 0044198b f   nafxcw:viewhtml.obj
 0001:000409af       ?OnEditCut@CHtmlView@@IAEXXZ 004419af f   nafxcw:viewhtml.obj
 0001:000409bb       ?OnUpdateEditCut@CHtmlView@@IAEXPAVCCmdUI@@@Z 004419bb f   nafxcw:viewhtml.obj
 0001:000409df       ?OnEditPaste@CHtmlView@@IAEXXZ 004419df f   nafxcw:viewhtml.obj
 0001:000409eb       ?OnUpdateEditPaste@CHtmlView@@IAEXPAVCCmdUI@@@Z 004419eb f   nafxcw:viewhtml.obj
 0001:00040a0f       ?GetThisMessageMap@CHtmlView@@KGPBUAFX_MSGMAP@@XZ 00441a0f f   nafxcw:viewhtml.obj
 0001:00040a0f       ?GetMessageMap@CHtmlView@@MBEPBUAFX_MSGMAP@@XZ 00441a0f f   nafxcw:viewhtml.obj
 0001:00040a15       ?NavigateComplete2@CHtmlView@@MAEXPAUIDispatch@@PAUtagVARIANT@@@Z 00441a15 f   nafxcw:viewhtml.obj
 0001:00040a55       ?BeforeNavigate2@CHtmlView@@MAEXPAUIDispatch@@PAUtagVARIANT@@1111PAF@Z 00441a55 f   nafxcw:viewhtml.obj
 0001:00040b76       ?DocumentComplete@CHtmlView@@MAEXPAUIDispatch@@PAUtagVARIANT@@@Z 00441b76 f   nafxcw:viewhtml.obj
 0001:00040bb6       ?NavigateError@CHtmlView@@MAEXPAUIDispatch@@PAUtagVARIANT@@11PAF@Z 00441bb6 f   nafxcw:viewhtml.obj
 0001:00040c35       ??0CView@@IAE@XZ           00441c35 f   nafxcw:viewcore.obj
 0001:00040c45       ?PreCreateWindow@CView@@MAEHAAUtagCREATESTRUCTA@@@Z 00441c45 f   nafxcw:viewcore.obj
 0001:00040c7e       ?OnDestroy@CView@@IAEXXZ   00441c7e f   nafxcw:viewcore.obj
 0001:00040cac       ?PostNcDestroy@CView@@MAEXXZ 00441cac f   nafxcw:viewcore.obj
 0001:00040cac       ?PostNcDestroy@CFrameWnd@@MAEXXZ 00441cac f   nafxcw:winfrm.obj
 0001:00040cb8       ?OnPaint@CView@@IAEXXZ     00441cb8 f   nafxcw:viewcore.obj
 0001:00040d03       ?OnInitialUpdate@CView@@UAEXXZ 00441d03 f   nafxcw:viewcore.obj
 0001:00040d11       ?OnPrint@CView@@MAEXPAVCDC@@PAUCPrintInfo@@@Z 00441d11 f   nafxcw:viewcore.obj
 0001:00040d20       ?OnActivateView@CView@@MAEXHPAV1@0@Z 00441d20 f   nafxcw:viewcore.obj
 0001:00040d3e       ?OnBeginPrinting@CView@@MAEXPAVCDC@@PAUCPrintInfo@@@Z 00441d3e f   nafxcw:viewcore.obj
 0001:00040d3e       ?OnEndPrinting@CView@@MAEXPAVCDC@@PAUCPrintInfo@@@Z 00441d3e f   nafxcw:viewcore.obj
 0001:00040d3e       ?OnCommandStateChange@CHtmlView@@UAEXJH@Z 00441d3e f   nafxcw:viewhtml.obj
 0001:00040d3e       ?OnProgressChange@CHtmlView@@UAEXJJ@Z 00441d3e f   nafxcw:viewhtml.obj
 0001:00040d3e       ?OnActivateFrame@CView@@MAEXIPAVCFrameWnd@@@Z 00441d3e f   nafxcw:viewcore.obj
 0001:00040d41       ?OnDragScroll@CView@@UAEKKVCPoint@@@Z 00441d41 f   nafxcw:viewcore.obj
 0001:00040d49       ?OnDrop@CView@@UAEHPAVCOleDataObject@@KVCPoint@@@Z 00441d49 f   nafxcw:viewcore.obj
 0001:00040d49       ?OnDragOver@CView@@UAEKPAVCOleDataObject@@KVCPoint@@@Z 00441d49 f   nafxcw:viewcore.obj
 0001:00040d49       ?OnDragEnter@CView@@UAEKPAVCOleDataObject@@KVCPoint@@@Z 00441d49 f   nafxcw:viewcore.obj
 0001:00040d49       ?GetBufferPtr@CFile@@UAEIIIPAPAX0@Z 00441d49 f   nafxcw:filecore.obj
 0001:00040d4e       ?OnDropEx@CView@@UAEKPAVCOleDataObject@@KKVCPoint@@@Z 00441d4e f   nafxcw:viewcore.obj
 0001:00040d54       ??_9CView@@$BBFM@AE        00441d54 f i nafxcw:viewcore.obj
 0001:00040d5c       ??0CPushRoutingView@@QAE@PAVCView@@@Z 00441d5c f i nafxcw:viewcore.obj
 0001:00040d8e       ??1CPushRoutingView@@QAE@XZ 00441d8e f i nafxcw:viewcore.obj
 0001:00040dac       ?OnCreate@CView@@IAEHPAUtagCREATESTRUCTA@@@Z 00441dac f   nafxcw:viewcore.obj
 0001:00040ddc       ?OnCmdMsg@CView@@UAEHIHPAXPAUAFX_CMDHANDLERINFO@@@Z 00441ddc f   nafxcw:viewcore.obj
 0001:00040e43       ?OnUpdate@CView@@MAEXPAV1@JPAVCObject@@@Z 00441e43 f   nafxcw:viewcore.obj
 0001:00040e53       ?OnMouseActivate@CView@@IAEHPAVCWnd@@II@Z 00441e53 f   nafxcw:viewcore.obj
 0001:00040ec0       ?GetParentSplitter@CView@@SGPAVCSplitterWnd@@PBVCWnd@@H@Z 00441ec0 f   nafxcw:viewcore.obj
 0001:00040f26       ?GetScrollBarCtrl@CView@@UBEPAVCScrollBar@@H@Z 00441f26 f   nafxcw:viewcore.obj
 0001:00040f9f       ?OnUpdateSplitCmd@CView@@IAEXPAVCCmdUI@@@Z 00441f9f f   nafxcw:viewcore.obj
 0001:00040fd4       ?OnSplitCmd@CView@@IAEHI@Z 00441fd4 f   nafxcw:viewcore.obj
 0001:00040ff0       ?OnUpdateNextPaneMenu@CView@@IAEXPAVCCmdUI@@@Z 00441ff0 f   nafxcw:viewcore.obj
 0001:0004102e       ?OnNextPaneCmd@CView@@IAEHI@Z 0044202e f   nafxcw:viewcore.obj
 0001:00041058       ?OnPrepareDC@CView@@UAEXPAVCDC@@PAUCPrintInfo@@@Z 00442058 f   nafxcw:viewcore.obj
 0001:0004107d       ?OnEndPrintPreview@CView@@MAEXPAVCDC@@PAUCPrintInfo@@UtagPOINT@@PAVCPreviewView@@@Z 0044207d f   nafxcw:viewcore.obj
 0001:0004113a       ?GetThisMessageMap@CView@@KGPBUAFX_MSGMAP@@XZ 0044213a f   nafxcw:viewcore.obj
 0001:00041140       ??1CView@@UAE@XZ           00442140 f   nafxcw:viewcore.obj
 0001:0004127a       ?_AfxGetMouseScrollLines@@YGIXZ 0044227a f   nafxcw:viewscrl.obj
 0001:00041325       ??1CScrollView@@UAE@XZ     00442325 f   nafxcw:viewscrl.obj
 0001:0004136b       ?HwndMSWheel@@YAPAUHWND__@@PAI00PAH1@Z 0044236b f i nafxcw:viewscrl.obj
 0001:000413f9       ?ScrollToDevicePosition@CScrollView@@IAEXUtagPOINT@@@Z 004423f9 f   nafxcw:viewscrl.obj
 0001:0004144b       ?GetScrollBarSizes@CScrollView@@IAEXAAVCSize@@@Z 0044244b f   nafxcw:viewscrl.obj
 0001:000414a5       ?OnHScroll@CScrollView@@QAEXIIPAVCScrollBar@@@Z 004424a5 f   nafxcw:viewscrl.obj
 0001:000414ec       ?OnVScroll@CScrollView@@QAEXIIPAVCScrollBar@@@Z 004424ec f   nafxcw:viewscrl.obj
 0001:00041537       ?CheckScrollBars@CScrollView@@QBEXAAH0@Z 00442537 f   nafxcw:viewscrl.obj
 0001:000415a1       ?OnScrollBy@CScrollView@@UAEHVCSize@@H@Z 004425a1 f   nafxcw:viewscrl.obj
 0001:0004169d       ?GetRuntimeClass@CScrollView@@UBEPAUCRuntimeClass@@XZ 0044269d f   nafxcw:viewscrl.obj
 0001:000416a3       ?Ellipse@CDC@@QAEHPBUtagRECT@@@Z 004426a3 f i nafxcw:viewscrl.obj
 0001:000416be       ??0_AFX_MOUSEANCHORWND@@QAE@AAVCPoint@@@Z 004426be f   nafxcw:viewscrl.obj
 0001:000416e5       ??_E_AFX_MOUSEANCHORWND@@UAEPAXI@Z 004426e5 f i nafxcw:viewscrl.obj
 0001:000416e5       ??_G_AFX_MOUSEANCHORWND@@UAEPAXI@Z 004426e5 f i nafxcw:viewscrl.obj
 0001:00041707       ?PreTranslateMessage@_AFX_MOUSEANCHORWND@@UAEHPAUtagMSG@@@Z 00442707 f   nafxcw:viewscrl.obj
 0001:000417b6       ?SetBitmap@_AFX_MOUSEANCHORWND@@QAEXI@Z 004427b6 f   nafxcw:viewscrl.obj
 0001:000417dc       ?OnPaint@_AFX_MOUSEANCHORWND@@QAEXXZ 004427dc f   nafxcw:viewscrl.obj
 0001:00041842       ??0CScrollView@@IAE@XZ     00442842 f   nafxcw:viewscrl.obj
 0001:0004186d       ??_ECScrollView@@UAEPAXI@Z 0044286d f i nafxcw:viewscrl.obj
 0001:0004186d       ??_GCScrollView@@UAEPAXI@Z 0044286d f i nafxcw:viewscrl.obj
 0001:00041889       ?GetDeviceScrollPosition@CScrollView@@QBE?AVCPoint@@XZ 00442889 f   nafxcw:viewscrl.obj
 0001:000418af       ?GetWheelScrollDistance@CScrollView@@UAE?AVCSize@@V2@HH@Z 004428af f   nafxcw:viewscrl.obj
 0001:000418ec       ?GetTrueClientSize@CScrollView@@IAEHAAVCSize@@0@Z 004428ec f   nafxcw:viewscrl.obj
 0001:00041967       ?GetScrollBarState@CScrollView@@IAEXVCSize@@AAV2@1AAVCPoint@@H@Z 00442967 f   nafxcw:viewscrl.obj
 0001:00041a23       ?UpdateBars@CScrollView@@IAEXXZ 00442a23 f   nafxcw:viewscrl.obj
 0001:00041b9d       ?CalcWindowRect@CScrollView@@UAEXPAUtagRECT@@I@Z 00442b9d f   nafxcw:viewscrl.obj
 0001:00041c21       ?DoMouseWheel@CScrollView@@QAEHIFVCPoint@@@Z 00442c21 f   nafxcw:viewscrl.obj
 0001:00041ce0       ?OnScroll@CScrollView@@UAEHIIH@Z 00442ce0 f   nafxcw:viewscrl.obj
 0001:00041db2       ?OnTimer@_AFX_MOUSEANCHORWND@@QAEXI@Z 00442db2 f   nafxcw:viewscrl.obj
 0001:00041faa       ?OnPrepareDC@CScrollView@@UAEXPAVCDC@@PAUCPrintInfo@@@Z 00442faa f   nafxcw:viewscrl.obj
 0001:0004208a       ?SetScaleToFitSize@CScrollView@@QAEXUtagSIZE@@@Z 0044308a f   nafxcw:viewscrl.obj
 0001:00042115       ?SetScrollSizes@CScrollView@@QAEXHUtagSIZE@@ABU2@1@Z 00443115 f   nafxcw:viewscrl.obj
 0001:0004223a       ?OnSize@CScrollView@@QAEXIHH@Z 0044323a f   nafxcw:viewscrl.obj
 0001:00042260       ?OnMouseWheel@CScrollView@@QAEHIFVCPoint@@@Z 00443260 f   nafxcw:viewscrl.obj
 0001:00042294       ?GetMessageMap@_AFX_MOUSEANCHORWND@@MBEPBUAFX_MSGMAP@@XZ 00443294 f   nafxcw:viewscrl.obj
 0001:0004229a       ?Create@_AFX_MOUSEANCHORWND@@QAEHPAVCScrollView@@@Z 0044329a f   nafxcw:viewscrl.obj
 0001:000423aa       ?HandleMButtonDown@CScrollView@@QAEJIJ@Z 004433aa f   nafxcw:viewscrl.obj
 0001:000424c3       ?GetMessageMap@CScrollView@@MBEPBUAFX_MSGMAP@@XZ 004434c3 f   nafxcw:viewscrl.obj
 0001:000424c3       ?GetThisMessageMap@CScrollView@@KGPBUAFX_MSGMAP@@XZ 004434c3 f   nafxcw:viewscrl.obj
 0001:000424c9       ?OnInitialUpdate@CFormView@@UAEXXZ 004434c9 f   nafxcw:viewform.obj
 0001:000424db       ?OnCreate@CFormView@@IAEHPAUtagCREATESTRUCTA@@@Z 004434db f   nafxcw:viewform.obj
 0001:000424f0       ?SaveFocusControl@CFormView@@IAEHXZ 004434f0 f   nafxcw:viewform.obj
 0001:0004251e       ?OnSetFocus@CFormView@@IAEXPAVCWnd@@@Z 0044351e f   nafxcw:viewform.obj
 0001:00042564       ?PreTranslateMessage@CFormView@@MAEHPAUtagMSG@@@Z 00443564 f   nafxcw:viewform.obj
 0001:000425d5       ?OnDraw@CFormView@@MAEXPAVCDC@@@Z 004435d5 f   nafxcw:viewform.obj
 0001:000425da       ?HandleInitDialog@CFormView@@IAEJIJ@Z 004435da f   nafxcw:viewform.obj
 0001:0004260d       ?SetOccDialogInfo@CFormView@@MAEHPAU_AFX_OCC_DIALOG_INFO@@@Z 0044360d f   nafxcw:viewform.obj
 0001:0004261d       ?GetRuntimeClass@CFormView@@UBEPAUCRuntimeClass@@XZ 0044361d f   nafxcw:viewform.obj
 0001:00042623       ?GetThisMessageMap@CFormView@@KGPBUAFX_MSGMAP@@XZ 00443623 f   nafxcw:viewform.obj
 0001:00042623       ?GetMessageMap@CFormView@@MBEPBUAFX_MSGMAP@@XZ 00443623 f   nafxcw:viewform.obj
 0001:00042629       ??0CFormView@@IAE@PBD@Z    00443629 f   nafxcw:viewform.obj
 0001:0004265f       ?Create@CFormView@@MAEHPBD0KABUtagRECT@@PAVCWnd@@IPAUCCreateContext@@@Z 0044365f f   nafxcw:viewform.obj
 0001:00042785       ?OnActivateView@CFormView@@MAEXHPAVCView@@0@Z 00443785 f   nafxcw:viewform.obj
 0001:000427a8       ?OnActivateFrame@CFormView@@MAEXIPAVCFrameWnd@@@Z 004437a8 f   nafxcw:viewform.obj
 0001:000427b7       ?GetOccDialogInfo@CFormView@@MAEPAU_AFX_OCC_DIALOG_INFO@@XZ 004437b7 f   nafxcw:viewform.obj
 0001:0004282d       ??1CFormView@@UAE@XZ       0044382d f   nafxcw:viewform.obj
 0001:0004295a       ??_ECFormView@@UAEPAXI@Z   0044395a f i nafxcw:viewform.obj
 0001:0004295a       ??_GCFormView@@UAEPAXI@Z   0044395a f i nafxcw:viewform.obj
 0001:00042976       ?AfxCheckError@@YGXJ@Z     00443976 f   nafxcw:olevar.obj
 0001:00042993       ??0COleVariant@@QAE@FG@Z   00443993 f   nafxcw:olevar.obj
 0001:000429ba       ??0COleVariant@@QAE@JG@Z   004439ba f   nafxcw:olevar.obj
 0001:00042a1f       ?ChangeType@COleVariant@@QAEXGPAUtagVARIANT@@@Z 00443a1f f   nafxcw:olevar.obj
 0001:00042a4a       ??4COleVariant@@QAEABV0@ABUtagVARIANT@@@Z 00443a4a f   nafxcw:olevar.obj
 0001:00042a4a       ??4COleVariant@@QAEABV0@ABV0@@Z 00443a4a f   nafxcw:olevar.obj
 0001:00042a6a       ?AfxVariantInit@@YGXPAUtagVARIANT@@@Z 00443a6a f   nafxcw:olevar.obj
 0001:00042a7d       ??4COleSafeArray@@QAEAAV0@PBUtagVARIANT@@@Z 00443a7d f   nafxcw:olevar.obj
 0001:00042aa4       ?AccessData@COleSafeArray@@QAEXPAPAX@Z 00443aa4 f   nafxcw:olevar.obj
 0001:00042aba       ?UnaccessData@COleSafeArray@@QAEXXZ 00443aba f   nafxcw:olevar.obj
 0001:00042aca       ?GetLBound@COleSafeArray@@QAEXKPAJ@Z 00443aca f   nafxcw:olevar.obj
 0001:00042ae4       ?GetUBound@COleSafeArray@@QAEXKPAJ@Z 00443ae4 f   nafxcw:olevar.obj
 0001:00042afe       ?AfxSafeArrayInit@@YGXPAVCOleSafeArray@@@Z 00443afe f   nafxcw:olevar.obj
 0001:00042b18       ?AtlConvertSystemTimeToVariantTime@ATL@@YAHABU_SYSTEMTIME@@PAN@Z 00443b18 f i nafxcw:olevar.obj
 0001:00042baf       ??0CFixedStringMgr@ATL@@QAE@PAUCStringData@1@HPAUIAtlStringMgr@1@@Z 00443baf f i nafxcw:olevar.obj
 0001:00042bea       ??1CFixedStringMgr@ATL@@UAE@XZ 00443bea f i nafxcw:olevar.obj
 0001:00042bf1       ?Allocate@CFixedStringMgr@ATL@@UAEPAUCStringData@2@HH@Z 00443bf1 f i nafxcw:olevar.obj
 0001:00042c4a       ?Free@CFixedStringMgr@ATL@@UAEXPAUCStringData@2@@Z 00443c4a f i nafxcw:olevar.obj
 0001:00042c7e       ?Reallocate@CFixedStringMgr@ATL@@UAEPAUCStringData@2@PAU32@HH@Z 00443c7e f i nafxcw:olevar.obj
 0001:00042d1b       ?GetNilString@CFixedStringMgr@ATL@@UAEPAUCStringData@2@XZ 00443d1b f i nafxcw:olevar.obj
 0001:00042d1b       ?GetTailPosition@CPtrList@@QBEPAU__POSITION@@XZ 00443d1b f i nafxcw:winocc.obj
 0001:00042d1f       ??_GCFixedStringMgr@ATL@@UAEPAXI@Z 00443d1f f i nafxcw:olevar.obj
 0001:00042d1f       ??_ECFixedStringMgr@ATL@@UAEPAXI@Z 00443d1f f i nafxcw:olevar.obj
 0001:00042d3c       ?SetDateTime@COleDateTime@ATL@@QAEHHHHHHH@Z 00443d3c f i nafxcw:olevar.obj
 0001:00042d9c       ??0COleVariant@@QAE@ABV0@@Z 00443d9c f   nafxcw:olevar.obj
 0001:00042d9c       ??0COleVariant@@QAE@PBUtagVARIANT@@@Z 00443d9c f   nafxcw:olevar.obj
 0001:00042d9c       ??0COleVariant@@QAE@ABUtagVARIANT@@@Z 00443d9c f   nafxcw:olevar.obj
 0001:00042dbc       ??0COleSafeArray@@QAE@PBUtagVARIANT@@@Z 00443dbc f   nafxcw:olevar.obj
 0001:00042dee       ?GetOneDimSize@COleSafeArray@@QAEKXZ 00443dee f   nafxcw:olevar.obj
 0001:00042e2d       ?Create@COleSafeArray@@QAEXGKPAUtagSAFEARRAYBOUND@@@Z 00443e2d f   nafxcw:olevar.obj
 0001:00042e97       ??6CArchive@@QAEAAV0@E@Z   00443e97 f i nafxcw:olevar.obj
 0001:00042ecd       ??6CArchive@@QAEAAV0@_K@Z  00443ecd f i nafxcw:olevar.obj
 0001:00042f0d       ??6CArchive@@QAEAAV0@G@Z   00443f0d f i nafxcw:olevar.obj
 0001:00042f47       ??6CArchive@@QAEAAV0@K@Z   00443f47 f i nafxcw:olevar.obj
 0001:00042f80       ??5CArchive@@QAEAAV0@AAE@Z 00443f80 f i nafxcw:olevar.obj
 0001:00042fbf       ??5CArchive@@QAEAAV0@AA_K@Z 00443fbf f i nafxcw:olevar.obj
 0001:00043007       ??5CArchive@@QAEAAV0@AAG@Z 00444007 f i nafxcw:olevar.obj
 0001:0004304a       ??5CArchive@@QAEAAV0@AAK@Z 0044404a f i nafxcw:olevar.obj
 0001:0004308c       ?CreateOneDim@COleSafeArray@@QAEXGKPBXJ@Z 0044408c f   nafxcw:olevar.obj
 0001:000430fc       ?AllocSysString@?$CStringT@_WV?$StrTraitMFC@_WV?$ChTraitsCRT@_W@ATL@@@@@ATL@@QBEPA_WXZ 004440fc f i nafxcw:olevar.obj
 0001:00043112       ??1?$CFixedStringT@V?$CStringT@_WV?$StrTraitMFC@_WV?$ChTraitsCRT@_W@ATL@@@@@ATL@@$0BAA@@ATL@@UAE@XZ 00444112 f i nafxcw:olevar.obj
 0001:00043139       ??_E?$CFixedStringT@V?$CStringT@_WV?$StrTraitMFC@_WV?$ChTraitsCRT@_W@ATL@@@@@ATL@@$0BAA@@ATL@@UAEPAXI@Z 00444139 f i nafxcw:olevar.obj
 0001:00043139       ??_G?$CFixedStringT@V?$CStringT@_WV?$StrTraitMFC@_WV?$ChTraitsCRT@_W@ATL@@@@@ATL@@$0BAA@@ATL@@UAEPAXI@Z 00444139 f i nafxcw:olevar.obj
 0001:00043155       ??0?$CStringT@_WV?$StrTraitMFC@_WV?$ChTraitsCRT@_W@ATL@@@@@ATL@@QAE@PBDPAUIAtlStringMgr@1@@Z 00444155 f i nafxcw:olevar.obj
 0001:00043194       ??0?$CFixedStringT@V?$CStringT@_WV?$StrTraitMFC@_WV?$ChTraitsCRT@_W@ATL@@@@@ATL@@$0BAA@@ATL@@QAE@PBD@Z 00444194 f i nafxcw:olevar.obj
 0001:000431db       ??0COleVariant@@QAE@PBDG@Z 004441db f   nafxcw:olevar.obj
 0001:0004324d       ?AfxAbort@@YGXXZ           0044424d f   nafxcw:afxabort.obj
 0001:00043257       ?GetRuntimeClass@CStringArray@@UBEPAUCRuntimeClass@@XZ 00444257 f   nafxcw:array_s.obj
 0001:0004325d       ??0CStringArray@@QAE@XZ    0044425d f   nafxcw:array_s.obj
 0001:00043274       ?CreateObject@CStringArray@@SGPAVCObject@@XZ 00444274 f   nafxcw:array_s.obj
 0001:000432da       ?SetSize@CStringArray@@QAEXHH@Z 004442da f   nafxcw:array_s.obj
 0001:0004340e       ??1CStringArray@@UAE@XZ    0044440e f   nafxcw:array_s.obj
 0001:00043509       ??_GCStringArray@@UAEPAXI@Z 00444509 f i nafxcw:array_s.obj
 0001:00043509       ??_ECStringArray@@UAEPAXI@Z 00444509 f i nafxcw:array_s.obj
 0001:00043525       ?SetAtGrow@CStringArray@@QAEXHABV?$CStringT@DV?$StrTraitMFC@DV?$ChTraitsCRT@D@ATL@@@@@ATL@@@Z 00444525 f   nafxcw:array_s.obj
 0001:00043575       ?Serialize@CStringArray@@UAEXAAVCArchive@@@Z 00444575 f   nafxcw:array_s.obj
 0001:000435de       ?OnOK@CCommonDialog@@MAEXXZ 004445de f   nafxcw:dlgcomm.obj
 0001:000435f6       ?OnCancel@CCommonDialog@@MAEXXZ 004445f6 f   nafxcw:dlgcomm.obj
 0001:000435f6       ?OnPaint@CCommonDialog@@IAEXXZ 004445f6 f   nafxcw:dlgcomm.obj
 0001:000435f6       ?OnPaint@CHtmlView@@IAEXXZ 004445f6 f   nafxcw:viewhtml.obj
 0001:000435fb       ?OnHelpInfo@CCommonDialog@@IAEHPAUtagHELPINFO@@@Z 004445fb f   nafxcw:dlgcomm.obj
 0001:00043609       ?GetMessageMap@CCommonDialog@@MBEPBUAFX_MSGMAP@@XZ 00444609 f   nafxcw:dlgcomm.obj
 0001:00043609       ?GetThisMessageMap@CCommonDialog@@KGPBUAFX_MSGMAP@@XZ 00444609 f   nafxcw:dlgcomm.obj
 0001:0004360f       ?_AfxCommDlgProc@@YGIPAUHWND__@@IIJ@Z 0044460f f   nafxcw:dlgcomm.obj
 0001:000437b2       ?GetRuntimeClass@CPtrArray@@UBEPAUCRuntimeClass@@XZ 004447b2 f   nafxcw:array_p.obj
 0001:000437b8       ??0CPtrArray@@QAE@XZ       004447b8 f   nafxcw:array_p.obj
 0001:000437cf       ??1CPtrArray@@UAE@XZ       004447cf f   nafxcw:array_p.obj
 0001:000437df       ?InsertAt@CPtrArray@@QAEXHPAXH@Z 004447df f   nafxcw:array_p.obj
 0001:00043883       ??_GCPtrArray@@UAEPAXI@Z   00444883 f i nafxcw:array_p.obj
 0001:00043883       ??_ECPtrArray@@UAEPAXI@Z   00444883 f i nafxcw:array_p.obj
 0001:0004389f       ?PrepareCtrl@CDataExchange@@QAEPAUHWND__@@H@Z 0044489f f   nafxcw:dlgdata.obj
 0001:000438de       ?DDX_Control@@YGXPAVCDataExchange@@HAAVCWnd@@@Z 004448de f   nafxcw:dlgdata.obj
 0001:00043967       ?GetRuntimeClass@CObject@@UBEPAUCRuntimeClass@@XZ 00444967 f   nafxcw:objcore.obj
 0001:0004396d       ?CreateObject@CRuntimeClass@@QAEPAVCObject@@XZ 0044496d f   nafxcw:objcore.obj
 0001:000439b7       ?IsDerivedFrom@CRuntimeClass@@QBEHPBU1@@Z 004449b7 f   nafxcw:objcore.obj
 0001:000439de       ?IsKindOf@CObject@@QBEHPBUCRuntimeClass@@@Z 004449de f   nafxcw:objcore.obj
 0001:000439f6       ?AfxDynamicDownCast@@YAPAVCObject@@PAUCRuntimeClass@@PAV1@@Z 004449f6 f   nafxcw:objcore.obj
 0001:00043a16       ?AfxClassInit@@YGXPAUCRuntimeClass@@@Z 00444a16 f   nafxcw:objcore.obj
 0001:00043a3c       ?AfxBSTR2ABSTR@@YGPA_WPA_W@Z 00444a3c f   nafxcw:olecnvrt.obj
 0001:00043a9b       ?AfxBSTR2CString@@YGXPAV?$CStringT@DV?$StrTraitMFC@DV?$ChTraitsCRT@D@ATL@@@@@ATL@@PA_W@Z 00444a9b f   nafxcw:olecnvrt.obj
 0001:00043af0       ?_AfxRelease@@YGKPAPAUIUnknown@@@Z 00444af0 f   nafxcw:oleunk.obj
 0001:00043b0c       ?_AfxReleaseManagedRefs@@YGXPAUIUnknown@@@Z 00444b0c f   nafxcw:oleunk.obj
 0001:00043b62       ?GetInterface@CCmdTarget@@QAEPAUIUnknown@@PBX@Z 00444b62 f   nafxcw:oleunk.obj
 0001:00043c10       ?QueryAggregates@CCmdTarget@@QAEPAUIUnknown@@PBX@Z 00444c10 f   nafxcw:oleunk.obj
 0001:00043c70       ?ExternalAddRef@CCmdTarget@@QAEKXZ 00444c70 f   nafxcw:oleunk.obj
 0001:00043c8b       ?InternalRelease@CCmdTarget@@QAEKXZ 00444c8b f   nafxcw:oleunk.obj
 0001:00043ce1       ?ExternalRelease@CCmdTarget@@QAEKXZ 00444ce1 f   nafxcw:oleunk.obj
 0001:00043cf6       ?InternalQueryInterface@CCmdTarget@@QAEKPBXPAPAX@Z 00444cf6 f   nafxcw:oleunk.obj
 0001:00043d36       ?ExternalQueryInterface@CCmdTarget@@QAEKPBXPAPAX@Z 00444d36 f   nafxcw:oleunk.obj
 0001:00043d54       ?UpdateSysColors@AUX_DATA@@QAEXXZ 00444d54 f   nafxcw:auxdata.obj
 0001:00043d98       ?UpdateSysMetrics@AUX_DATA@@QAEXXZ 00444d98 f   nafxcw:auxdata.obj
 0001:00043df2       ??0AUX_DATA@@QAE@XZ        00444df2 f   nafxcw:auxdata.obj
 0001:00043e47       ??1AUX_DATA@@QAE@XZ        00444e47 f   nafxcw:auxdata.obj
 0001:00043f2f       ??2CNoTrackObject@@SGPAXI@Z 00444f2f f   nafxcw:afxtls.obj
 0001:00043f47       ??3CNoTrackObject@@SGXPAX@Z 00444f47 f   nafxcw:afxtls.obj
 0001:00043f57       ?GetThreadValue@CThreadSlotData@@QAEPAXH@Z 00444f57 f i nafxcw:afxtls.obj
 0001:00043fa4       ?GetDataNA@CThreadLocalObject@@QAEPAVCNoTrackObject@@XZ 00444fa4 f   nafxcw:afxtls.obj
 0001:00043fbe       ?GetData@CProcessLocalObject@@QAEPAVCNoTrackObject@@P6GPAV2@XZ@Z 00444fbe f   nafxcw:afxtls.obj
 0001:0004400e       ??1CProcessLocalObject@@QAE@XZ 0044500e f   nafxcw:afxtls.obj
 0001:00044035       ?GetNextPtr@CSimpleList@@QBEPAPAXPAX@Z 00445035 f i nafxcw:afxtls.obj
 0001:0004404b       ?AddHead@CSimpleList@@QAEXPAX@Z 0044504b f   nafxcw:afxtls.obj
 0001:00044064       ?Remove@CSimpleList@@QAEHPAX@Z 00445064 f   nafxcw:afxtls.obj
 0001:000440ca       ?AllocSlot@CThreadSlotData@@QAEHXZ 004450ca f   nafxcw:afxtls.obj
 0001:000441da       ??0CThreadSlotData@@QAE@XZ 004451da f   nafxcw:afxtls.obj
 0001:00044219       ?FreeSlot@CThreadSlotData@@QAEXH@Z 00445219 f   nafxcw:afxtls.obj
 0001:0004427c       ?SetValue@CThreadSlotData@@QAEXHPAX@Z 0044527c f   nafxcw:afxtls.obj
 0001:000443b1       ?DeleteValues@CThreadSlotData@@QAEXPAUCThreadData@@PAUHINSTANCE__@@@Z 004453b1 f   nafxcw:afxtls.obj
 0001:00044446       ?DeleteValues@CThreadSlotData@@QAEXPAUHINSTANCE__@@H@Z 00445446 f   nafxcw:afxtls.obj
 0001:0004449f       ?GetData@CThreadLocalObject@@QAEPAVCNoTrackObject@@P6GPAV2@XZ@Z 0044549f f   nafxcw:afxtls.obj
 0001:00044529       ??1CThreadLocalObject@@QAE@XZ 00445529 f   nafxcw:afxtls.obj
 0001:00044547       ?AfxTermLocalData@@YGXPAUHINSTANCE__@@H@Z 00445547 f   nafxcw:afxtls.obj
 0001:00044559       ??1CThreadSlotData@@QAE@XZ 00445559 f   nafxcw:afxtls.obj
 0001:000445b0       ?AfxTlsRelease@@YGXXZ      004455b0 f   nafxcw:afxtls.obj
 0001:000445d8       ?GetAppRegistryKey@CWinApp@@QAEPAUHKEY__@@XZ 004455d8 f   nafxcw:appui3.obj
 0001:00044669       ?GetSectionKey@CWinApp@@QAEPAUHKEY__@@PBD@Z 00445669 f   nafxcw:appui3.obj
 0001:000446af       ?WriteProfileInt@CWinApp@@QAEHPBD0H@Z 004456af f   nafxcw:appui3.obj
 0001:00044736       ?AfxSetWindowText@@YGXPAUHWND__@@PBD@Z 00445736 f   nafxcw:winutil.obj
 0001:000447cc       ?AfxDeleteObject@@YGXPAPAX@Z 004457cc f   nafxcw:winutil.obj
 0001:000447ee       ?AfxGlobalFree@@YGXPAX@Z   004457ee f   nafxcw:winutil.obj
 0001:00044821       ?AfxCriticalNewHandler@@YAHI@Z 00445821 f   nafxcw:winutil.obj
 0001:0004486e       ?_AfxIsComboBoxControl@@YGHPAUHWND__@@I@Z 0044586e f   nafxcw:winutil.obj
 0001:000448cc       ?_AfxCompareClassName@@YGHPAUHWND__@@PBD@Z 004458cc f   nafxcw:winutil.obj
 0001:00044910       ?_AfxChildWindowFromPoint@@YGPAUHWND__@@PAU1@UtagPOINT@@@Z 00445910 f   nafxcw:winutil.obj
 0001:00044982       ?AfxCancelModes@@YGXPAUHWND__@@@Z 00445982 f   nafxcw:winutil.obj
 0001:000449f9       ?AfxOleCanExitApp@@YGHXZ   004459f9 f   nafxcw:olelock.obj
 0001:00044a09       ?AfxOleLockApp@@YGXXZ      00445a09 f   nafxcw:olelock.obj
 0001:00044a19       ?AfxOleSetUserCtrl@@YGXH@Z 00445a19 f   nafxcw:olelock.obj
 0001:00044a28       ?AfxOleGetUserCtrl@@YGHXZ  00445a28 f   nafxcw:olelock.obj
 0001:00044a31       ?AfxOleOnReleaseAllObjects@@YGXXZ 00445a31 f   nafxcw:olelock.obj
 0001:00044a7d       ?AfxOleUnlockApp@@YGXXZ    00445a7d f   nafxcw:olelock.obj
 0001:00044a96       ?AfxCriticalInit@@YGHXZ    00445a96 f   nafxcw:afxcrit.obj
 0001:00044aba       ?AfxCriticalTerm@@YGXXZ    00445aba f   nafxcw:afxcrit.obj
 0001:00044aff       ?AfxLockGlobals@@YGXH@Z    00445aff f   nafxcw:afxcrit.obj
 0001:00044b6c       ?AfxUnlockGlobals@@YGXH@Z  00445b6c f   nafxcw:afxcrit.obj
 0001:00044b8c       ?AfxLockTempMaps@@YGXXZ    00445b8c f   nafxcw:winhand.obj
 0001:00044b95       ??0CHandleMap@@QAE@PAUCRuntimeClass@@P6GXPAVCObject@@@Z2IH@Z 00445b95 f   nafxcw:winhand.obj
 0001:00044c1e       ?FromHandle@CHandleMap@@QAEPAVCObject@@PAX@Z 00445c1e f   nafxcw:winhand.obj
 0001:00044cd1       ?DeleteTemp@CHandleMap@@QAEXXZ 00445cd1 f   nafxcw:winhand.obj
 0001:00044d34       ??1CHandleMap@@UAE@XZ      00445d34 f i nafxcw:winhand.obj
 0001:00044d81       ??_ECHandleMap@@UAEPAXI@Z  00445d81 f i nafxcw:winhand.obj
 0001:00044d81       ??_GCHandleMap@@UAEPAXI@Z  00445d81 f i nafxcw:winhand.obj
 0001:00044d9d       ?AfxUnlockTempMaps@@YGHH@Z 00445d9d f   nafxcw:winhand.obj
 0001:00044e96       ?HasFont@@YAHPBUDLGTEMPLATE@@@Z 00445e96 f i nafxcw:dlgtempl.obj
 0001:00044ead       ??1CDialogTemplate@@QAE@XZ 00445ead f   nafxcw:dlgtempl.obj
 0001:00044ebb       ?Detach@CDialogTemplate@@QAEPAXXZ 00445ebb f   nafxcw:dlgtempl.obj
 0001:00044ec1       ?GetFontSizeField@CDialogTemplate@@KAPAEPBUDLGTEMPLATE@@@Z 00445ec1 f   nafxcw:dlgtempl.obj
 0001:00044f0c       ?GetTemplateSize@CDialogTemplate@@KAIPBUDLGTEMPLATE@@@Z 00445f0c f   nafxcw:dlgtempl.obj
 0001:00044fd6       ?SetTemplate@CDialogTemplate@@IAEHPBUDLGTEMPLATE@@I@Z 00445fd6 f   nafxcw:dlgtempl.obj
 0001:00045034       ?SetFont@CDialogTemplate@@QAEHPBDG@Z 00446034 f   nafxcw:dlgtempl.obj
 0001:00045183       ?SetSystemFont@CDialogTemplate@@QAEHG@Z 00446183 f   nafxcw:dlgtempl.obj
 0001:00045225       ??0CDialogTemplate@@QAE@PBUDLGTEMPLATE@@@Z 00446225 f   nafxcw:dlgtempl.obj
 0001:0004525c       ?GetFont@CDialogTemplate@@SAHPBUDLGTEMPLATE@@AAV?$CStringT@DV?$StrTraitMFC@DV?$ChTraitsCRT@D@ATL@@@@@ATL@@AAG@Z 0044625c f   nafxcw:dlgtempl.obj
 0001:000452c0       ?GetEventSinkEntry@CCmdTarget@@IAGPBUAFX_EVENTSINKMAP_ENTRY@@IPAUAFX_EVENT@@@Z 004462c0 f   nafxcw:occevent.obj
 0001:00045335       ?OnEvent@CCmdTarget@@QAEHIPAUAFX_EVENT@@PAUAFX_CMDHANDLERINFO@@@Z 00446335 f   nafxcw:occevent.obj
 0001:0004553d       ?Create@CPlex@@SGPAU1@AAPAU1@II@Z 0044653d f   nafxcw:plex.obj
 0001:0004556e       ?FreeDataChain@CPlex@@QAEXXZ 0044656e f   nafxcw:plex.obj
 0001:00045584       ?GetRuntimeClass@CArchiveException@@UBEPAUCRuntimeClass@@XZ 00446584 f   nafxcw:arcex.obj
 0001:0004558a       ?GetErrorMessage@CArchiveException@@UBEHPADIPAI@Z 0044658a f   nafxcw:arcex.obj
 0001:00045641       ??0CArchiveException@@QAE@HPBD@Z 00446641 f i nafxcw:arcex.obj
 0001:00045685       ??_GCArchiveException@@UAEPAXI@Z 00446685 f i nafxcw:arcex.obj
 0001:00045685       ??_ECArchiveException@@UAEPAXI@Z 00446685 f i nafxcw:arcex.obj
 0001:000456ad       ?AfxThrowArchiveException@@YGXHPBD@Z 004466ad f   nafxcw:arcex.obj
 0001:000456f0       ?Abort@CArchive@@QAEXXZ    004466f0 f   nafxcw:arccore.obj
 0001:0004575b       ?Read@CArchive@@QAEIPAXI@Z 0044675b f   nafxcw:arccore.obj
 0001:0004588a       ?Flush@CArchive@@QAEXXZ    0044688a f   nafxcw:arccore.obj
 0001:00045901       ?FillBuffer@CArchive@@QAEXI@Z 00446901 f   nafxcw:arccore.obj
 0001:000459ee       ?AfxReadStringLength@@YGIAAVCArchive@@AAH@Z 004469ee f   nafxcw:arccore.obj
 0001:00045a97       ?AfxWriteStringLength@@YGXAAVCArchive@@IH@Z 00446a97 f   nafxcw:arccore.obj
 0001:00045b18       ?FromName@CRuntimeClass@@SGPAU1@PBD@Z 00446b18 f   nafxcw:arccore.obj
 0001:00045b66       ?Load@CRuntimeClass@@SGPAU1@AAVCArchive@@PAI@Z 00446b66 f   nafxcw:arccore.obj
 0001:00045bdb       ?Close@CArchive@@QAEXXZ    00446bdb f   nafxcw:arccore.obj
 0001:00045be9       ?Write@CArchive@@QAEXPBXI@Z 00446be9 f   nafxcw:arccore.obj
 0001:00045cae       ?WriteCount@CArchive@@QAEXK@Z 00446cae f   nafxcw:arccore.obj
 0001:00045cda       ?ReadCount@CArchive@@QAEKXZ 00446cda f   nafxcw:arccore.obj
 0001:00045d09       ?Store@CRuntimeClass@@QBEXAAVCArchive@@@Z 00446d09 f   nafxcw:arccore.obj
 0001:00045d42       ??1CArchive@@QAE@XZ        00446d42 f   nafxcw:arccore.obj
 0001:00045d80       ??0CArchive@@QAE@PAVCFile@@IHPAX@Z 00446d80 f   nafxcw:arccore.obj
 0001:00045e86       ?GetInterfaceMap@COleControlContainer@@MBEPBUAFX_INTERFACEMAP@@XZ 00446e86 f   nafxcw:occcont.obj
 0001:00045e8c       ?GetDispatchMap@COleControlContainer@@MBEPBUAFX_DISPMAP@@XZ 00446e8c f   nafxcw:occcont.obj
 0001:00045e92       ??1COleControlSiteOrWnd@@QAE@XZ 00446e92 f   nafxcw:occcont.obj
 0001:00045ea1       ?OnUIActivate@COleControlContainer@@UAEXPAVCOleControlSite@@@Z 00446ea1 f   nafxcw:occcont.obj
 0001:00045ec5       ?OnUIDeactivate@COleControlContainer@@UAEXPAVCOleControlSite@@@Z 00446ec5 f   nafxcw:occcont.obj
 0001:00045ede       ?CheckRadioButton@COleControlContainer@@UAEXHHH@Z 00446ede f   nafxcw:occcont.obj
 0001:00045f06       ?GetDlgItem@COleControlContainer@@UBEPAVCWnd@@H@Z 00446f06 f   nafxcw:occcont.obj
 0001:00045f21       ?GetDlgItemInt@COleControlContainer@@UBEIHPAHH@Z 00446f21 f   nafxcw:occcont.obj
 0001:00045fde       ?GetDlgItemTextA@COleControlContainer@@UBEHHPADH@Z 00446fde f   nafxcw:occcont.obj
 0001:00045ffd       ?SetDlgItemInt@COleControlContainer@@UAEXHIH@Z 00446ffd f   nafxcw:occcont.obj
 0001:00046056       ?SetDlgItemTextA@COleControlContainer@@UAEXHPBD@Z 00447056 f   nafxcw:occcont.obj
 0001:00046071       ?HandleSetFocus@COleControlContainer@@UAEHXZ 00447071 f   nafxcw:occcont.obj
 0001:0004607a       ?AfxGetDlgItemStartFromHWND@@YAPAUHWND__@@HPAU1@@Z 0044707a f   nafxcw:occcont.obj
 0001:000460a1       ?QueryInterface@XOleIPFrame@COleControlContainer@@UAGJABU_GUID@@PAPAX@Z 004470a1 f   nafxcw:occcont.obj
 0001:000460b8       ?Release@XOleIPFrame@COleControlContainer@@UAGKXZ 004470b8 f   nafxcw:occcont.obj
 0001:000460c7       ?GetWindow@XOleIPFrame@COleControlContainer@@UAGJPAPAUHWND__@@@Z 004470c7 f   nafxcw:occcont.obj
 0001:000460dc       ?SetActiveObject@XOleIPFrame@COleControlContainer@@UAGJPAUIOleInPlaceActiveObject@@PB_W@Z 004470dc f   nafxcw:occcont.obj
 0001:00046113       ?EnableModeless@XOleIPFrame@COleControlContainer@@UAGJH@Z 00447113 f   nafxcw:occcont.obj
 0001:00046113       ?OnFocus@XOleControlSite@COleControlSite@@UAGJH@Z 00447113 f   nafxcw:occsite.obj
 0001:00046113       ?GetWindow@CAccessibleProxy@ATL@@UAGJPAPAUHWND__@@@Z 00447113 f   nafxcw:wincore.obj
 0001:00046113       ?OnShowWindow@XOleClientSite@COleControlSite@@UAGJH@Z 00447113 f   nafxcw:occsite.obj
 0001:00046118       ?InsertMenus@XOleIPFrame@COleControlContainer@@UAGJPAUHMENU__@@PAUtagOleMenuGroupWidths@@@Z 00447118 f   nafxcw:occcont.obj
 0001:00046118       ?SetSize@CArchiveStream@@UAGJT_ULARGE_INTEGER@@@Z 00447118 f   nafxcw:arcstrm.obj
 0001:00046118       ?Stat@CArchiveStream@@UAGJPAUtagSTATSTG@@K@Z 00447118 f   nafxcw:arcstrm.obj
 0001:00046118       ?TranslateAcceleratorA@XOleIPFrame@COleControlContainer@@UAGJPAUtagMSG@@G@Z 00447118 f   nafxcw:occcont.obj
 0001:00046118       ?TranslateAcceleratorA@XOleControlSite@COleControlSite@@UAGJPAUtagMSG@@K@Z 00447118 f   nafxcw:occsite.obj
 0001:00046120       ??0CEnumUnknown@@QAE@PBXI@Z 00447120 f i nafxcw:occcont.obj
 0001:00046140       ?GetInterfaceMap@CEnumUnknown@@MBEPBUAFX_INTERFACEMAP@@XZ 00447140 f   nafxcw:occcont.obj
 0001:00046146       ??1CEnumUnknown@@UAE@XZ    00447146 f   nafxcw:occcont.obj
 0001:0004618f       ?OnNext@CEnumUnknown@@MAEHPAX@Z 0044718f f   nafxcw:occcont.obj
 0001:000461ad       ?QueryInterface@XOleContainer@COleControlContainer@@UAGJABU_GUID@@PAPAX@Z 004471ad f   nafxcw:occcont.obj
 0001:000461c4       ?Release@XOleContainer@COleControlContainer@@UAGKXZ 004471c4 f   nafxcw:occcont.obj
 0001:000461d3       ?ParseDisplayName@XOleContainer@COleControlContainer@@UAGJPAUIBindCtx@@PA_WPAKPAPAUIMoniker@@@Z 004471d3 f   nafxcw:occcont.obj
 0001:000461db       ??0CControlCreationInfo@@QAE@XZ 004471db f   nafxcw:occcont.obj
 0001:000461e8       ?IsManaged@CControlCreationInfo@@QBEHXZ 004471e8 f   nafxcw:occcont.obj
 0001:000461f1       ?TransferAddTail@?$CTypedPtrList@VCPtrList@@PAUCOleControlSiteOrWnd@@@@QAEPAU__POSITION@@PAUCOleControlSiteOrWnd@@@Z 004471f1 f i nafxcw:occcont.obj
 0001:00046231       ?TransferInsertBefore@?$_CTypedPtrList@VCPtrList@@PAUCOleControlSiteOrWnd@@@@QAEPAU__POSITION@@PAU2@PAUCOleControlSiteOrWnd@@@Z 00447231 f i nafxcw:occcont.obj
 0001:00046274       ??0?$_CTypedPtrList@VCPtrList@@PAUCOleControlSiteOrWnd@@@@QAE@H@Z 00447274 f i nafxcw:occcont.obj
 0001:0004628c       ?CreateStockObject@CGdiObject@@QAEHH@Z 0044728c f i nafxcw:occcont.obj
 0001:000462a9       ?InitControlContainer@CWnd@@IAEHH@Z 004472a9 f   nafxcw:occcont.obj
 0001:00046378       ??1?$CTypedPtrList@VCPtrList@@PAUCOleControlSiteOrWnd@@@@UAE@XZ 00447378 f i nafxcw:occcont.obj
 0001:0004637d       ?CreateControlCommon@COleControlContainer@@QAEHPAVCWnd@@ABU_GUID@@ABVCControlCreationInfo@@PBDKPBUtagPOINT@@PBUtagSIZE@@IPAVCFile@@HPA_WPAPAVCOleControlSite@@@Z 0044737d f   nafxcw:occcont.obj
 0001:000464be       ?CreateControl@COleControlContainer@@QAEHPAVCWnd@@ABU_GUID@@PBDKPBUtagPOINT@@PBUtagSIZE@@IPAVCFile@@HPA_WPAPAVCOleControlSite@@@Z 004474be f   nafxcw:occcont.obj
 0001:00046542       ?CheckDlgButton@COleControlContainer@@UAEXHI@Z 00447542 f   nafxcw:occcont.obj
 0001:00046581       ?GetDlgItem@COleControlContainer@@UBEXHPAPAUHWND__@@@Z 00447581 f   nafxcw:occcont.obj
 0001:000465bd       ?SendDlgItemMessageA@COleControlContainer@@UAEJHIIJ@Z 004475bd f   nafxcw:occcont.obj
 0001:000465e2       ?IsDlgButtonChecked@COleControlContainer@@UBEIH@Z 004475e2 f   nafxcw:occcont.obj
 0001:00046654       ?AddRef@XOleIPFrame@COleControlContainer@@UAGKXZ 00447654 f   nafxcw:occcont.obj
 0001:00046665       ??_ECEnumUnknown@@UAEPAXI@Z 00447665 f i nafxcw:occcont.obj
 0001:00046665       ??_GCEnumUnknown@@UAEPAXI@Z 00447665 f i nafxcw:occcont.obj
 0001:00046681       ?AddRef@XOleContainer@COleControlContainer@@UAGKXZ 00447681 f   nafxcw:occcont.obj
 0001:00046692       ??0?$CTypedPtrList@VCPtrList@@PAUCOleControlSiteOrWnd@@@@QAE@H@Z 00447692 f i nafxcw:occcont.obj
 0001:000466aa       ??_E?$CTypedPtrList@VCPtrList@@PAUCOleControlSiteOrWnd@@@@UAEPAXI@Z 004476aa f i nafxcw:occcont.obj
 0001:000466aa       ??_G?$_CTypedPtrList@VCPtrList@@PAUCOleControlSiteOrWnd@@@@UAEPAXI@Z 004476aa f i nafxcw:occcont.obj
 0001:000466aa       ??_G?$CTypedPtrList@VCPtrList@@PAUCOleControlSiteOrWnd@@@@UAEPAXI@Z 004476aa f i nafxcw:occcont.obj
 0001:000466aa       ??_E?$_CTypedPtrList@VCPtrList@@PAUCOleControlSiteOrWnd@@@@UAEPAXI@Z 004476aa f i nafxcw:occcont.obj
 0001:000466c6       ?CreateControl@CWnd@@QAEHABU_GUID@@PBDKPBUtagPOINT@@PBUtagSIZE@@PAV1@IPAVCFile@@HPA_W@Z 004476c6 f   nafxcw:occcont.obj
 0001:00046711       ??1COleControlContainer@@UAE@XZ 00447711 f   nafxcw:occcont.obj
 0001:0004681f       ?BroadcastAmbientPropertyChange@COleControlContainer@@UAEXJ@Z 0044781f f   nafxcw:occcont.obj
 0001:00046888       ?CreateControl@COleControlContainer@@QAEHPAVCWnd@@ABU_GUID@@PBDKABUtagRECT@@IPAVCFile@@HPA_WPAPAVCOleControlSite@@@Z 00447888 f   nafxcw:occcont.obj
 0001:000468e9       ?FindItem@COleControlContainer@@UBEPAVCOleControlSite@@I@Z 004478e9 f   nafxcw:occcont.obj
 0001:0004693b       ?FreezeAllEvents@COleControlContainer@@QAEXH@Z 0044793b f   nafxcw:occcont.obj
 0001:00046976       ?ScrollChildren@COleControlContainer@@UAEXHH@Z 00447976 f   nafxcw:occcont.obj
 0001:000469ca       ?HandleWindowlessMessage@COleControlContainer@@UAEHIIJPAJ@Z 004479ca f   nafxcw:occcont.obj
 0001:00046ad5       ?OnPaint@COleControlContainer@@UAEHPAVCDC@@@Z 00447ad5 f   nafxcw:occcont.obj
 0001:00046b6c       ?FillListSitesOrWnds@COleControlContainer@@UAEHPAU_AFX_OCC_DIALOG_INFO@@@Z 00447b6c f   nafxcw:occcont.obj
 0001:00046cd6       ?EnumObjects@XOleContainer@COleControlContainer@@UAGJKPAPAUIEnumUnknown@@@Z 00447cd6 f   nafxcw:occcont.obj
 0001:00046dd2       ?CreateControl@CWnd@@QAEHABU_GUID@@PBDKABUtagRECT@@PAV1@IPAVCFile@@HPA_W@Z 00447dd2 f   nafxcw:occcont.obj
 0001:00046e30       ??_GCOleControlContainer@@UAEPAXI@Z 00447e30 f i nafxcw:occcont.obj
 0001:00046e30       ??_ECOleControlContainer@@UAEPAXI@Z 00447e30 f i nafxcw:occcont.obj
 0001:00046e4c       ??0COleControlContainer@@QAE@PAVCWnd@@@Z 00447e4c f   nafxcw:occcont.obj
 0001:00046eba       ?CreateOleFont@COleControlContainer@@QAEXPAVCFont@@@Z 00447eba f   nafxcw:occcont.obj
 0001:00046ff3       ?GetAmbientProp@COleControlContainer@@UAEHPAVCOleControlSite@@JPAUtagVARIANT@@@Z 00447ff3 f   nafxcw:occcont.obj
 0001:000471c3       ?GetHAccessor@CAccessorBase@ATL@@QBEKK@Z 004481c3 f i nafxcw:occsite.obj
 0001:000471d8       ?IsAutoAccessor@CAccessorBase@ATL@@QBE_NK@Z 004481d8 f i nafxcw:occsite.obj
 0001:000471f2       ?AllocateAccessorMemory@CAccessorBase@ATL@@QAEJH@Z 004481f2 f i nafxcw:occsite.obj
 0001:00047253       ?BindEntries@CAccessorBase@ATL@@SAJPAUtagDBBINDING@@KPAKKPAUIAccessor@@@Z 00448253 f i nafxcw:occsite.obj
 0001:000472b2       ??0CDynamicAccessor@ATL@@QAE@W4DBBLOBHANDLINGENUM@1@K@Z 004482b2 f i nafxcw:occsite.obj
 0001:000472db       ?Close@CDynamicAccessor@ATL@@QAEXXZ 004482db f i nafxcw:occsite.obj
 0001:00047317       ?TranslateColumnNo@CDynamicAccessor@ATL@@QBE_NAAK@Z 00448317 f i nafxcw:occsite.obj
 0001:0004736a       ?GetAlignment@CDynamicAccessor@ATL@@SAIG@Z 0044836a f i nafxcw:occsite.obj
 0001:0004741e       ??1CManualAccessor@ATL@@QAE@XZ 0044841e f i nafxcw:occsite.obj
 0001:00047435       ?CreateAccessor@CManualAccessor@ATL@@QAEJHPAXK@Z 00448435 f i nafxcw:occsite.obj
 0001:000474be       ?GetInterfaceMap@COleControlSite@@MBEPBUAFX_INTERFACEMAP@@XZ 004484be f   nafxcw:occsite.obj
 0001:000474c4       ?CreateControl@COleControlSite@@UAEJPAVCWnd@@ABU_GUID@@PBDKPBUtagPOINT@@PBUtagSIZE@@IPAVCFile@@HPA_W@Z 004484c4 f   nafxcw:occsite.obj
 0001:0004753e       ?CreateControl@COleControlSite@@QAEJPAVCWnd@@ABVCControlCreationInfo@@KPBUtagPOINT@@PBUtagSIZE@@I@Z 0044853e f   nafxcw:occsite.obj
 0001:0004756a       ?_AfxCoCreateInstanceLic@@YGJABU_GUID@@PAUIUnknown@@K0PAPAXPA_W@Z 0044856a f   nafxcw:occsite.obj
 0001:000475ff       ?CreateOrLoad@COleControlSite@@MAEJABVCControlCreationInfo@@@Z 004485ff f   nafxcw:occsite.obj
 0001:00047607       ?IsDefaultButton@COleControlSite@@QAEHXZ 00448607 f   nafxcw:occsite.obj
 0001:0004761a       ?GetDefBtnCode@COleControlSite@@QAEKXZ 0044861a f   nafxcw:occsite.obj
 0001:00047635       ?SetDefaultButton@COleControlSite@@QAEXH@Z 00448635 f   nafxcw:occsite.obj
 0001:00047699       ?ConnectSink@COleControlSite@@IAEKABU_GUID@@PAUIUnknown@@@Z 00448699 f   nafxcw:occsite.obj
 0001:00047703       ?DisconnectSink@COleControlSite@@IAEXABU_GUID@@K@Z 00448703 f   nafxcw:occsite.obj
 0001:00047763       ?GetEventIID@COleControlSite@@QAEHPAU_GUID@@@Z 00448763 f   nafxcw:occsite.obj
 0001:000478d6       ?GetControlInfo@COleControlSite@@IAEXXZ 004488d6 f   nafxcw:occsite.obj
 0001:0004792d       ?IsMatchingMnemonic@COleControlSite@@QAEHPAUtagMSG@@@Z 0044892d f   nafxcw:occsite.obj
 0001:000479e1       ?SendMnemonic@COleControlSite@@QAEXPAUtagMSG@@@Z 004489e1 f   nafxcw:occsite.obj
 0001:00047a3a       ?FreezeEvents@COleControlSite@@QAEXH@Z 00448a3a f   nafxcw:occsite.obj
 0001:00047a7f       ?AttachWindow@COleControlSite@@QAEXXZ 00448a7f f   nafxcw:occsite.obj
 0001:00047ac5       ?DetachWindow@COleControlSite@@QAEXXZ 00448ac5 f   nafxcw:occsite.obj
 0001:00047b13       ?OnEvent@COleControlSite@@IAEHPAUAFX_EVENT@@@Z 00448b13 f   nafxcw:occsite.obj
 0001:00047b61       ?InvokeHelperV@COleControlSite@@UAEXJGGPAXPBEPAD@Z 00448b61 f   nafxcw:occsite.obj
 0001:00047bbb       ?SetPropertyV@COleControlSite@@UAEXJGPAD@Z 00448bbb f   nafxcw:occsite.obj
 0001:00047c18       ?InvokeHelper@COleControlSite@@UAAXJGGPAXPBEZZ 00448c18 f   nafxcw:occsite.obj
 0001:00047c38       ?GetProperty@COleControlSite@@UBEXJGPAX@Z 00448c38 f   nafxcw:occsite.obj
 0001:00047c54       ?SetProperty@COleControlSite@@UAAXJGZZ 00448c54 f   nafxcw:occsite.obj
 0001:00047c6b       ?SafeSetProperty@COleControlSite@@UAAHJGZZ 00448c6b f   nafxcw:occsite.obj
 0001:00047cb3       ?GetStyle@COleControlSite@@UBEKXZ 00448cb3 f   nafxcw:occsite.obj
 0001:00047d68       ?GetExStyle@COleControlSite@@UBEKXZ 00448d68 f   nafxcw:occsite.obj
 0001:00047dc3       ?ModifyStyle@COleControlSite@@UAEHKKI@Z 00448dc3 f   nafxcw:occsite.obj
 0001:00047e5d       ?ModifyStyleEx@COleControlSite@@UAEHKKI@Z 00448e5d f   nafxcw:occsite.obj
 0001:00047eb7       ?SetWindowTextA@COleControlSite@@UAEXPBD@Z 00448eb7 f   nafxcw:occsite.obj
 0001:00047ef3       ?GetWindowTextA@COleControlSite@@UBEXAAV?$CStringT@DV?$StrTraitMFC@DV?$ChTraitsCRT@D@ATL@@@@@ATL@@@Z 00448ef3 f   nafxcw:occsite.obj
 0001:00047f56       ?GetDlgCtrlID@COleControlSite@@UBEHXZ 00448f56 f   nafxcw:occsite.obj
 0001:00047f5a       ?SetDlgCtrlID@COleControlSite@@UAEHH@Z 00448f5a f   nafxcw:occsite.obj
 0001:00047f67       ?ShowWindow@COleControlSite@@UAEHH@Z 00448f67 f   nafxcw:occsite.obj
 0001:00047fa6       ?IsWindowEnabled@COleControlSite@@UBEHXZ 00448fa6 f   nafxcw:occsite.obj
 0001:00047ffa       ?EnableWindow@COleControlSite@@UAEHH@Z 00448ffa f   nafxcw:occsite.obj
 0001:00048093       ?Release@XOleClientSite@COleControlSite@@UAGKXZ 00449093 f   nafxcw:occsite.obj
 0001:000480a5       ?QueryInterface@XOleClientSite@COleControlSite@@UAGJABU_GUID@@PAPAX@Z 004490a5 f   nafxcw:occsite.obj
 0001:000480bf       ?GetContainer@XOleClientSite@COleControlSite@@UAGJPAPAUIOleContainer@@@Z 004490bf f   nafxcw:occsite.obj
 0001:000480da       ?ShowPropertyFrame@XOleControlSite@COleControlSite@@UAGJXZ 004490da f   nafxcw:occsite.obj
 0001:000480da       ?RequestNewObjectLayout@XOleClientSite@COleControlSite@@UAGJXZ 004490da f   nafxcw:occsite.obj
 0001:000480da       ?Revert@CArchiveStream@@UAGJXZ 004490da f   nafxcw:arcstrm.obj
 0001:000480da       ?SaveObject@XOleClientSite@COleControlSite@@UAGJXZ 004490da f   nafxcw:occsite.obj
 0001:000480e2       ?Release@XOleIPSite@COleControlSite@@UAGKXZ 004490e2 f   nafxcw:occsite.obj
 0001:000480f4       ?QueryInterface@XOleIPSite@COleControlSite@@UAGJABU_GUID@@PAPAX@Z 004490f4 f   nafxcw:occsite.obj
 0001:0004810e       ?OnUIActivate@XOleIPSite@COleControlSite@@UAGJXZ 0044910e f   nafxcw:occsite.obj
 0001:00048130       ?Scroll@XOleIPSite@COleControlSite@@UAGJUtagSIZE@@@Z 00449130 f   nafxcw:occsite.obj
 0001:00048130       ?OnTranslateAccelerator@CHtmlView@@UAEJPAUtagMSG@@PBU_GUID@@K@Z 00449130 f   nafxcw:viewhtml.obj
 0001:00048130       ?OnTranslateUrl@CHtmlView@@UAEJKPA_WPAPA_W@Z 00449130 f   nafxcw:viewhtml.obj
 0001:00048136       ?OnUIDeactivate@XOleIPSite@COleControlSite@@UAGJH@Z 00449136 f   nafxcw:occsite.obj
 0001:00048150       ?DeactivateAndUndo@XOleIPSite@COleControlSite@@UAGJXZ 00449150 f   nafxcw:occsite.obj
 0001:0004816d       ?OnInPlaceDeactivateEx@XOleIPSite@COleControlSite@@UAGJH@Z 0044916d f   nafxcw:occsite.obj
 0001:0004817a       ?Release@XOleControlSite@COleControlSite@@UAGKXZ 0044917a f   nafxcw:occsite.obj
 0001:0004818c       ?QueryInterface@XOleControlSite@COleControlSite@@UAGJABU_GUID@@PAPAX@Z 0044918c f   nafxcw:occsite.obj
 0001:000481a6       ?OnControlInfoChanged@XOleControlSite@COleControlSite@@UAGJXZ 004491a6 f   nafxcw:occsite.obj
 0001:000481ba       ?GetTypeInfoCount@XEventSink@COleControlSite@@UAGJPAI@Z 004491ba f   nafxcw:occsite.obj
 0001:000481ba       ?GetTypeInfoCount@XAmbientProps@COleControlSite@@UAGJPAI@Z 004491ba f   nafxcw:occsite.obj
 0001:000481ba       ?SetStatusText@XOleIPFrame@COleControlContainer@@UAGJPB_W@Z 004491ba f   nafxcw:occcont.obj
 0001:000481ba       ?GetExtendedControl@XOleControlSite@COleControlSite@@UAGJPAPAUIDispatch@@@Z 004491ba f   nafxcw:occsite.obj
 0001:000481ba       ?ContextSensitiveHelp@XOleIPSite@COleControlSite@@UAGJH@Z 004491ba f   nafxcw:occsite.obj
 0001:000481ba       ?ContextSensitiveHelp@XOleIPFrame@COleControlContainer@@UAGJH@Z 004491ba f   nafxcw:occcont.obj
 0001:000481ba       ?RequestBorderSpace@XOleIPFrame@COleControlContainer@@UAGJPBUtagRECT@@@Z 004491ba f   nafxcw:occcont.obj
 0001:000481ba       ?Commit@CArchiveStream@@UAGJK@Z 004491ba f   nafxcw:arcstrm.obj
 0001:000481ba       ?GetBorder@XOleIPFrame@COleControlContainer@@UAGJPAUtagRECT@@@Z 004491ba f   nafxcw:occcont.obj
 0001:000481ba       ?RemoveMenus@XOleIPFrame@COleControlContainer@@UAGJPAUHMENU__@@@Z 004491ba f   nafxcw:occcont.obj
 0001:000481ba       ?LockInPlaceActive@XOleControlSite@COleControlSite@@UAGJH@Z 004491ba f   nafxcw:occsite.obj
 0001:000481ba       ?LockContainer@XOleContainer@COleControlContainer@@UAGJH@Z 004491ba f   nafxcw:occcont.obj
 0001:000481ba       ?Clone@CArchiveStream@@UAGJPAPAUIStream@@@Z 004491ba f   nafxcw:arcstrm.obj
 0001:000481ba       ?ContextSensitiveHelp@CAccessibleProxy@ATL@@UAGJH@Z 004491ba f   nafxcw:wincore.obj
 0001:000481ba       ?SetBorderSpace@XOleIPFrame@COleControlContainer@@UAGJPBUtagRECT@@@Z 004491ba f   nafxcw:occcont.obj
 0001:000481c2       ?Release@XAmbientProps@COleControlSite@@UAGKXZ 004491c2 f   nafxcw:occsite.obj
 0001:000481d4       ?QueryInterface@XAmbientProps@COleControlSite@@UAGJABU_GUID@@PAPAX@Z 004491d4 f   nafxcw:occsite.obj
 0001:000481ee       ?LockRegion@CArchiveStream@@UAGJT_ULARGE_INTEGER@@0K@Z 004491ee f   nafxcw:arcstrm.obj
 0001:000481ee       ?UnlockRegion@CArchiveStream@@UAGJT_ULARGE_INTEGER@@0K@Z 004491ee f   nafxcw:arcstrm.obj
 0001:000481ee       ?GetIDsOfNames@XAmbientProps@COleControlSite@@UAGJABU_GUID@@PAPA_WIKPAJ@Z 004491ee f   nafxcw:occsite.obj
 0001:000481ee       ?GetIDsOfNames@XEventSink@COleControlSite@@UAGJABU_GUID@@PAPA_WIKPAJ@Z 004491ee f   nafxcw:occsite.obj
 0001:000481ee       ?CopyTo@CArchiveStream@@UAGJPAUIStream@@T_ULARGE_INTEGER@@PAT3@2@Z 004491ee f   nafxcw:arcstrm.obj
 0001:000481f6       ?QueryInterface@XPropertyNotifySink@COleControlSite@@UAGJABU_GUID@@PAPAX@Z 004491f6 f   nafxcw:occsite.obj
 0001:0004823a       ?AddRef@CArchiveStream@@UAGKXZ 0044923a f   nafxcw:arcstrm.obj
 0001:0004823a       ?AddRef@XEventSink@COleControlSite@@UAGKXZ 0044923a f   nafxcw:occsite.obj
 0001:0004823a       ?AddRef@XNotifyDBEvents@COleControlSite@@UAGKXZ 0044923a f   nafxcw:occsite.obj
 0001:0004823a       ?AddRef@XPropertyNotifySink@COleControlSite@@UAGKXZ 0044923a f   nafxcw:occsite.obj
 0001:0004823a       ?OnGetExternal@CHtmlView@@UAEJPAPAUIDispatch@@@Z 0044923a f   nafxcw:viewhtml.obj
 0001:0004823a       ?AddRef@XRowsetNotify@COleControlSite@@UAGKXZ 0044923a f   nafxcw:occsite.obj
 0001:0004823a       ?OnPreparePrinting@CView@@MAEHPAUCPrintInfo@@@Z 0044923a f   nafxcw:viewcore.obj
 0001:0004823a       ?IsInvokeAllowed@CCmdTarget@@UAEHJ@Z 0044923a f   nafxcw:cmdtarg.obj
 0001:00048240       ?QueryInterface@XEventSink@COleControlSite@@UAGJABU_GUID@@PAPAX@Z 00449240 f   nafxcw:occsite.obj
 0001:0004829b       ?SetMenu@XOleIPFrame@COleControlContainer@@UAGJPAUHMENU__@@PAXPAUHWND__@@@Z 0044929b f   nafxcw:occcont.obj
 0001:0004829b       ?GetMoniker@XOleClientSite@COleControlSite@@UAGJKKPAPAUIMoniker@@@Z 0044929b f   nafxcw:occsite.obj
 0001:0004829b       ?GetTypeInfo@XAmbientProps@COleControlSite@@UAGJIKPAPAUITypeInfo@@@Z 0044929b f   nafxcw:occsite.obj
 0001:0004829b       ?GetTypeInfo@XEventSink@COleControlSite@@UAGJIKPAPAUITypeInfo@@@Z 0044929b f   nafxcw:occsite.obj
 0001:0004829b       ?GetTypeInfo@XAccessible@CWnd@@UAGJIKPAPAUITypeInfo@@@Z 0044929b f   nafxcw:wincore.obj
 0001:000482a3       ??0CDataSourceControl@@QAE@PAVCOleControlSite@@@Z 004492a3 f   nafxcw:occsite.obj
 0001:000482f1       ??0CRect@@QAE@UtagPOINT@@UtagSIZE@@@Z 004492f1 f i nafxcw:occsite.obj
 0001:00048315       ?GetCursor@CDataSourceControl@@UAEPAUIUnknown@@XZ 00449315 f   nafxcw:occsite.obj
 0001:0004837e       ?CopyColumnID@CDataSourceControl@@QAEHPAUtagDBCOLUMNID@@PBU2@@Z 0044937e f   nafxcw:occsite.obj
 0001:000483f7       ?BindProp@CDataSourceControl@@UAEXPAVCDataBoundProperty@@H@Z 004493f7 f   nafxcw:occsite.obj
 0001:0004843d       ??0CDataBoundProperty@@QAE@PAV0@JG@Z 0044943d f   nafxcw:occsite.obj
 0001:00048463       ?SetClientSite@CDataBoundProperty@@QAEXPAVCOleControlSite@@@Z 00449463 f   nafxcw:occsite.obj
 0001:0004846c       ?GetNext@CDataBoundProperty@@QAEPAV1@XZ 0044946c f   nafxcw:occsite.obj
 0001:00048470       ?GetCursor@CDataBoundProperty@@QAEPAUIUnknown@@XZ 00449470 f   nafxcw:occsite.obj
 0001:000484a7       ?GetCursor@COleControlSite@@IAEJJPAPAUIUnknown@@PAPAX@Z 004494a7 f   nafxcw:occsite.obj
 0001:000484dc       ?QueryInterface@XNotifyDBEvents@COleControlSite@@UAGJABU_GUID@@PAPAX@Z 004494dc f   nafxcw:occsite.obj
 0001:00048520       ?QueryInterface@XRowsetNotify@COleControlSite@@UAGJABU_GUID@@PAPAX@Z 00449520 f   nafxcw:occsite.obj
 0001:00048564       ?ReleaseRows@?$CRowset@VCAccessorBase@ATL@@@ATL@@QAEJXZ 00449564 f i nafxcw:occsite.obj
 0001:00048584       ?GetData@?$CRowset@VCAccessorBase@ATL@@@ATL@@QAEJH@Z 00449584 f i nafxcw:occsite.obj
 0001:000485ab       ??$QueryInterface@UIRowsetChange@@@IUnknown@@QAGJPAPAUIRowsetChange@@@Z 004495ab f i nafxcw:occsite.obj
 0001:000485c0       ??$_GetValue@UtagDB_NUMERIC@@@CDynamicAccessor@ATL@@QBEXKPAUtagDB_NUMERIC@@@Z 004495c0 f i nafxcw:occsite.obj
 0001:000485e3       ?InvalidateRgn@CWnd@@QAEXPAVCRgn@@H@Z 004495e3 f i nafxcw:occsite.obj
 0001:000485ff       ?SetTime@COleDateTime@ATL@@QAEHHHH@Z 004495ff f i nafxcw:occsite.obj
 0001:0004861c       ??1COleDispatchDriver@@QAE@XZ 0044961c f i nafxcw:occsite.obj
 0001:00048621       ??0AFX_EVENT@@QAE@HJPAUtagDISPPARAMS@@PAUtagEXCEPINFO@@PAI@Z 00449621 f i nafxcw:occsite.obj
 0001:00048652       ?Bind@CAccessorBase@ATL@@SAXPAUtagDBBINDING@@KGKEEKKKKPAUtagDBOBJECT@@@Z 00449652 f i nafxcw:occsite.obj
 0001:000486dd       ?GetColumnType@CDynamicAccessor@ATL@@QBE_NKPAG@Z 004496dd f i nafxcw:occsite.obj
 0001:00048712       ?GetValue@CDynamicAccessor@ATL@@QBEPAXK@Z 00449712 f i nafxcw:occsite.obj
 0001:0004873c       ?GetColumnName@CDynamicAccessor@ATL@@QBEPA_WK@Z 0044973c f i nafxcw:occsite.obj
 0001:00048762       ?BindEx@CDynamicAccessor@ATL@@SAXPAUtagDBBINDING@@KGKEEKKKKPAUtagDBOBJECT@@K_N@Z 00449762 f i nafxcw:occsite.obj
 0001:000487ee       ?AddBindEntry@CManualAccessor@ATL@@QAEXKGKPAX00@Z 004497ee f i nafxcw:occsite.obj
 0001:00048842       ?SetExtent@COleControlSite@@IAEHXZ 00449842 f   nafxcw:occsite.obj
 0001:000488ef       ?CreateControl@COleControlSite@@UAEJPAVCWnd@@ABU_GUID@@PBDKABUtagRECT@@IPAVCFile@@HPA_W@Z 004498ef f   nafxcw:occsite.obj
 0001:0004894d       ?CreateControlCommon@COleControlSite@@MAEJPAVCWnd@@ABU_GUID@@ABVCControlCreationInfo@@PBDKPBUtagPOINT@@PBUtagSIZE@@IPAVCFile@@HPA_W@Z 0044994d f   nafxcw:occsite.obj
 0001:00048c0f       ?DestroyControl@COleControlSite@@UAEHXZ 00449c0f f   nafxcw:occsite.obj
 0001:00048c90       ?QuickActivate@COleControlSite@@UAEHXZ 00449c90 f   nafxcw:occsite.obj
 0001:00048e47       ?CreateOrLoad@COleControlSite@@MAEJABU_GUID@@PAVCFile@@HPA_W@Z 00449e47 f   nafxcw:occsite.obj
 0001:00049159       ?DoVerb@COleControlSite@@UAEJJPAUtagMSG@@@Z 0044a159 f   nafxcw:occsite.obj
 0001:0004919a       ?MoveWindow@COleControlSite@@UAEXHHHH@Z 0044a19a f   nafxcw:occsite.obj
 0001:00049227       ?SetWindowPos@COleControlSite@@UAEHPBVCWnd@@HHHHI@Z 0044a227 f   nafxcw:occsite.obj
 0001:000492ca       ?SetFocus@COleControlSite@@UAEPAVCWnd@@XZ 0044a2ca f   nafxcw:occsite.obj
 0001:0004931d       ?SetFocus@COleControlSite@@UAEPAVCWnd@@PAUtagMSG@@@Z 0044a31d f   nafxcw:occsite.obj
 0001:00049374       ?BindProperty@COleControlSite@@UAEXJPAVCWnd@@@Z 0044a374 f   nafxcw:occsite.obj
 0001:00049468       ?AddRef@XOleClientSite@COleControlSite@@UAGKXZ 0044a468 f   nafxcw:occsite.obj
 0001:0004947b       ?ShowObject@XOleClientSite@COleControlSite@@UAGJXZ 0044a47b f   nafxcw:occsite.obj
 0001:000494c7       ?AddRef@XOleIPSite@COleControlSite@@UAGKXZ 0044a4c7 f   nafxcw:occsite.obj
 0001:000494da       ?GetWindow@XOleIPSite@COleControlSite@@UAGJPAPAUHWND__@@@Z 0044a4da f   nafxcw:occsite.obj
 0001:00049505       ?GetWindowContext@XOleIPSite@COleControlSite@@UAGJPAPAUIOleInPlaceFrame@@PAPAUIOleInPlaceUIWindow@@PAUtagRECT@@2PAUtagOIFI@@@Z 0044a505 f   nafxcw:occsite.obj
 0001:000495b3       ?OnInPlaceDeactivate@XOleIPSite@COleControlSite@@UAGJXZ 0044a5b3 f   nafxcw:occsite.obj
 0001:0004961c       ?OnPosRectChange@XOleIPSite@COleControlSite@@UAGJPBUtagRECT@@@Z 0044a61c f   nafxcw:occsite.obj
 0001:00049682       ?OnInPlaceActivateEx@XOleIPSite@COleControlSite@@UAGJPAHK@Z 0044a682 f   nafxcw:occsite.obj
 0001:000496f2       ?AdjustRect@XOleIPSite@COleControlSite@@UAGJPAUtagRECT@@@Z 0044a6f2 f   nafxcw:occsite.obj
 0001:00049721       ?CanWindowlessActivate@XOleIPSite@COleControlSite@@UAGJXZ 0044a721 f   nafxcw:occsite.obj
 0001:00049721       ?RequestUIActivate@XOleIPSite@COleControlSite@@UAGJXZ 0044a721 f   nafxcw:occsite.obj
 0001:0004974d       ?GetCapture@XOleIPSite@COleControlSite@@UAGJXZ 0044a74d f   nafxcw:occsite.obj
 0001:000497ab       ?GetFocus@XOleIPSite@COleControlSite@@UAGJXZ 0044a7ab f   nafxcw:occsite.obj
 0001:000497da       ?InvalidateRect@XOleIPSite@COleControlSite@@UAGJPBUtagRECT@@H@Z 0044a7da f   nafxcw:occsite.obj
 0001:0004986a       ?ReleaseDC@XOleIPSite@COleControlSite@@UAGJPAUHDC__@@@Z 0044a86a f   nafxcw:occsite.obj
 0001:000498b3       ?ScrollRect@XOleIPSite@COleControlSite@@UAGJHHPBUtagRECT@@0@Z 0044a8b3 f   nafxcw:occsite.obj
 0001:000498b3       ?OnDefWindowMessage@XOleIPSite@COleControlSite@@UAGJIIJPAJ@Z 0044a8b3 f   nafxcw:occsite.obj
 0001:000498e2       ?SetCapture@XOleIPSite@COleControlSite@@UAGJH@Z 0044a8e2 f   nafxcw:occsite.obj
 0001:00049951       ?SetFocus@XOleIPSite@COleControlSite@@UAGJH@Z 0044a951 f   nafxcw:occsite.obj
 0001:000499b0       ?AddRef@XOleControlSite@COleControlSite@@UAGKXZ 0044a9b0 f   nafxcw:occsite.obj
 0001:000499c3       ?TransformCoords@XOleControlSite@COleControlSite@@UAGJPAU_POINTL@@PAUtagPOINTF@@K@Z 0044a9c3 f   nafxcw:occsite.obj
 0001:00049ad2       ?AddRef@XAmbientProps@COleControlSite@@UAGKXZ 0044aad2 f   nafxcw:occsite.obj
 0001:00049ae5       ?Invoke@XAmbientProps@COleControlSite@@UAGJJABU_GUID@@KGPAUtagDISPPARAMS@@PAUtagVARIANT@@PAUtagEXCEPINFO@@PAI@Z 0044aae5 f   nafxcw:occsite.obj
 0001:00049b72       ?OnChanged@XPropertyNotifySink@COleControlSite@@UAGJJ@Z 0044ab72 f   nafxcw:occsite.obj
 0001:00049ce3       ?OnRequestEdit@XPropertyNotifySink@COleControlSite@@UAGJJ@Z 0044ace3 f   nafxcw:occsite.obj
 0001:00049d7e       ?Invoke@XEventSink@COleControlSite@@UAGJJABU_GUID@@KGPAUtagDISPPARAMS@@PAUtagVARIANT@@PAUtagEXCEPINFO@@PAI@Z 0044ad7e f   nafxcw:occsite.obj
 0001:00049df3       ?Notify@CDataBoundProperty@@QAEXXZ 0044adf3 f   nafxcw:occsite.obj
 0001:00049e81       ?AddRef@XBoundObjectSite@COleControlSite@@UAGKXZ 0044ae81 f   nafxcw:occsite.obj
 0001:00049ecf       ?Release@XBoundObjectSite@COleControlSite@@UAGKXZ 0044aecf f   nafxcw:occsite.obj
 0001:00049f1d       ?QueryInterface@XBoundObjectSite@COleControlSite@@UAGJABU_GUID@@PAPAX@Z 0044af1d f   nafxcw:occsite.obj
 0001:00049f71       ?GetCursor@XBoundObjectSite@COleControlSite@@UAGJJPAPAUICursor@@PAPAX@Z 0044af71 f   nafxcw:occsite.obj
 0001:00049fc8       ?FireEvent@XNotifyDBEvents@COleControlSite@@QAEJKKQAUtagDBNOTIFYREASON@@W4DSCSTATE@@@Z 0044afc8 f   nafxcw:occsite.obj
 0001:0004a09f       ??1?$CAutoVectorPtr@UtagDBBINDING@@@ATL@@QAE@XZ 0044b09f f i nafxcw:occsite.obj
 0001:0004a0af       ?GetData@?$CRowset@VCAccessorBase@ATL@@@ATL@@QAEJXZ 0044b0af f i nafxcw:occsite.obj
 0001:0004a0ea       ?MoveNext@?$CRowset@VCAccessorBase@ATL@@@ATL@@QAEJJ_N@Z 0044b0ea f i nafxcw:occsite.obj
 0001:0004a144       ??$GetValue@UtagDB_NUMERIC@@@CDynamicAccessor@ATL@@QBE_NKPAUtagDB_NUMERIC@@@Z 0044b144 f i nafxcw:occsite.obj
 0001:0004a175       ??$GetValue@UtagDBTIME@@@CDynamicAccessor@ATL@@QBE_NKPAUtagDBTIME@@@Z 0044b175 f i nafxcw:occsite.obj
 0001:0004a175       ??$GetValue@UtagDBDATE@@@CDynamicAccessor@ATL@@QBE_NKPAUtagDBDATE@@@Z 0044b175 f i nafxcw:occsite.obj
 0001:0004a1b1       ??$GetValue@UtagDBTIMESTAMP@@@CDynamicAccessor@ATL@@QBE_NKPAUtagDBTIMESTAMP@@@Z 0044b1b1 f i nafxcw:occsite.obj
 0001:0004a1ee       ??$SetValue@F@CDynamicAccessor@ATL@@QAE_NKABF@Z 0044b1ee f i nafxcw:occsite.obj
 0001:0004a1ee       ??$SetValue@G@CDynamicAccessor@ATL@@QAE_NKABG@Z 0044b1ee f i nafxcw:occsite.obj
 0001:0004a225       ??$SetValue@M@CDynamicAccessor@ATL@@QAE_NKABM@Z 0044b225 f i nafxcw:occsite.obj
 0001:0004a25a       ??$SetValue@N@CDynamicAccessor@ATL@@QAE_NKABN@Z 0044b25a f i nafxcw:occsite.obj
 0001:0004a28f       ??$GetValue@PA_W@CDynamicAccessor@ATL@@QBE_NKPAPA_W@Z 0044b28f f i nafxcw:occsite.obj
 0001:0004a2ca       ??$SetValue@K@CDynamicAccessor@ATL@@QAE_NKABK@Z 0044b2ca f i nafxcw:occsite.obj
 0001:0004a2ca       ??$SetValue@PA_W@CDynamicAccessor@ATL@@QAE_NKABQA_W@Z 0044b2ca f i nafxcw:occsite.obj
 0001:0004a2ca       ??$SetValue@J@CDynamicAccessor@ATL@@QAE_NKABJ@Z 0044b2ca f i nafxcw:occsite.obj
 0001:0004a2ff       ??$SetValue@UtagDEC@@@CDynamicAccessor@ATL@@QAE_NKABUtagDEC@@@Z 0044b2ff f i nafxcw:occsite.obj
 0001:0004a335       ??$SetValue@C@CDynamicAccessor@ATL@@QAE_NKABC@Z 0044b335 f i nafxcw:occsite.obj
 0001:0004a335       ??$SetValue@E@CDynamicAccessor@ATL@@QAE_NKABE@Z 0044b335 f i nafxcw:occsite.obj
 0001:0004a36a       ??0COleDateTime@ATL@@QAE@HHHHHH@Z 0044b36a f i nafxcw:occsite.obj
 0001:0004a38e       ?ReleaseAccessors@CAccessorBase@ATL@@QAEJPAUIUnknown@@@Z 0044b38e f i nafxcw:occsite.obj
 0001:0004a41a       ?GetStatus@CDynamicAccessor@ATL@@QBE_NKPAK@Z 0044b41a f i nafxcw:occsite.obj
 0001:0004a470       ?BindColumns@CManualAccessor@ATL@@QAEJPAUIUnknown@@@Z 0044b470 f i nafxcw:occsite.obj
 0001:0004a4f5       ?GetBoundClientRow@CDataSourceControl@@QAEJXZ 0044b4f5 f   nafxcw:occsite.obj
 0001:0004a552       ?SetDSCSite@CDataBoundProperty@@QAEXPAVCOleControlSite@@@Z 0044b552 f   nafxcw:occsite.obj
 0001:0004a566       ?OKToDo@XNotifyDBEvents@COleControlSite@@UAGJKKQAUtagDBNOTIFYREASON@@@Z 0044b566 f   nafxcw:occsite.obj
 0001:0004a621       ?Cancelled@XNotifyDBEvents@COleControlSite@@UAGJKKQAUtagDBNOTIFYREASON@@@Z 0044b621 f   nafxcw:occsite.obj
 0001:0004a689       ?SyncBefore@XNotifyDBEvents@COleControlSite@@UAGJKKQAUtagDBNOTIFYREASON@@@Z 0044b689 f   nafxcw:occsite.obj
 0001:0004a71c       ?AboutToDo@XNotifyDBEvents@COleControlSite@@UAGJKKQAUtagDBNOTIFYREASON@@@Z 0044b71c f   nafxcw:occsite.obj
 0001:0004a784       ?FailedToDo@XNotifyDBEvents@COleControlSite@@UAGJKKQAUtagDBNOTIFYREASON@@@Z 0044b784 f   nafxcw:occsite.obj
 0001:0004a7ec       ?SyncAfter@XNotifyDBEvents@COleControlSite@@UAGJKKQAUtagDBNOTIFYREASON@@@Z 0044b7ec f   nafxcw:occsite.obj
 0001:0004a89b       ?DidEvent@XNotifyDBEvents@COleControlSite@@UAGJKKQAUtagDBNOTIFYREASON@@@Z 0044b89b f   nafxcw:occsite.obj
 0001:0004a92f       ?OnFieldChange@XRowsetNotify@COleControlSite@@UAGJPAUIRowset@@KKQAKKKH@Z 0044b92f f   nafxcw:occsite.obj
 0001:0004aa26       ?OnRowChange@XRowsetNotify@COleControlSite@@UAGJPAUIRowset@@KQBKKKH@Z 0044ba26 f   nafxcw:occsite.obj
 0001:0004ab8f       ??0?$CComQIPtr@UIChapteredRowset@@$1?_GUID_0c733a93_2a1c_11ce_ade5_00aa0044773d@@3U__s_GUID@@B@ATL@@QAE@PAUIUnknown@@@Z 0044bb8f f i nafxcw:occsite.obj
 0001:0004abae       ??4?$CComPtr@UIRowset@@@ATL@@QAEPAUIRowset@@PAU2@@Z 0044bbae f i nafxcw:occsite.obj
 0001:0004abc3       ?SetData@?$CRowset@VCAccessorBase@ATL@@@ATL@@QBEJH@Z 0044bbc3 f i nafxcw:occsite.obj
 0001:0004abf6       ?FreeType@CAccessorBase@ATL@@SAXGPAEPAUIRowset@@@Z 0044bbf6 f i nafxcw:occsite.obj
 0001:0004aca4       ?FreeRecordMemory@CDynamicAccessor@ATL@@QAEXPAUIRowset@@@Z 0044bca4 f i nafxcw:occsite.obj
 0001:0004ad8a       ?BindColumns@CDataSourceControl@@UAEXXZ 0044bd8a f   nafxcw:occsite.obj
 0001:0004af53       ??0?$CRowset@VCAccessorBase@ATL@@@ATL@@QAE@PAUIRowset@@@Z 0044bf53 f i nafxcw:occsite.obj
 0001:0004af75       ?MoveFirst@?$CRowset@VCAccessorBase@ATL@@@ATL@@QAEJXZ 0044bf75 f i nafxcw:occsite.obj
 0001:0004af98       ?SetData@?$CRowset@VCAccessorBase@ATL@@@ATL@@QBEJXZ 0044bf98 f i nafxcw:occsite.obj
 0001:0004afc0       ?ReleaseAccessors@CDynamicAccessor@ATL@@QAEJPAUIUnknown@@@Z 0044bfc0 f i nafxcw:occsite.obj
 0001:0004afdb       ?GetRowsetProperties@CDynamicAccessor@ATL@@QAEJPAUIUnknown@@PAKPAHK@Z 0044bfdb f i nafxcw:occsite.obj
 0001:0004b0ca       ?BindColumns@CDynamicAccessor@ATL@@QAEJPAUIUnknown@@@Z 0044c0ca f i nafxcw:occsite.obj
 0001:0004b720       ?GetMetaData@CDataSourceControl@@QAEJXZ 0044c720 f   nafxcw:occsite.obj
 0001:0004ba7b       ?UpdateCursor@CDataSourceControl@@UAEJXZ 0044ca7b f   nafxcw:occsite.obj
 0001:0004c0da       ?OnRowsetChange@XRowsetNotify@COleControlSite@@UAGJPAUIRowset@@KKH@Z 0044d0da f   nafxcw:occsite.obj
 0001:0004c197       ?Close@?$CRowset@VCAccessorBase@ATL@@@ATL@@QAEXXZ 0044d197 f i nafxcw:occsite.obj
 0001:0004c1f6       ?Initialize@CDataSourceControl@@QAEJXZ 0044d1f6 f   nafxcw:occsite.obj
 0001:0004c3ab       ??1?$CRowset@VCAccessorBase@ATL@@@ATL@@QAE@XZ 0044d3ab f i nafxcw:occsite.obj
 0001:0004c3ce       ??0COleControlSite@@QAE@PAVCOleControlContainer@@@Z 0044d3ce f   nafxcw:occsite.obj
 0001:0004c4dd       ?EnableDSC@COleControlSite@@UAEXXZ 0044d4dd f   nafxcw:occsite.obj
 0001:0004c52a       ?GetDC@XOleIPSite@COleControlSite@@UAGJPBUtagRECT@@KPAPAUHDC__@@@Z 0044d52a f   nafxcw:occsite.obj
 0001:0004c64f       ?InvalidateRgn@XOleIPSite@COleControlSite@@UAGJPAUHRGN__@@H@Z 0044d64f f   nafxcw:occsite.obj
 0001:0004c723       ?BindDefaultProperty@COleControlSite@@UAEXJGPBDPAVCWnd@@@Z 0044d723 f   nafxcw:occsite.obj
 0001:0004c7c5       ??1CDataSourceControl@@QAE@XZ 0044d7c5 f   nafxcw:occsite.obj
 0001:0004c9c0       ?BindProp@CDataSourceControl@@UAEXPAVCOleControlSite@@H@Z 0044d9c0 f   nafxcw:occsite.obj
 0001:0004cafc       ?ToVariant@CDataSourceControl@@QAE?AVCOleVariant@@H@Z 0044dafc f   nafxcw:occsite.obj
 0001:0004d013       ?UpdateControls@CDataSourceControl@@UAEJXZ 0044e013 f   nafxcw:occsite.obj
 0001:0004d1a5       ??1COleControlSite@@UAE@XZ 0044e1a5 f   nafxcw:occsite.obj
 0001:0004d3b7       ??_ECOleControlSite@@UAEPAXI@Z 0044e3b7 f i nafxcw:occsite.obj
 0001:0004d3b7       ??_GCOleControlSite@@UAEPAXI@Z 0044e3b7 f i nafxcw:occsite.obj
 0001:0004d3d3       ?_AfxGetDlgCode@@YGKPAVCWnd@@PAUtagMSG@@@Z 0044e3d3 f   nafxcw:occdlg.obj
 0001:0004d401       ?IsMatchingMnemonic@COccManager@@SAHPAUCOleControlSiteOrWnd@@PAUtagMSG@@@Z 0044e401 f   nafxcw:occdlg.obj
 0001:0004d420       ?IsLabelControl@COccManager@@SAHPAUCOleControlSiteOrWnd@@@Z 0044e420 f   nafxcw:occdlg.obj
 0001:0004d470       ?GetDefBtnCode@COccManager@@SAKPAVCWnd@@@Z 0044e470 f   nafxcw:occdlg.obj
 0001:0004d491       ?GetNextDlgGroupItem@CWnd@@QBEPAV1@PAV1@H@Z 0044e491 f i nafxcw:occdlg.obj
 0001:0004d4b3       ?IsChild@CWnd@@QBEHPBV1@@Z 0044e4b3 f i nafxcw:occdlg.obj
 0001:0004d4cb       ?_AfxDlgSetFocus@@YGXPAVCWnd@@@Z 0044e4cb f   nafxcw:occdlg.obj
 0001:0004d4f9       ?_AfxGetChildControl@@YGPAVCWnd@@PAV1@0@Z 0044e4f9 f   nafxcw:occdlg.obj
 0001:0004d54e       ?_AfxNextControl@@YGPAVCWnd@@PAV1@0I@Z 0044e54e f   nafxcw:occdlg.obj
 0001:0004d628       ?UIActivateControl@COccManager@@KAXPAVCWnd@@@Z 0044e628 f   nafxcw:occdlg.obj
 0001:0004d695       ?UIDeactivateIfNecessary@COccManager@@KAXPAVCWnd@@0@Z 0044e695 f   nafxcw:occdlg.obj
 0001:0004d710       ?_AfxFindDlgItem@@YGPAVCWnd@@PAV1@K@Z 0044e710 f   nafxcw:occdlg.obj
 0001:0004d767       ?SetDefaultButton@COccManager@@SAXPAVCWnd@@H@Z 0044e767 f   nafxcw:occdlg.obj
 0001:0004d7b4       ?_AfxRemoveDefaultButton@@YGXPAVCWnd@@0@Z 0044e7b4 f   nafxcw:occdlg.obj
 0001:0004d816       ?_AfxOriginalDefButton@@YGHPAVCWnd@@@Z 0044e816 f   nafxcw:occdlg.obj
 0001:0004d843       ?_AfxCheckDefPushButton@@YGXPAVCWnd@@00@Z 0044e843 f   nafxcw:occdlg.obj
 0001:0004d923       ?_AfxFindSiteOrWnd@@YGPAUCOleControlSiteOrWnd@@PAVCWnd@@0@Z 0044e923 f   nafxcw:occdlg.obj
 0001:0004d975       ?_AfxFindNextMnem@@YGPAUCOleControlSiteOrWnd@@PAVCWnd@@PAU1@PAUtagMSG@@@Z 0044e975 f   nafxcw:occdlg.obj
 0001:0004dac6       ?_AfxGetNextMnem@@YGPAUCOleControlSiteOrWnd@@PAVCWnd@@0PAUtagMSG@@@Z 0044eac6 f   nafxcw:occdlg.obj
 0001:0004dbbc       ?IsDialogMessageA@COccManager@@UAEHPAVCWnd@@PAUtagMSG@@@Z 0044ebbc f   nafxcw:occdlg.obj
 0001:0004e02a       ??0CMemFile@@QAE@PAEII@Z   0044f02a f   nafxcw:filemem.obj
 0001:0004e086       ?Alloc@CMemFile@@MAEPAEK@Z 0044f086 f   nafxcw:filemem.obj
 0001:0004e093       ?Realloc@CMemFile@@MAEPAEPAEK@Z 0044f093 f   nafxcw:filemem.obj
 0001:0004e0a5       ?Free@CAfxStringMgr@@UAEXPAUCStringData@ATL@@@Z 0044f0a5 f   nafxcw:strcore.obj
 0001:0004e0a5       ?Free@CMemFile@@MAEXPAE@Z  0044f0a5 f   nafxcw:filemem.obj
 0001:0004e0b2       ?GetPosition@CMemFile@@UBE_KXZ 0044f0b2 f   nafxcw:filemem.obj
 0001:0004e0b8       ?GrowFile@CMemFile@@MAEXK@Z 0044f0b8 f   nafxcw:filemem.obj
 0001:0004e0ff       ?GetLength@CMemFile@@UBE_KXZ 0044f0ff f   nafxcw:filemem.obj
 0001:0004e105       ?SetLength@CMemFile@@UAEX_K@Z 0044f105 f   nafxcw:filemem.obj
 0001:0004e153       ?Read@CMemFile@@UAEIPAXI@Z 0044f153 f   nafxcw:filemem.obj
 0001:0004e1a4       ?Write@CMemFile@@UAEXPBXI@Z 0044f1a4 f   nafxcw:filemem.obj
 0001:0004e203       ?Seek@CMemFile@@UAE_K_JI@Z 0044f203 f   nafxcw:filemem.obj
 0001:0004e27b       ?Close@CMemFile@@UAEXXZ    0044f27b f   nafxcw:filemem.obj
 0001:0004e2a5       ?Abort@CMemFile@@UAEXXZ    0044f2a5 f   nafxcw:filemem.obj
 0001:0004e2aa       ?LockRange@CMemFile@@UAEX_K0@Z 0044f2aa f   nafxcw:filemem.obj
 0001:0004e2aa       ?UnlockRange@CMemFile@@UAEX_K0@Z 0044f2aa f   nafxcw:filemem.obj
 0001:0004e2b0       ?Duplicate@CMemFile@@UBEPAVCFile@@XZ 0044f2b0 f   nafxcw:filemem.obj
 0001:0004e2b5       ?GetBufferPtr@CMemFile@@UAEIIIPAPAX0@Z 0044f2b5 f   nafxcw:filemem.obj
 0001:0004e386       ?GetRuntimeClass@CMemFile@@UBEPAUCRuntimeClass@@XZ 0044f386 f   nafxcw:filemem.obj
 0001:0004e38c       ??1CMemFile@@UAE@XZ        0044f38c f   nafxcw:filemem.obj
 0001:0004e3cf       ?Memcpy@CMemFile@@MAEPAEPAEPBEK@Z 0044f3cf f   nafxcw:filemem.obj
 0001:0004e3ed       ??_ECMemFile@@UAEPAXI@Z    0044f3ed f i nafxcw:filemem.obj
 0001:0004e3ed       ??_GCMemFile@@UAEPAXI@Z    0044f3ed f i nafxcw:filemem.obj
 0001:0004e409       ?GetRuntimeClass@CMenu@@UBEPAUCRuntimeClass@@XZ 0044f409 f   nafxcw:winmenu.obj
 0001:0004e40f       ?CreateObject@CMenu@@SGPAVCObject@@XZ 0044f40f f   nafxcw:winmenu.obj
 0001:0004e429       ?Construct@?$ConstructDestruct@VCMenu@@@@SGXPAVCObject@@@Z 0044f429 f i nafxcw:winmenu.obj
 0001:0004e43e       ?afxMapHMENU@@YGPAVCHandleMap@@H@Z 0044f43e f   nafxcw:winmenu.obj
 0001:0004e4b2       ?FromHandle@CMenu@@SGPAV1@PAUHMENU__@@@Z 0044f4b2 f   nafxcw:winmenu.obj
 0001:0004e4c0       ?FromHandlePermanent@CMenu@@SGPAV1@PAUHMENU__@@@Z 0044f4c0 f   nafxcw:winmenu.obj
 0001:0004e4da       ?Attach@CMenu@@QAEHPAUHMENU__@@@Z 0044f4da f   nafxcw:winmenu.obj
 0001:0004e503       ?Detach@CMenu@@QAEPAUHMENU__@@XZ 0044f503 f   nafxcw:winmenu.obj
 0001:0004e52d       ?DestroyMenu@CMenu@@QAEHXZ 0044f52d f   nafxcw:winmenu.obj
 0001:0004e543       ??1CMenu@@UAE@XZ           0044f543 f i nafxcw:winmenu.obj
 0001:0004e54e       ??_ECMenu@@UAEPAXI@Z       0044f54e f i nafxcw:winmenu.obj
 0001:0004e54e       ??_GCMenu@@UAEPAXI@Z       0044f54e f i nafxcw:winmenu.obj
 0001:0004e570       ?MeasureItem@CChevronOwnerDrawMenu@@UAEXPAUtagMEASUREITEMSTRUCT@@@Z 0044f570 f   nafxcw:winmenu.obj
 0001:0004e6b9       ??0CChevronOwnerDrawMenu@@QAE@XZ 0044f6b9 f   nafxcw:winmenu.obj
 0001:0004e720       ??1CChevronOwnerDrawMenu@@UAE@XZ 0044f720 f i nafxcw:winmenu.obj
 0001:0004e75a       ??_ECChevronOwnerDrawMenu@@UAEPAXI@Z 0044f75a f i nafxcw:winmenu.obj
 0001:0004e75a       ??_GCChevronOwnerDrawMenu@@UAEPAXI@Z 0044f75a f i nafxcw:winmenu.obj
 0001:0004e776       ?DrawItem@CChevronOwnerDrawMenu@@UAEXPAUtagDRAWITEMSTRUCT@@@Z 0044f776 f   nafxcw:winmenu.obj
 0001:0004ec0a       ?InitHashTable@CMapPtrToPtr@@QAEXIH@Z 0044fc0a f   nafxcw:map_pp.obj
 0001:0004ec0a       ?InitHashTable@CMapStringToPtr@@QAEXIH@Z 0044fc0a f   nafxcw:map_sp.obj
 0001:0004ec64       ?RemoveAll@CMapPtrToPtr@@QAEXXZ 0044fc64 f   nafxcw:map_pp.obj
 0001:0004ec8f       ?FreeAssoc@CMapPtrToPtr@@IAEXPAUCAssoc@1@@Z 0044fc8f f   nafxcw:map_pp.obj
 0001:0004eca8       ?GetAssocAt@CMapPtrToPtr@@IBEPAUCAssoc@1@PAXAAI1@Z 0044fca8 f   nafxcw:map_pp.obj
 0001:0004ece0       ?GetValueAt@CMapPtrToPtr@@QBEPAXPAX@Z 0044fce0 f   nafxcw:map_pp.obj
 0001:0004ed20       ?Lookup@CMapPtrToPtr@@QBEHPAXAAPAX@Z 0044fd20 f   nafxcw:map_pp.obj
 0001:0004ed47       ?RemoveKey@CMapPtrToPtr@@QAEHPAX@Z 0044fd47 f   nafxcw:map_pp.obj
 0001:0004ed8a       ?GetNextAssoc@CMapPtrToPtr@@QBEXAAPAU__POSITION@@AAPAX1@Z 0044fd8a f   nafxcw:map_pp.obj
 0001:0004ee05       ?GetRuntimeClass@CMapPtrToPtr@@UBEPAUCRuntimeClass@@XZ 0044fe05 f   nafxcw:map_pp.obj
 0001:0004ee0b       ??0CMapPtrToPtr@@QAE@H@Z   0044fe0b f   nafxcw:map_pp.obj
 0001:0004ee39       ??1CMapPtrToPtr@@UAE@XZ    0044fe39 f   nafxcw:map_pp.obj
 0001:0004ee44       ?NewAssoc@CMapPtrToPtr@@IAEPAUCAssoc@1@XZ 0044fe44 f   nafxcw:map_pp.obj
 0001:0004ee92       ??ACMapPtrToPtr@@QAEAAPAXPAX@Z 0044fe92 f   nafxcw:map_pp.obj
 0001:0004eee7       ??_ECMapPtrToPtr@@UAEPAXI@Z 0044fee7 f i nafxcw:map_pp.obj
 0001:0004eee7       ??_GCMapPtrToPtr@@UAEPAXI@Z 0044fee7 f i nafxcw:map_pp.obj
 0001:0004ef09       ?_AfxInitDBCS@@YGHXZ       0044ff09 f   nafxcw:afxdbcs.obj
 0001:0004ef40       ?AfxIsValidString@@YGHPBDH@Z 0044ff40 f   nafxcw:validadd.obj
 0001:0004ef4c       ?OsErrorToException@CFileException@@SGHJ@Z 0044ff4c f   nafxcw:filex.obj
 0001:0004f1e0       ?GetRuntimeClass@CFileException@@UBEPAUCRuntimeClass@@XZ 004501e0 f   nafxcw:filex.obj
 0001:0004f1e6       ?GetErrorMessage@CFileException@@UBEHPADIPAI@Z 004501e6 f   nafxcw:filex.obj
 0001:0004f29a       ?AfxThrowFileException@@YGXHJPBD@Z 0045029a f   nafxcw:filex.obj
 0001:0004f2e0       ?ThrowOsError@CFileException@@SGXJPBD@Z 004502e0 f   nafxcw:filex.obj
 0001:0004f301       ?AfxGetFileName@@YGIPBDPADI@Z 00450301 f   nafxcw:appinit.obj
 0001:0004f33f       ?SetCurrentHandles@CWinApp@@QAEXXZ 0045033f f   nafxcw:appinit.obj
 0001:0004f4be       ?AfxWinInit@@YGHPAUHINSTANCE__@@0PADH@Z 004504be f   nafxcw:appinit.obj
 0001:0004f542       ?GetStatus@CFile@@QBEHAAUCFileStatus@@@Z 00450542 f   nafxcw:filest.obj
 0001:0004f69b       ?GetFileName@CFile@@UBE?AV?$CStringT@DV?$StrTraitMFC@DV?$ChTraitsCRT@D@ATL@@@@@ATL@@XZ 0045069b f   nafxcw:filest.obj
 0001:0004f744       ?GetFileTitle@CFile@@UBE?AV?$CStringT@DV?$StrTraitMFC@DV?$ChTraitsCRT@D@ATL@@@@@ATL@@XZ 00450744 f   nafxcw:filest.obj
 0001:0004f7ed       ?GetFilePath@CFile@@UBE?AV?$CStringT@DV?$StrTraitMFC@DV?$ChTraitsCRT@D@ATL@@@@@ATL@@XZ 004507ed f   nafxcw:filest.obj
 0001:0004f854       ?RemoveAll@CPtrList@@QAEXXZ 00450854 f   nafxcw:list_p.obj
 0001:0004f874       ?FreeNode@CPtrList@@IAEXPAUCNode@1@@Z 00450874 f   nafxcw:list_p.obj
 0001:0004f896       ?RemoveHead@CPtrList@@QAEPAXXZ 00450896 f   nafxcw:list_p.obj
 0001:0004f8c7       ?RemoveAt@CPtrList@@QAEXPAU__POSITION@@@Z 004508c7 f   nafxcw:list_p.obj
 0001:0004f907       ?Find@CPtrList@@QBEPAU__POSITION@@PAXPAU2@@Z 00450907 f   nafxcw:list_p.obj
 0001:0004f926       ?GetRuntimeClass@CPtrList@@UBEPAUCRuntimeClass@@XZ 00450926 f   nafxcw:list_p.obj
 0001:0004f92c       ??0CPtrList@@QAE@H@Z       0045092c f   nafxcw:list_p.obj
 0001:0004f94f       ??1CPtrList@@UAE@XZ        0045094f f   nafxcw:list_p.obj
 0001:0004f95a       ?NewNode@CPtrList@@IAEPAUCNode@1@PAU21@0@Z 0045095a f   nafxcw:list_p.obj
 0001:0004f9b3       ?AddHead@CPtrList@@QAEPAU__POSITION@@PAX@Z 004509b3 f   nafxcw:list_p.obj
 0001:0004f9dd       ?AddTail@CPtrList@@QAEPAU__POSITION@@PAX@Z 004509dd f   nafxcw:list_p.obj
 0001:0004fa06       ?InsertBefore@CPtrList@@QAEPAU__POSITION@@PAU2@PAX@Z 00450a06 f   nafxcw:list_p.obj
 0001:0004fa43       ??_ECPtrList@@UAEPAXI@Z    00450a43 f i nafxcw:list_p.obj
 0001:0004fa43       ??_GCPtrList@@UAEPAXI@Z    00450a43 f i nafxcw:list_p.obj
 0001:0004fa65       ?AfxUnregisterWndClasses@@YGXXZ 00450a65 f   nafxcw:appterm.obj
 0001:0004fb04       ?AfxWinTerm@@YGXXZ         00450b04 f   nafxcw:appterm.obj
 0001:0004fb78       ?Read@CArchiveStream@@UAGJPAXKPAK@Z 00450b78 f   nafxcw:arcstrm.obj
 0001:0004fbc5       ?Write@CArchiveStream@@UAGJPBXKPAK@Z 00450bc5 f   nafxcw:arcstrm.obj
 0001:0004fc13       ?QueryInterface@CArchiveStream@@UAGJABU_GUID@@PAPAX@Z 00450c13 f   nafxcw:arcstrm.obj
 0001:0004fc5c       ?Seek@CArchiveStream@@UAGJT_LARGE_INTEGER@@KPAT_ULARGE_INTEGER@@@Z 00450c5c f   nafxcw:arcstrm.obj
 0001:0004fcc4       ??0CArchiveStream@@QAE@PAVCArchive@@@Z 00450cc4 f   nafxcw:arcstrm.obj
 0001:0004fcd6       ?HashKey@CMapStringToPtr@@QBEIPBD@Z 00450cd6 f i nafxcw:map_sp.obj
 0001:0004fcf7       ?GetRuntimeClass@CMapStringToPtr@@UBEPAUCRuntimeClass@@XZ 00450cf7 f   nafxcw:map_sp.obj
 0001:0004fcfd       ??0CMapStringToPtr@@QAE@H@Z 00450cfd f   nafxcw:map_sp.obj
 0001:0004fd2b       ?NewAssoc@CMapStringToPtr@@IAEPAUCAssoc@1@XZ 00450d2b f   nafxcw:map_sp.obj
 0001:0004fd85       ?GetAssocAt@CMapStringToPtr@@IBEPAUCAssoc@1@PBDAAI1@Z 00450d85 f   nafxcw:map_sp.obj
 0001:0004fdd7       ?Lookup@CMapStringToPtr@@QBEHPBDAAPAX@Z 00450dd7 f   nafxcw:map_sp.obj
 0001:0004fdfe       ?LookupKey@CMapStringToPtr@@QBEHPBDAAPBD@Z 00450dfe f   nafxcw:map_sp.obj
 0001:0004fe25       ?RemoveAll@CMapStringToPtr@@QAEXXZ 00450e25 f   nafxcw:map_sp.obj
 0001:0004fe81       ??1CMapStringToPtr@@UAE@XZ 00450e81 f   nafxcw:map_sp.obj
 0001:0004fe8c       ??_GCMapStringToPtr@@UAEPAXI@Z 00450e8c f i nafxcw:map_sp.obj
 0001:0004fe8c       ??_ECMapStringToPtr@@UAEPAXI@Z 00450e8c f i nafxcw:map_sp.obj
 0001:0004feae       ??ACMapStringToPtr@@QAEAAPAXPBD@Z 00450eae f   nafxcw:map_sp.obj
 0001:0004ff15       ?AddView@CDocument@@QAEXPAVCView@@@Z 00450f15 f   nafxcw:doccore.obj
 0001:0004ff35       ?RemoveView@CDocument@@QAEXPAVCView@@@Z 00450f35 f   nafxcw:doccore.obj
 0001:0004ff64       ?GetDefaultAccelerator@CFrameWnd@@UAEPAUHACCEL__@@XZ 00450f64 f   nafxcw:winfrm.obj
 0001:0004ff88       ?PreTranslateMessage@CFrameWnd@@UAEHPAUtagMSG@@@Z 00450f88 f   nafxcw:winfrm.obj
 0001:00050010       ?OnHelpHitTest@CFrameWnd@@IAEJIJ@Z 00451010 f   nafxcw:winfrm.obj
 0001:00050026       ?AfxIsDescendant@@YGHPAUHWND__@@0@Z 00451026 f   nafxcw:winfrm.obj
 0001:00050042       ?EndModalState@CFrameWnd@@UAEXXZ 00451042 f   nafxcw:winfrm.obj
 0001:000500b7       ?ShowOwnedWindows@CFrameWnd@@QAEXH@Z 004510b7 f   nafxcw:winfrm.obj
 0001:00050160       ?PreCreateWindow@CFrameWnd@@MAEHAAUtagCREATESTRUCTA@@@Z 00451160 f   nafxcw:winfrm.obj
 0001:00050197       ?OnUpdateFrameMenu@CFrameWnd@@UAEXPAUHMENU__@@@Z 00451197 f   nafxcw:winfrm.obj
 0001:000501cd       ?OnNcActivate@CFrameWnd@@IAEHH@Z 004511cd f   nafxcw:winfrm.obj
 0001:00050202       ?OnDDETerminate@CFrameWnd@@IAEJIJ@Z 00451202 f   nafxcw:winfrm.obj
 0001:0005021d       ?GetActiveView@CFrameWnd@@QBEPAVCView@@XZ 0045121d f   nafxcw:winfrm.obj
 0001:00050224       ?SetActiveView@CFrameWnd@@QAEXPAVCView@@H@Z 00451224 f   nafxcw:winfrm.obj
 0001:0005027e       ?OnSetFocus@CFrameWnd@@IAEXPAVCWnd@@@Z 0045127e f   nafxcw:winfrm.obj
 0001:00050297       ?OnInitMenu@CFrameWnd@@IAEXPAVCMenu@@@Z 00451297 f   nafxcw:winfrm.obj
 0001:000502bd       ?OnHelpPromptAddr@CFrameWnd@@IAEJIJ@Z 004512bd f   nafxcw:winfrm.obj
 0001:000502c3       ?DelayUpdateFrameMenu@CFrameWnd@@UAEXPAUHMENU__@@@Z 004512c3 f   nafxcw:winfrm.obj
 0001:000502d7       ??1?$CTypedPtrArray@VCObArray@@PAVCBitmap@@@@UAE@XZ 004512d7 f i nafxcw:winfrm.obj
 0001:000502dc       ?BringToTop@CFrameWnd@@IAEXH@Z 004512dc f   nafxcw:winfrm.obj
 0001:0005030b       ?GetDockingFrame@CControlBar@@QBEPAVCFrameWnd@@XZ 0045130b f   nafxcw:winfrm.obj
 0001:0005031f       ?IsFloating@CControlBar@@QBEHXZ 0045131f f   nafxcw:winfrm.obj
 0001:00050352       ?strncpy_s@Checked@ATL@@YAHPADIPBDI@Z 00451352 f i nafxcw:winfrm.obj
 0001:00050371       ?GetRuntimeClass@CFrameWnd@@UBEPAUCRuntimeClass@@XZ 00451371 f   nafxcw:winfrm.obj
 0001:00050377       ?SetSize@?$CArray@W4LoadArrayObjType@CArchive@@ABW412@@@QAEXHH@Z 00451377 f i nafxcw:arcobj.obj
 0001:00050377       ?SetSize@?$CArray@PAUHWND__@@PAU1@@@QAEXHH@Z 00451377 f i nafxcw:winfrm.obj
 0001:000504b0       ?SetAtGrow@?$CArray@PAUHWND__@@PAU1@@@QAEXHPAUHWND__@@@Z 004514b0 f i nafxcw:winfrm.obj
 0001:000504e0       ?RemoveAll@?$CList@PAUHWND__@@PAU1@@@QAEXXZ 004514e0 f i nafxcw:winfrm.obj
 0001:000504e0       ?RemoveAll@?$CList@PAVIControlSiteFactory@@PAV1@@@QAEXXZ 004514e0 f i nafxcw:occmgr.obj
 0001:0005050b       ?IsRectNull@CRect@@QBEHXZ  0045150b f i nafxcw:winfrm.obj
 0001:00050522       ??0CPushRoutingFrame@@QAE@PAVCFrameWnd@@@Z 00451522 f i nafxcw:winfrm.obj
 0001:00050554       ??1CPushRoutingFrame@@QAE@XZ 00451554 f i nafxcw:winfrm.obj
 0001:00050572       ?Pop@CPushRoutingFrame@@QAEXXZ 00451572 f i nafxcw:winfrm.obj
 0001:00050597       ?GetButtonCount@CToolBarCtrl@@QBEHXZ 00451597 f i nafxcw:winfrm.obj
 0001:000505aa       ?GetImageList@CToolBarCtrl@@QBEPAVCImageList@@XZ 004515aa f i nafxcw:winfrm.obj
 0001:000505c3       ?LoadAccelTable@CFrameWnd@@QAEHPBD@Z 004515c3 f   nafxcw:winfrm.obj
 0001:000505e9       ?OnPaletteChanged@CFrameWnd@@IAEXPAVCWnd@@@Z 004515e9 f   nafxcw:winfrm.obj
 0001:00050609       ?OnQueryNewPalette@CFrameWnd@@IAEHXZ 00451609 f   nafxcw:winfrm.obj
 0001:00050631       ?ExitHelpMode@CFrameWnd@@UAEXXZ 00451631 f   nafxcw:winfrm.obj
 0001:000506a5       ?OnSetCursor@CFrameWnd@@IAEHPAVCWnd@@II@Z 004516a5 f   nafxcw:winfrm.obj
 0001:000506d8       ?OnCommandHelp@CFrameWnd@@IAEJIJ@Z 004516d8 f   nafxcw:winfrm.obj
 0001:00050730       ?OnCommand@CFrameWnd@@MAEHIJ@Z 00451730 f   nafxcw:winfrm.obj
 0001:000507b0       ?NotifyFloatingWindows@CFrameWnd@@QAEXK@Z 004517b0 f   nafxcw:winfrm.obj
 0001:0005086b       ?CreateView@CFrameWnd@@QAEPAVCWnd@@PAUCCreateContext@@I@Z 0045186b f   nafxcw:winfrm.obj
 0001:000508e8       ?OnCreateClient@CFrameWnd@@MAEHPAUtagCREATESTRUCTA@@PAUCCreateContext@@@Z 004518e8 f   nafxcw:winfrm.obj
 0001:0005090a       ?OnCreateHelper@CFrameWnd@@IAEHPAUtagCREATESTRUCTA@@PAUCCreateContext@@@Z 0045190a f   nafxcw:winfrm.obj
 0001:00050959       ?GetIconWndClass@CFrameWnd@@IAEPBDKI@Z 00451959 f   nafxcw:winfrm.obj
 0001:000509de       ?OnClose@CFrameWnd@@IAEXXZ 004519de f   nafxcw:winfrm.obj
 0001:00050ad6       ?OnCmdMsg@CFrameWnd@@UAEHIHPAXPAUAFX_CMDHANDLERINFO@@@Z 00451ad6 f   nafxcw:winfrm.obj
 0001:00050b70       ?OnHScroll@CFrameWnd@@IAEXIIPAVCScrollBar@@@Z 00451b70 f   nafxcw:winfrm.obj
 0001:00050b98       ?OnVScroll@CFrameWnd@@IAEXIIPAVCScrollBar@@@Z 00451b98 f   nafxcw:winfrm.obj
 0001:00050bc0       ?OnActivateTopLevel@CFrameWnd@@IAEJIJ@Z 00451bc0 f   nafxcw:winfrm.obj
 0001:00050c52       ?OnActivate@CFrameWnd@@IAEXIPAVCWnd@@H@Z 00451c52 f   nafxcw:winfrm.obj
 0001:00050d33       ?OnSysCommand@CFrameWnd@@IAEXIJ@Z 00451d33 f   nafxcw:winfrm.obj
 0001:00050dd1       ?OnDropFiles@CFrameWnd@@IAEXPAUHDROP__@@@Z 00451dd1 f   nafxcw:winfrm.obj
 0001:00050e73       ?OnQueryEndSession@CFrameWnd@@IAEHXZ 00451e73 f   nafxcw:winfrm.obj
 0001:00050e97       ?OnEndSession@CFrameWnd@@IAEXH@Z 00451e97 f   nafxcw:winfrm.obj
 0001:00050ecf       ?OnDDEInitiate@CFrameWnd@@IAEJIJ@Z 00451ecf f   nafxcw:winfrm.obj
 0001:00050fb9       ?GetActiveDocument@CFrameWnd@@UAEPAVCDocument@@XZ 00451fb9 f   nafxcw:winfrm.obj
 0001:00050fca       ?ShowControlBar@CFrameWnd@@QAEXPAVCControlBar@@HH@Z 00451fca f   nafxcw:winfrm.obj
 0001:000510cf       ?OnInitMenuPopup@CFrameWnd@@IAEXPAVCMenu@@IH@Z 004520cf f   nafxcw:winfrm.obj
 0001:00051258       ?OnMenuSelect@CFrameWnd@@IAEXIIPAUHMENU__@@@Z 00452258 f   nafxcw:winfrm.obj
 0001:00051372       ?OnPopMessageString@CFrameWnd@@IAEJIJ@Z 00452372 f   nafxcw:winfrm.obj
 0001:00051395       ?GetMessageBar@CFrameWnd@@UAEPAVCWnd@@XZ 00452395 f   nafxcw:winfrm.obj
 0001:000513a5       ?SetMessageText@CFrameWnd@@QAEXPBD@Z 004523a5 f   nafxcw:winfrm.obj
 0001:000513bc       ?SetMessageText@CFrameWnd@@QAEXI@Z 004523bc f   nafxcw:winfrm.obj
 0001:000513d3       ?GetControlBar@CFrameWnd@@QAEPAVCControlBar@@I@Z 004523d3 f   nafxcw:winfrm.obj
 0001:00051426       ?OnUpdateControlBarMenu@CFrameWnd@@QAEXPAVCCmdUI@@@Z 00452426 f   nafxcw:winfrm.obj
 0001:00051464       ?OnBarCheck@CFrameWnd@@QAEHI@Z 00452464 f   nafxcw:winfrm.obj
 0001:0005149d       ?OnUpdateKeyIndicator@CFrameWnd@@IAEXPAVCCmdUI@@@Z 0045249d f   nafxcw:winfrm.obj
 0001:000514f5       ?OnUpdateContextHelp@CFrameWnd@@IAEXPAVCCmdUI@@@Z 004524f5 f   nafxcw:winfrm.obj
 0001:0005152d       ?OnSetPreviewMode@CFrameWnd@@UAEXHPAUCPrintPreviewState@@@Z 0045252d f   nafxcw:winfrm.obj
 0001:0005177e       ?OnIdleUpdateCmdUI@CFrameWnd@@IAEXXZ 0045277e f   nafxcw:winfrm.obj
 0001:000517f7       ?RecalcLayout@CFrameWnd@@UAEXH@Z 004527f7 f   nafxcw:winfrm.obj
 0001:000518e0       ?NegotiateBorderSpace@CFrameWnd@@UAEHIPAUtagRECT@@@Z 004528e0 f   nafxcw:winfrm.obj
 0001:0005194c       ?OnSize@CFrameWnd@@IAEXIHH@Z 0045294c f   nafxcw:winfrm.obj
 0001:0005196b       ?OnEraseBkgnd@CFrameWnd@@IAEHPAVCDC@@@Z 0045296b f   nafxcw:winfrm.obj
 0001:00051981       ?OnRegisteredMouseWheel@CFrameWnd@@IAEJIJ@Z 00452981 f   nafxcw:winfrm.obj
 0001:00051a27       ??_ECObArray@@UAEPAXI@Z    00452a27 f i nafxcw:array_o.obj
 0001:00051a27       ??_G?$CTypedPtrArray@VCObArray@@PAVCBitmap@@@@UAEPAXI@Z 00452a27 f i nafxcw:winfrm.obj
 0001:00051a27       ??_E?$CTypedPtrArray@VCObArray@@PAVCBitmap@@@@UAEPAXI@Z 00452a27 f i nafxcw:winfrm.obj
 0001:00051a27       ??_GCObArray@@UAEPAXI@Z    00452a27 f i nafxcw:array_o.obj
 0001:00051a43       ?ActivateFrame@CFrameWnd@@UAEXH@Z 00452a43 f   nafxcw:winfrm.obj
 0001:00051a94       ??1?$CArray@PAUHWND__@@PAU1@@@UAE@XZ 00452a94 f i nafxcw:winfrm.obj
 0001:00051aa9       ??0?$CList@PAUHWND__@@PAU1@@@QAE@H@Z 00452aa9 f i nafxcw:winfrm.obj
 0001:00051acc       ??1?$CList@PAUHWND__@@PAU1@@@UAE@XZ 00452acc f i nafxcw:winfrm.obj
 0001:00051ad7       ??_G?$CArray@PAUHWND__@@PAU1@@@UAEPAXI@Z 00452ad7 f i nafxcw:winfrm.obj
 0001:00051ad7       ??_E?$CArray@PAUHWND__@@PAU1@@@UAEPAXI@Z 00452ad7 f i nafxcw:winfrm.obj
 0001:00051af3       ??_E?$CList@PAUHWND__@@PAU1@@@UAEPAXI@Z 00452af3 f i nafxcw:winfrm.obj
 0001:00051af3       ??_G?$CList@PAUHWND__@@PAU1@@@UAEPAXI@Z 00452af3 f i nafxcw:winfrm.obj
 0001:00051b15       ?NewNode@?$CList@PAVIControlSiteFactory@@PAV1@@@IAEPAUCNode@1@PAU21@0@Z 00452b15 f i nafxcw:occmgr.obj
 0001:00051b15       ?NewNode@?$CList@PAUHWND__@@PAU1@@@IAEPAUCNode@1@PAU21@0@Z 00452b15 f i nafxcw:winfrm.obj
 0001:00051b73       ?GetProcAddress_ImageList_GetImageInfo@CComCtlWrapper@@QAE?AUImageList_GetImageInfo_Type@1@XZ 00452b73 f i nafxcw:winfrm.obj
 0001:00051b9e       ?_ImageList_GetImageInfo@CComCtlWrapper@@QAEHPAU_IMAGELIST@@HPAU_IMAGEINFO@@@Z 00452b9e f i nafxcw:winfrm.obj
 0001:00051c52       ?AfxImageList_GetImageInfo@@YGHPAU_IMAGELIST@@HPAU_IMAGEINFO@@@Z 00452c52 f i nafxcw:winfrm.obj
 0001:00051c70       ?BeginModalState@CFrameWnd@@UAEXXZ 00452c70 f   nafxcw:winfrm.obj
 0001:00051da0       ?OnEnable@CFrameWnd@@IAEXH@Z 00452da0 f   nafxcw:winfrm.obj
 0001:00051e83       ?OnCreate@CFrameWnd@@IAEHPAUtagCREATESTRUCTA@@@Z 00452e83 f   nafxcw:winfrm.obj
 0001:00051e9b       ?OnEnterIdle@CFrameWnd@@IAEXIPAVCWnd@@@Z 00452e9b f   nafxcw:winfrm.obj
 0001:00051ecc       ?Serialize@?$CArray@PAUHWND__@@PAU1@@@UAEXAAVCArchive@@@Z 00452ecc f i nafxcw:winfrm.obj
 0001:00051ecc       ?Serialize@?$CArray@W4LoadArrayObjType@CArchive@@ABW412@@@UAEXAAVCArchive@@@Z 00452ecc f i nafxcw:arcobj.obj
 0001:00051f09       ?AddTail@?$CList@PAVIControlSiteFactory@@PAV1@@@QAEPAU__POSITION@@PAVIControlSiteFactory@@@Z 00452f09 f i nafxcw:occmgr.obj
 0001:00051f09       ?AddTail@?$CList@PAUHWND__@@PAU1@@@QAEPAU__POSITION@@PAUHWND__@@@Z 00452f09 f i nafxcw:winfrm.obj
 0001:00051f32       ?AddFrameWnd@CFrameWnd@@IAEXXZ 00452f32 f   nafxcw:winfrm.obj
 0001:00051f4f       ?RemoveFrameWnd@CFrameWnd@@IAEXXZ 00452f4f f   nafxcw:winfrm.obj
 0001:00051f6c       ?OnSetMessageString@CFrameWnd@@IAEJIJ@Z 00452f6c f   nafxcw:winfrm.obj
 0001:0005202a       ?DestroyDockBars@CFrameWnd@@QAEXXZ 0045302a f   nafxcw:winfrm.obj
 0001:00052139       ?OnToolTipText@CFrameWnd@@IAEHIPAUtagNMHDR@@PAJ@Z 00453139 f   nafxcw:winfrm.obj
 0001:000522a8       ??0CFrameWnd@@QAE@XZ       004532a8 f   nafxcw:winfrm.obj
 0001:00052367       ?OnDestroy@CFrameWnd@@IAEXXZ 00453367 f   nafxcw:winfrm.obj
 0001:000523bf       ?GetMessageString@CFrameWnd@@UBEXIAAV?$CStringT@DV?$StrTraitMFC@DV?$ChTraitsCRT@D@ATL@@@@@ATL@@@Z 004533bf f   nafxcw:winfrm.obj
 0001:00052403       ?CreateObject@CFrameWnd@@SGPAVCObject@@XZ 00453403 f   nafxcw:winfrm.obj
 0001:00052433       ??1CFrameWnd@@UAE@XZ       00453433 f   nafxcw:winfrm.obj
 0001:00052595       ?LoadFrame@CFrameWnd@@UAEHIKPAVCWnd@@PAUCCreateContext@@@Z 00453595 f   nafxcw:winfrm.obj
 0001:0005267e       ??_ECFrameWnd@@UAEPAXI@Z   0045367e f i nafxcw:winfrm.obj
 0001:0005267e       ??_GCFrameWnd@@UAEPAXI@Z   0045367e f i nafxcw:winfrm.obj
 0001:0005269a       ?Create@CFrameWnd@@UAEHPBD0KABUtagRECT@@PAVCWnd@@0KPAUCCreateContext@@@Z 0045369a f   nafxcw:winfrm.obj
 0001:00052744       ?OnDDEExecute@CFrameWnd@@IAEJIJ@Z 00453744 f   nafxcw:winfrm.obj
 0001:00052831       ?OnChevronPushed@CFrameWnd@@IAEHIPAUtagNMHDR@@PAJ@Z 00453831 f   nafxcw:winfrm.obj
 0001:00052d5d       ?UpdateFrameTitleForDocument@CFrameWnd@@QAEXPBD@Z 00453d5d f   nafxcw:winfrm.obj
 0001:00052e4b       ?GetMessageMap@CFrameWnd@@MBEPBUAFX_MSGMAP@@XZ 00453e4b f   nafxcw:winfrm.obj
 0001:00052e51       ?OnUpdateFrameTitle@CFrameWnd@@UAEXH@Z 00453e51 f   nafxcw:winfrm.obj
 0001:00052e9d       ?GetRuntimeClass@CByteArray@@UBEPAUCRuntimeClass@@XZ 00453e9d f   nafxcw:array_b.obj
 0001:00052ea3       ??0CByteArray@@QAE@XZ      00453ea3 f   nafxcw:array_b.obj
 0001:00052eba       ??1CByteArray@@UAE@XZ      00453eba f   nafxcw:array_b.obj
 0001:00052eca       ?SetSize@CByteArray@@QAEXHH@Z 00453eca f   nafxcw:array_b.obj
 0001:00052fda       ?Serialize@CByteArray@@UAEXAAVCArchive@@@Z 00453fda f   nafxcw:array_b.obj
 0001:00053057       ?CreateObject@CByteArray@@SGPAVCObject@@XZ 00454057 f   nafxcw:array_b.obj
 0001:0005306d       ??_GCByteArray@@UAEPAXI@Z  0045406d f i nafxcw:array_b.obj
 0001:0005306d       ??_ECByteArray@@UAEPAXI@Z  0045406d f i nafxcw:array_b.obj
 0001:00053089       ?GetAt@?$CArray@W4LoadArrayObjType@CArchive@@ABW412@@@QAEAAW4LoadArrayObjType@CArchive@@H@Z 00454089 f i nafxcw:arcobj.obj
 0001:00053089       ?ElementAt@CObArray@@QAEAAPAVCObject@@H@Z 00454089 f i nafxcw:winfrm.obj
 0001:000530a5       ?CheckCount@CArchive@@QAEXXZ 004540a5 f   nafxcw:arcobj.obj
 0001:000530b9       ??0?$CArray@W4LoadArrayObjType@CArchive@@ABW412@@@QAE@XZ 004540b9 f i nafxcw:arcobj.obj
 0001:000530d0       ?InsertAt@?$CArray@W4LoadArrayObjType@CArchive@@ABW412@@@QAEXHABW4LoadArrayObjType@CArchive@@H@Z 004540d0 f i nafxcw:arcobj.obj
 0001:0005316e       ??1?$CArray@W4LoadArrayObjType@CArchive@@ABW412@@@UAE@XZ 0045416e f i nafxcw:arcobj.obj
 0001:00053183       ??_G?$CArray@W4LoadArrayObjType@CArchive@@ABW412@@@UAEPAXI@Z 00454183 f i nafxcw:arcobj.obj
 0001:00053183       ??_E?$CArray@W4LoadArrayObjType@CArchive@@ABW412@@@UAEPAXI@Z 00454183 f i nafxcw:arcobj.obj
 0001:0005319f       ?EnsureSchemaMapExists@CArchive@@QAEXPAPAV?$CArray@W4LoadArrayObjType@CArchive@@ABW412@@@@Z 0045419f f   nafxcw:arcobj.obj
 0001:00053239       ?MapObject@CArchive@@QAEXPBVCObject@@@Z 00454239 f   nafxcw:arcobj.obj
 0001:00053378       ?WriteClass@CArchive@@QAEXPBUCRuntimeClass@@@Z 00454378 f   nafxcw:arcobj.obj
 0001:00053421       ?ReadClass@CArchive@@QAEPAUCRuntimeClass@@PBU2@PAIPAK@Z 00454421 f   nafxcw:arcobj.obj
 0001:00053610       ?WriteObject@CArchive@@QAEXPBVCObject@@@Z 00454610 f   nafxcw:arcobj.obj
 0001:000536a7       ?ReadObject@CArchive@@QAEPAVCObject@@PBUCRuntimeClass@@@Z 004546a7 f   nafxcw:arcobj.obj
 0001:00053801       ?AfxFormatStrings@@YGXAAV?$CStringT@DV?$StrTraitMFC@DV?$ChTraitsCRT@D@ATL@@@@@ATL@@PBDPBQBDH@Z 00454801 f   nafxcw:apphelp.obj
 0001:00053943       ?AfxFormatStrings@@YGXAAV?$CStringT@DV?$StrTraitMFC@DV?$ChTraitsCRT@D@ATL@@@@@ATL@@IPBQBDH@Z 00454943 f   nafxcw:apphelp.obj
 0001:0005399a       ?AfxFormatString1@@YGXAAV?$CStringT@DV?$StrTraitMFC@DV?$ChTraitsCRT@D@ATL@@@@@ATL@@IPBD@Z 0045499a f   nafxcw:apphelp.obj
 0001:000539b1       ??0CFixedAllocNoSync@@QAE@II@Z 004549b1 f   nafxcw:fixalloc.obj
 0001:000539db       ?FreeAll@CFixedAllocNoSync@@QAEXXZ 004549db f   nafxcw:fixalloc.obj
 0001:000539f0       ??1CFixedAllocNoSync@@QAE@XZ 004549f0 f   nafxcw:fixalloc.obj
 0001:000539f5       ?Alloc@CFixedAllocNoSync@@QAEPAXXZ 004549f5 f   nafxcw:fixalloc.obj
 0001:00053a35       ?GetStackSize@CCmdTarget@@KGIPBEG@Z 00454a35 f   nafxcw:oledisp1.obj
 0001:00053a92       ?GetRuntimeClass@COleDispatchException@@UBEPAUCRuntimeClass@@XZ 00454a92 f   nafxcw:oledisp1.obj
 0001:00053a98       ?ElementAt@?$CArray@VCVariantBoolPair@@ABV1@@@QAEAAVCVariantBoolPair@@H@Z 00454a98 f i nafxcw:oledisp1.obj
 0001:00053ab4       ??0CVariantBoolPair@@QAE@PAHPAFH@Z 00454ab4 f i nafxcw:oledisp1.obj
 0001:00053adc       ??1CVariantBoolPair@@QAE@XZ 00454adc f i nafxcw:oledisp1.obj
 0001:00053aeb       ??_GCVariantBoolPair@@QAEPAXI@Z 00454aeb f i nafxcw:oledisp1.obj
 0001:00053b10       ?GetErrorMessage@COleDispatchException@@UBEHPADIPAI@Z 00454b10 f   nafxcw:oledisp1.obj
 0001:00053b36       ?SetSize@?$CArray@VCVariantBoolPair@@ABV1@@@QAEXHH@Z 00454b36 f i nafxcw:oledisp1.obj
 0001:00053d3a       ??$SerializeElements@VCVariantBoolPair@@@@YGXAAVCArchive@@PAVCVariantBoolPair@@H@Z 00454d3a f i nafxcw:oledisp1.obj
 0001:00053dc0       ??4CVariantBoolPair@@QAEAAV0@ABV0@@Z 00454dc0 f i nafxcw:oledisp1.obj
 0001:00053de6       ?CopyBOOLsIntoVarBools@CVariantBoolConverter@@QAEXXZ 00454de6 f i nafxcw:oledisp1.obj
 0001:00053e3c       ??1?$CArray@VCVariantBoolPair@@ABV1@@@UAE@XZ 00454e3c f i nafxcw:oledisp1.obj
 0001:00053e78       ?Serialize@?$CArray@VCVariantBoolPair@@ABV1@@@UAEXAAVCArchive@@@Z 00454e78 f i nafxcw:oledisp1.obj
 0001:00053eb5       ??_G?$CArray@VCVariantBoolPair@@ABV1@@@UAEPAXI@Z 00454eb5 f i nafxcw:oledisp1.obj
 0001:00053eb5       ??_E?$CArray@VCVariantBoolPair@@ABV1@@@UAEPAXI@Z 00454eb5 f i nafxcw:oledisp1.obj
 0001:00053ed1       ??1CVariantBoolConverter@@QAE@XZ 00454ed1 f i nafxcw:oledisp1.obj
 0001:00053ed6       ?SetAtGrow@?$CArray@VCVariantBoolPair@@ABV1@@@QAEXHABVCVariantBoolPair@@@Z 00454ed6 f i nafxcw:oledisp1.obj
 0001:00053f0d       ??1COleDispatchException@@UAE@XZ 00454f0d f   nafxcw:oledisp1.obj
 0001:00053f38       ??_ECOleDispatchException@@UAEPAXI@Z 00454f38 f i nafxcw:oledisp1.obj
 0001:00053f38       ??_GCOleDispatchException@@UAEPAXI@Z 00454f38 f i nafxcw:oledisp1.obj
 0001:00053f54       ?PushStackArgs@CCmdTarget@@IAEJPAEPBEPAXGPAUtagDISPPARAMS@@PAIPAUtagVARIANT@@PAVCVariantBoolConverter@@@Z 00454f54 f   nafxcw:oledisp1.obj
 0001:0005423c       ?CallMemberFunc@CCmdTarget@@IAEJPBUAFX_DISPMAP_ENTRY@@GPAUtagVARIANT@@PAUtagDISPPARAMS@@PAI@Z 0045523c f   nafxcw:oledisp1.obj
 0001:0005459c       ??0COleDispatchException@@QAE@PBDIG@Z 0045559c f   nafxcw:oledisp1.obj
 0001:00054623       ?Process@COleDispatchException@@SGXPAUtagEXCEPINFO@@PBVCException@@@Z 00455623 f   nafxcw:oledisp1.obj
 0001:000547a1       ??1CEnumArray@@UAE@XZ      004557a1 f   nafxcw:oleenum.obj
 0001:000547e8       ?OnSkip@CEnumArray@@MAEHXZ 004557e8 f   nafxcw:oleenum.obj
 0001:00054800       ?OnReset@CEnumArray@@MAEXXZ 00455800 f   nafxcw:oleenum.obj
 0001:00054805       ?AddRef@XEnumVOID@CEnumArray@@UAGKXZ 00455805 f   nafxcw:oleenum.obj
 0001:00054814       ?Release@XEnumVOID@CEnumArray@@UAGKXZ 00455814 f   nafxcw:oleenum.obj
 0001:00054823       ?QueryInterface@XEnumVOID@CEnumArray@@UAGJABU_GUID@@PAPAX@Z 00455823 f   nafxcw:oleenum.obj
 0001:0005483a       ??_GCEnumArray@@UAEPAXI@Z  0045583a f i nafxcw:oleenum.obj
 0001:0005483a       ??_ECEnumArray@@UAEPAXI@Z  0045583a f i nafxcw:oleenum.obj
 0001:00054856       ?OnNext@CEnumArray@@MAEHPAX@Z 00455856 f   nafxcw:oleenum.obj
 0001:00054889       ?Next@XEnumVOID@CEnumArray@@UAGJKPAXPAK@Z 00455889 f   nafxcw:oleenum.obj
 0001:00054928       ?Skip@XEnumVOID@CEnumArray@@UAGJK@Z 00455928 f   nafxcw:oleenum.obj
 0001:0005499f       ?Reset@XEnumVOID@CEnumArray@@UAGJXZ 0045599f f   nafxcw:oleenum.obj
 0001:000549e5       ?Clone@XEnumVOID@CEnumArray@@UAGJPAPAUIEnumVOID@@@Z 004559e5 f   nafxcw:oleenum.obj
 0001:00054a72       ??0CEnumArray@@QAE@IPBXIH@Z 00455a72 f   nafxcw:oleenum.obj
 0001:00054ab1       ?OnClone@CEnumArray@@MAEPAV1@XZ 00455ab1 f   nafxcw:oleenum.obj
 0001:00054af0       ??0COleDispatchDriver@@QAE@XZ 00455af0 f   nafxcw:oledisp2.obj
 0001:00054afd       ?ReleaseDispatch@COleDispatchDriver@@QAEXXZ 00455afd f   nafxcw:oledisp2.obj
 0001:00054b17       ??1COleDispParams@@QAE@XZ  00455b17 f i nafxcw:oledisp2.obj
 0001:00054b2c       ?AttachDispatch@COleDispatchDriver@@QAEXPAUIDispatch@@H@Z 00455b2c f   nafxcw:oledisp2.obj
 0001:00054b45       ?CopyVarBoolsIntoBOOLs@CVariantBoolConverter@@QAEXXZ 00455b45 f i nafxcw:oledisp2.obj
 0001:00054b9c       ?InvokeHelperV@COleDispatchDriver@@QAEXJGGPAXPBEPAD@Z 00455b9c f   nafxcw:oledisp2.obj
 0001:0005517c       ??0OLE_DATA@@QAE@XZ        0045617c f   nafxcw:oleinit.obj
 0001:00055202       ?AfxOleTerm@@YGXH@Z        00456202 f   nafxcw:oleinit.obj
 0001:00055259       ?AfxOleTermOrFreeLib@@YGXHH@Z 00456259 f   nafxcw:oleinit.obj
 0001:000552a8       ?AfxOleInit@@YGHXZ         004562a8 f   nafxcw:oleinit.obj
 0001:0005533c       ?GetRuntimeClass@CObArray@@UBEPAUCRuntimeClass@@XZ 0045633c f   nafxcw:array_o.obj
 0001:00055342       ??5@YGAAVCArchive@@AAV0@AAPAVCObject@@@Z 00456342 f i nafxcw:array_o.obj
 0001:0005535a       ??0CObArray@@QAE@XZ        0045635a f   nafxcw:array_o.obj
 0001:00055371       ??1CObArray@@UAE@XZ        00456371 f   nafxcw:array_o.obj
 0001:00055381       ?SetSize@CPtrArray@@QAEXHH@Z 00456381 f   nafxcw:array_p.obj
 0001:00055381       ?SetSize@CObArray@@QAEXHH@Z 00456381 f   nafxcw:array_o.obj
 0001:000554a5       ?SetAtGrow@CPtrArray@@QAEXHPAX@Z 004564a5 f   nafxcw:array_p.obj
 0001:000554a5       ?SetAtGrow@CObArray@@QAEXHPAVCObject@@@Z 004564a5 f   nafxcw:array_o.obj
 0001:000554d5       ?Serialize@CObArray@@UAEXAAVCArchive@@@Z 004564d5 f   nafxcw:array_o.obj
 0001:0005553c       ?CreateObject@CObArray@@SGPAVCObject@@XZ 0045653c f   nafxcw:array_o.obj
 0001:00055552       ?_GetButton@CToolBar@@IBEXHPAU_TBBUTTON@@@Z 00456552 f   nafxcw:bartool.obj
 0001:00055571       ?GetButtonInfo@CToolBar@@QBEXHAAI0AAH@Z 00456571 f   nafxcw:bartool.obj
 0001:000555c3       __AfxDispatchCall@12       004565c3 f   nafxcw:olecall.obj
 0001:000555d4       ?AfxOleUnlockAllControls@@YGXXZ 004565d4 f   nafxcw:occlock.obj
 0001:0005560d       ?Revoke@COleObjectFactory@@QAEXXZ 0045660d f   nafxcw:olefact.obj
 0001:0005562e       ?RevokeAll@COleObjectFactory@@SGXXZ 0045662e f   nafxcw:olefact.obj
 0001:00055658       ?CreateObject@?$CProcessLocal@V_AFX_OLE_STATE@@@@SGPAVCNoTrackObject@@XZ 00456658 f i nafxcw:oledobj2.obj
 0001:00055684       ?GetClipboardOwner@COleDataSource@@SGPAV1@XZ 00456684 f   nafxcw:oledobj2.obj
 0001:000556ca       ?FlushClipboard@COleDataSource@@SGXXZ 004566ca f   nafxcw:oledobj2.obj
 0001:000556da       ?BeginBusyState@COleMessageFilter@@UAEXXZ 004566da f   nafxcw:olemsgf.obj
 0001:000556de       ?EndBusyState@COleMessageFilter@@UAEXXZ 004566de f   nafxcw:olemsgf.obj
 0001:000556ea       ?Register@COleMessageFilter@@QAEHXZ 004566ea f   nafxcw:olemsgf.obj
 0001:00055707       ?Revoke@COleMessageFilter@@QAEXXZ 00456707 f   nafxcw:olemsgf.obj
 0001:00055720       ?OnMessagePending@COleMessageFilter@@UAEHPBUtagMSG@@@Z 00456720 f   nafxcw:olemsgf.obj
 0001:00055766       ?IsSignificantMessage@COleMessageFilter@@UAEHPAUtagMSG@@@Z 00456766 f   nafxcw:olemsgf.obj
 0001:000557bb       ?GetInterfaceMap@COleMessageFilter@@MBEPBUAFX_INTERFACEMAP@@XZ 004567bb f   nafxcw:olemsgf.obj
 0001:000557c1       ?AddRef@XMessageFilter@COleMessageFilter@@UAGKXZ 004567c1 f   nafxcw:olemsgf.obj
 0001:000557d0       ?Release@XMessageFilter@COleMessageFilter@@UAGKXZ 004567d0 f   nafxcw:olemsgf.obj
 0001:000557df       ?QueryInterface@XMessageFilter@COleMessageFilter@@UAGJABU_GUID@@PAPAX@Z 004567df f   nafxcw:olemsgf.obj
 0001:000557f6       ?HandleInComingCall@XMessageFilter@COleMessageFilter@@UAGKKPAUHTASK__@@KPAUtagINTERFACEINFO@@@Z 004567f6 f   nafxcw:olemsgf.obj
 0001:00055854       ??1COleMessageFilter@@UAE@XZ 00456854 f   nafxcw:olemsgf.obj
 0001:0005586a       ?OnBusyDialog@COleMessageFilter@@UAEHPAUHTASK__@@@Z 0045686a f   nafxcw:olemsgf.obj
 0001:000558d5       ?OnNotRespondingDialog@COleMessageFilter@@UAEHPAUHTASK__@@@Z 004568d5 f   nafxcw:olemsgf.obj
 0001:00055941       ?RetryRejectedCall@XMessageFilter@COleMessageFilter@@UAGKPAUHTASK__@@KK@Z 00456941 f   nafxcw:olemsgf.obj
 0001:000559d6       ?MessagePending@XMessageFilter@COleMessageFilter@@UAGKPAUHTASK__@@KK@Z 004569d6 f   nafxcw:olemsgf.obj
 0001:00055aba       ??_GCOleMessageFilter@@UAEPAXI@Z 00456aba f i nafxcw:olemsgf.obj
 0001:00055aba       ??_ECOleMessageFilter@@UAEPAXI@Z 00456aba f i nafxcw:olemsgf.obj
 0001:00055ad6       ??0COleMessageFilter@@QAE@XZ 00456ad6 f   nafxcw:olemsgf.obj
 0001:00055b18       ??0_AFX_OLE_STATE@@QAE@XZ  00456b18 f   nafxcw:oledata.obj
 0001:00055b21       ??_G_AFX_OLE_STATE@@UAEPAXI@Z 00456b21 f i nafxcw:oledata.obj
 0001:00055b21       ??_E_AFX_OLE_STATE@@UAEPAXI@Z 00456b21 f i nafxcw:oledata.obj
 0001:00055b3d       ?AfxOleHookProc@@YGIPAUHWND__@@IIJ@Z 00456b3d f   nafxcw:oledlgs2.obj
 0001:00055b88       ?MapResult@COleDialog@@QAEHI@Z 00456b88 f   nafxcw:oledlgs2.obj
 0001:00055ba6       ?GetRuntimeClass@COleBusyDialog@@UBEPAUCRuntimeClass@@XZ 00456ba6 f   nafxcw:oledlgs2.obj
 0001:00055bac       ??0COleDialog@@QAE@PAVCWnd@@@Z 00456bac f   nafxcw:oledlgs2.obj
 0001:00055bc4       ??0COleBusyDialog@@QAE@PAUHTASK__@@HKPAVCWnd@@@Z 00456bc4 f   nafxcw:oledlgs2.obj
 0001:00055c1c       ??1COleBusyDialog@@UAE@XZ  00456c1c f   nafxcw:oledlgs2.obj
 0001:00055c27       ?DoModal@COleBusyDialog@@UAEHXZ 00456c27 f   nafxcw:oledlgs2.obj
 0001:00055cba       ??_GCOleBusyDialog@@UAEPAXI@Z 00456cba f i nafxcw:oledlgs2.obj
 0001:00055cba       ??_ECOleBusyDialog@@UAEPAXI@Z 00456cba f i nafxcw:oledlgs2.obj
 0001:00055cdc       ?_JumpToContinuation@@YGXPAXPAUEHRegistrationNode@@@Z 00456cdc f   libcmt:trnsctrl.obj
 0001:00055d0c       ?_CallMemberFunction2@@YGXPAX00H@Z 00456d0c f   libcmt:trnsctrl.obj
 0001:00055d0c       ?_CallMemberFunction0@@YGXPAX0@Z 00456d0c f   libcmt:trnsctrl.obj
 0001:00055d0c       ?_CallMemberFunction1@@YGXPAX00@Z 00456d0c f   libcmt:trnsctrl.obj
 0001:00055d13       ?_UnwindNestedFrames@@YGXPAUEHRegistrationNode@@PAUEHExceptionRecord@@@Z 00456d13 f   libcmt:trnsctrl.obj
 0001:00055d65       ___CxxFrameHandler3        00456d65 f   libcmt:trnsctrl.obj
 0001:00055dcb       ?_CallSETranslator@@YAHPAUEHExceptionRecord@@PAUEHRegistrationNode@@PAX2PBU_s_FuncInfo@@H1@Z 00456dcb f   libcmt:trnsctrl.obj
 0001:00055f3d       ?_GetRangeOfTrysToCheck@@YAPBU_s_TryBlockMapEntry@@PBU_s_FuncInfo@@HHPAI1@Z 00456f3d f   libcmt:trnsctrl.obj
 0001:00055fb0       __CreateFrameInfo          00456fb0 f   libcmt:trnsctrl.obj
 0001:00055fd8       __IsExceptionObjectToBeDestroyed 00456fd8 f   libcmt:trnsctrl.obj
 0001:00055ff9       __FindAndUnlinkFrame       00456ff9 f   libcmt:trnsctrl.obj
 0001:00056045       ?_CallCatchBlock2@@YAPAXPAUEHRegistrationNode@@PBU_s_FuncInfo@@PAXHK@Z 00457045 f   libcmt:trnsctrl.obj
 0001:000560a3       @__security_check_cookie@4 004570a3 f   libcmt:secchk.obj
 0001:000560c0       __alloca_probe_16          004570c0 f   libcmt:alloca16.obj
 0001:000560d6       __alloca_probe_8           004570d6     libcmt:alloca16.obj
 0001:000560f0       __allmul                   004570f0 f   libcmt:llmul.obj
 0001:00056124       __resetstkoflw             00457124 f   libcmt:resetstk.obj
 0001:00056250       __except_handler4          00457250 f   libcmt:chandler4.obj
 0001:000563e6       _wcslen                    004573e6 f   libcmt:wcslen.obj
 0001:000563fc       _wcscpy_s                  004573fc f   libcmt:wcscpy_s.obj
 0001:00056468       ??1type_info@@UAE@XZ       00457468 f   libcmt:typinfo.obj
 0001:00056476       ??_Gtype_info@@UAEPAXI@Z   00457476 f i libcmt:typinfo.obj
 0001:00056476       ??_Etype_info@@UAEPAXI@Z   00457476 f i libcmt:typinfo.obj
 0001:00056492       ??8type_info@@QBE_NABV0@@Z 00457492 f   libcmt:typinfo.obj
 0001:000564b0       _memcpy                    004574b0 f   libcmt:memcpy.obj
 0001:00056820       _strlen                    00457820 f   libcmt:strlen.obj
 0001:000568ab       _memcmp                    004578ab f   libcmt:memcmp.obj
 0001:00057f30       _memset                    00458f30 f   libcmt:memset.obj
 0001:00057faa       _V6_HeapAlloc              00458faa f   libcmt:malloc.obj
 0001:00057ff9       _malloc                    00458ff9 f   libcmt:malloc.obj
 0001:000580bc       _free                      004590bc f   libcmt:free.obj
 0001:0005814a       _memcpy_s                  0045914a f   libcmt:memcpy_s.obj
 0001:000581c5       _memmove_s                 004591c5 f   libcmt:memmove_s.obj
 0001:00058220       __vscprintf_helper         00459220 f   libcmt:vsprintf.obj
 0001:00058275       __vscprintf                00459275 f   libcmt:vsprintf.obj
 0001:0005828d       __vsnprintf_helper         0045928d f   libcmt:vsnprnc.obj
 0001:00058357       __vsprintf_s_l             00459357 f   libcmt:vsnprnc.obj
 0001:000583dd       _vsprintf_s                004593dd f   libcmt:vsnprnc.obj
 0001:000583f8       __vsnprintf_s_l            004593f8 f   libcmt:vsnprnc.obj
 0001:000584fd       __calloc_impl              004594fd f   libcmt:calloc.obj
 0001:0005861b       _calloc                    0045961b f   libcmt:calloc.obj
 0001:0005865a       _realloc                   0045965a f   libcmt:realloc.obj
 0001:00058875       __recalloc                 00459875 f   libcmt:realloc.obj
 0001:000589a7       ___onexitinit              004599a7 f   libcmt:onexit.obj
 0001:000589d6       __onexit                   004599d6 f   libcmt:onexit.obj
 0001:00058a12       _atexit                    00459a12 f   libcmt:onexit.obj
 0001:00058a24       __endthreadex              00459a24 f   libcmt:threadex.obj
 0001:00058b1e       __beginthreadex            00459b1e f   libcmt:threadex.obj
 0001:00058bcc       __initp_misc_invarg        00459bcc f   libcmt:invarg.obj
 0001:00058bd6       __invoke_watson            00459bd6 f   libcmt:invarg.obj
 0001:00058cd2       __invalid_parameter        00459cd2 f   libcmt:invarg.obj
 0001:00058cf6       __invalid_parameter_noinfo 00459cf6 f   libcmt:invarg.obj
 0001:00058d06       __CxxThrowException@8      00459d06 f   libcmt:throw.obj
 0001:00058d50       ??0exception@std@@QAE@XZ   00459d50 f   libcmt:stdexcpt.obj
 0001:00058d61       ??0exception@std@@QAE@ABQBD@Z 00459d61 f   libcmt:stdexcpt.obj
 0001:00058daf       ??0exception@std@@QAE@ABV01@@Z 00459daf f   libcmt:stdexcpt.obj
 0001:00058e07       ??1exception@std@@UAE@XZ   00459e07 f   libcmt:stdexcpt.obj
 0001:00058e1d       ?what@exception@std@@UBEPBDXZ 00459e1d f   libcmt:stdexcpt.obj
 0001:00058e2a       ??_Gexception@std@@UAEPAXI@Z 00459e2a f i libcmt:stdexcpt.obj
 0001:00058e2a       ??_Eexception@std@@UAEPAXI@Z 00459e2a f i libcmt:stdexcpt.obj
 0001:00058e46       _abs                       00459e46 f   libcmt:abs.obj
 0001:00058e46       _labs                      00459e46 f   libcmt:labs.obj
 0001:00058e60       __alldiv                   00459e60 f   libcmt:lldiv.obj
 0001:00058f0a       _atol                      00459f0a f   libcmt:atox.obj
 0001:00058f1b       _atoi                      00459f1b f   libcmt:atox.obj
 0001:00058f20       __atoi64                   00459f20 f   libcmt:atox.obj
 0001:00058f31       _sprintf                   00459f31 f   libcmt:sprintf.obj
 0001:00058fac       _sprintf_s                 00459fac f   libcmt:sprintf.obj
 0001:00058fc8       __snprintf_s               00459fc8 f   libcmt:sprintf.obj
 0001:00058fe7       __cfltcvt_init             00459fe7 f   libcmt:fpinit.obj
 0001:00059047       __fpmath                   0045a047 f   libcmt:fpinit.obj
 0001:00059070       __allrem                   0045a070 f   libcmt:llrem.obj
 0001:00059122       ___time64_t_from_ft        0045a122 f   libcmt:findfi32.obj
 0001:00059188       __findfirst64i32           0045a188 f   libcmt:findfi32.obj
 0001:000592b8       ??0_LocaleUpdate@@QAE@PAUlocaleinfo_struct@@@Z 0045a2b8 f i libcmt:mbsstr.obj
 0001:0005933a       __mbsstr_l                 0045a33a f   libcmt:mbsstr.obj
 0001:00059479       __mbsstr                   0045a479 f   libcmt:mbsstr.obj
 0001:0005948c       __mbsrchr_l                0045a48c f   libcmt:mbsrchr.obj
 0001:0005954c       __mbsrchr                  0045a54c f   libcmt:mbsrchr.obj
 0001:00059560       __local_unwind4            0045a560 f   libcmt:exsup4.obj
 0001:00059636       __seh_longjmp_unwind4@4    0045a636 f   libcmt:exsup4.obj
 0001:00059652       @_EH4_CallFilterFunc@8     0045a652 f   libcmt:exsup4.obj
 0001:00059669       @_EH4_TransferToHandler@8  0045a669 f   libcmt:exsup4.obj
 0001:00059682       @_EH4_GlobalUnwind@4       0045a682 f   libcmt:exsup4.obj
 0001:0005969c       @_EH4_LocalUnwind@16       0045a69c f   libcmt:exsup4.obj
 0001:000596b3       _strcpy_s                  0045a6b3 f   libcmt:strcpy_s.obj
 0001:00059720       _strcmp                    0045a720 f   libcmt:strcmp.obj
 0001:000597b0       _strcpy                    0045a7b0 f   libcmt:strcat.obj
 0001:000597c0       _strcat                    0045a7c0 f   libcmt:strcat.obj
 0001:000598b0       __chkstk                   0045a8b0 f   libcmt:chkstk.obj
 0001:000598b0       __alloca_probe             0045a8b0     libcmt:chkstk.obj
 0001:000598db       __localtime64_s            0045a8db f   libcmt:loctim64.obj
 0001:00059ba0       __time64                   0045aba0 f   libcmt:time64.obj
 0001:00059bdc       __mbsinc                   0045abdc f   libcmt:mbsinc.obj
 0001:00059c1d       __ismbcspace_l             0045ac1d f   libcmt:ismbspc.obj
 0001:00059cdf       __ismbcspace               0045acdf f   libcmt:ismbspc.obj
 0001:00059ced       __mbschr_l                 0045aced f   libcmt:mbschr.obj
 0001:00059da7       __mbschr                   0045ada7 f   libcmt:mbschr.obj
 0001:00059dba       __mbscmp_l                 0045adba f   libcmt:mbscmp.obj
 0001:00059ed6       __mbscmp                   0045aed6 f   libcmt:mbscmp.obj
 0001:00059ee9       __freea                    0045aee9 f i libcmt:strftime.obj
 0001:0005a7e0       __Strftime_l               0045b7e0 f   libcmt:strftime.obj
 0001:0005a98f       _strftime                  0045b98f f   libcmt:strftime.obj
 0001:0005a9ac       _strcat_s                  0045b9ac f   libcmt:strcat_s.obj
 0001:0005aa1d       __access_s                 0045ba1d f   libcmt:access.obj
 0001:0005aaa4       __access                   0045baa4 f   libcmt:access.obj
 0001:0005aac0       __ftol2_sse                0045bac0 f   libcmt:ftol2.obj
 0001:0005aac9       __ftol2_pentium4           0045bac9 f   libcmt:ftol2.obj
 0001:0005aadc       __ftol2_sse_excpt          0045badc f   libcmt:ftol2.obj
 0001:0005aaf6       __ftol2                    0045baf6 f   libcmt:ftol2.obj
 0001:0005ae1e       __mktime64                 0045be1e f   libcmt:mktime64.obj
 0001:0005ae2b       __mbsspn_l                 0045be2b f   libcmt:mbsspn.obj
 0001:0005aef0       __mbsspn                   0045bef0 f   libcmt:mbsspn.obj
 0001:0005af03       __mbscspn_l                0045bf03 f   libcmt:mbscspn.obj
 0001:0005afc8       __mbscspn                  0045bfc8 f   libcmt:mbscspn.obj
 0001:0005b220       _WinMainCRTStartup         0045c220 f   libcmt:wincrt0.obj
 0001:0005b22a       __mbsnbcpy_s               0045c22a f   libcmt:mbsnbcpy_s.obj
 0001:0005b245       __EH_prolog3               0045c245 f   libcmt:ehprolg3.obj
 0001:0005b278       __EH_prolog3_catch         0045c278 f   libcmt:ehprolg3.obj
 0001:0005b2ae       __EH_prolog3_GS            0045c2ae f   libcmt:ehprolg3.obj
 0001:0005b2e4       __EH_prolog3_catch_GS      0045c2e4 f   libcmt:ehprolg3.obj
 0001:0005b31d       __EH_epilog3               0045c31d f   libcmt:ehprolg3.obj
 0001:0005b331       __EH_epilog3_GS            0045c331 f   libcmt:ehprolg3.obj
 0001:0005b340       __EH_epilog3_catch_GS      0045c340 f   libcmt:ehprolg3.obj
 0001:0005b350       __SEH_prolog4_GS           0045c350 f   libcmt:sehprolg4gs.obj
 0001:0005b398       __SEH_epilog4_GS           0045c398 f   libcmt:sehprolg4gs.obj
 0001:0005b3a7       __get_errno_from_oserr     0045c3a7 f   libcmt:dosmap.obj
 0001:0005b3e2       __errno                    0045c3e2 f   libcmt:dosmap.obj
 0001:0005b3f5       ___doserrno                0045c3f5 f   libcmt:dosmap.obj
 0001:0005b408       __dosmaperr                0045c408 f   libcmt:dosmap.obj
 0001:0005b426       __amsg_exit                0045c426 f   libcmt:crt0dat.obj
 0001:0005b44a       ___crtCorExitProcess       0045c44a f   libcmt:crt0dat.obj
 0001:0005b470       ___crtExitProcess          0045c470 f   libcmt:crt0dat.obj
 0001:0005b485       __lockexit                 0045c485 f   libcmt:crt0dat.obj
 0001:0005b48e       __unlockexit               0045c48e f   libcmt:crt0dat.obj
 0001:0005b4af       __initterm_e               0045c4af f   libcmt:crt0dat.obj
 0001:0005b4cf       __get_osplatform           0045c4cf f   libcmt:crt0dat.obj
 0001:0005b506       __get_winmajor             0045c506 f   libcmt:crt0dat.obj
 0001:0005b542       __cinit                    0045c542 f   libcmt:crt0dat.obj
 0001:0005b6b6       _exit                      0045c6b6 f   libcmt:crt0dat.obj
 0001:0005b6c7       __exit                     0045c6c7 f   libcmt:crt0dat.obj
 0001:0005b6d8       __cexit                    0045c6d8 f   libcmt:crt0dat.obj
 0001:0005b6e7       __c_exit                   0045c6e7 f   libcmt:crt0dat.obj
 0001:0005b6f6       __init_pointers            0045c6f6 f   libcmt:crt0dat.obj
 0001:0005b7aa       _sscanf_s                  0045c7aa f   libcmt:sscanf.obj
 0001:0005b7c9       __strdup                   0045c7c9 f   libcmt:strdup.obj
 0001:0005b81c       __SEH_prolog4              0045c81c f   libcmt:sehprolg4.obj
 0001:0005b861       __SEH_epilog4              0045c861 f   libcmt:sehprolg4.obj
 0001:0005b875       __purecall                 0045c875 f   libcmt:purevirt.obj
 0001:0005b89f       _strncpy_s                 0045c89f f   libcmt:strncpy_s.obj
 0001:0005b952       __mbsdec_l                 0045c952 f   libcmt:mbsdec.obj
 0001:0005b9e9       __mbsdec                   0045c9e9 f   libcmt:mbsdec.obj
 0001:0005b9fc       __splitpath_s              0045c9fc f   libcmt:splitpath_s.obj
 0001:0005bbf9       __makepath_s               0045cbf9 f   libcmt:makepath_s.obj
 0001:0005bd00       __fullpath                 0045cd00 f   libcmt:fullpath.obj
 0001:0005be08       _abort                     0045ce08 f   libcmt:abort.obj
 0001:0005befb       __set_abort_behavior       0045cefb f   libcmt:abort.obj
 0001:0005bf6a       __ismbblead_l              0045cf6a f   libcmt:ismbbyte.obj
 0001:0005bf7f       __ismbblead                0045cf7f f   libcmt:ismbbyte.obj
 0001:0005bf92       __expand                   0045cf92 f   libcmt:expand.obj
 0001:0005c090       __msize                    0045d090 f   libcmt:msize.obj
 0001:0005c20e       __ltoa_s                   0045d20e f   libcmt:xtoas.obj
 0001:0005c233       __ultoa_s                  0045d233 f   libcmt:xtoas.obj
 0001:0005c476       _strtol                    0045d476 f   libcmt:strtol.obj
 0001:0005c49f       _strtoul                   0045d49f f   libcmt:strtol.obj
 0001:0005c4c9       __ismbcdigit_l             0045d4c9 f   libcmt:ismbdgt.obj
 0001:0005c58e       __ismbcdigit               0045d58e f   libcmt:ismbdgt.obj
 0001:0005c59c       _wcsncpy_s                 0045d59c f   libcmt:wcsncpy_s.obj
 0001:0005c665       ??1bad_exception@std@@UAE@XZ 0045d665 f i libcmt:frame.obj
 0001:0005c670       ??_Ebad_exception@std@@UAEPAXI@Z 0045d670 f i libcmt:frame.obj
 0001:0005c670       ??_Gbad_exception@std@@UAEPAXI@Z 0045d670 f i libcmt:frame.obj
 0001:0005c692       ___TypeMatch               0045d692 f   libcmt:frame.obj
 0001:0005c6ee       ___FrameUnwindFilter       0045d6ee f   libcmt:frame.obj
 0001:0005c732       ___FrameUnwindToState      0045d732 f   libcmt:frame.obj
 0001:0005c858       ___DestructExceptionObject 0045d858 f   libcmt:frame.obj
 0001:0005c8ac       ___AdjustPointer           0045d8ac f   libcmt:frame.obj
 0001:0005cb2f       ___BuildCatchObjectHelper  0045db2f f   libcmt:frame.obj
 0001:0005ccae       ___BuildCatchObject        0045dcae f   libcmt:frame.obj
 0001:0005d1f3       ??0bad_exception@std@@QAE@ABV01@@Z 0045e1f3 f i libcmt:frame.obj
 0001:0005d20b       ___InternalCxxFrameHandler 0045e20b f   libcmt:frame.obj
 0001:0005d35b       __encode_pointer           0045e35b f   libcmt:tidtable.obj
 0001:0005d3c9       __encoded_null             0045e3c9 f   libcmt:tidtable.obj
 0001:0005d3d2       __decode_pointer           0045e3d2 f   libcmt:tidtable.obj
 0001:0005d440       ___crtTlsAlloc@4           0045e440 f   libcmt:tidtable.obj
 0001:0005d449       ___fls_getvalue@4          0045e449 f   libcmt:tidtable.obj
 0001:0005d45e       ___get_flsindex            0045e45e f   libcmt:tidtable.obj
 0001:0005d464       ___set_flsgetvalue         0045e464 f   libcmt:tidtable.obj
 0001:0005d496       ___fls_setvalue@8          0045e496 f   libcmt:tidtable.obj
 0001:0005d4af       __mtterm                   0045e4af f   libcmt:tidtable.obj
 0001:0005d4ec       __initptd                  0045e4ec f   libcmt:tidtable.obj
 0001:0005d5ab       __getptd_noexit            0045e5ab f   libcmt:tidtable.obj
 0001:0005d622       __getptd                   0045e622 f   libcmt:tidtable.obj
 0001:0005d63a       __freefls@4                0045e63a f   libcmt:tidtable.obj
 0001:0005d75b       __freeptd                  0045e75b f   libcmt:tidtable.obj
 0001:0005d7c4       __mtinit                   0045e7c4 f   libcmt:tidtable.obj
 0001:0005d948       ?terminate@@YAXXZ          0045e948 f   libcmt:hooks.obj
 0001:0005d981       ?unexpected@@YAXXZ         0045e981 f   libcmt:hooks.obj
 0001:0005d994       ?_inconsistency@@YAXXZ     0045e994 f   libcmt:hooks.obj
 0001:0005d9cb       __initp_eh_hooks           0045e9cb f   libcmt:hooks.obj
 0001:0005d9e0       __CallSettingFrame@12      0045e9e0 f   libcmt:lowhelpr.obj
 0001:0005da07       __NLG_Return               0045ea07     libcmt:lowhelpr.obj
 0001:0005da2c       ___report_gsfailure        0045ea2c f   libcmt:gs_report.obj
 0001:0005db30       __ValidateImageBase        0045eb30 f   libcmt:pesect.obj
 0001:0005db60       __FindPESection            0045eb60 f   libcmt:pesect.obj
 0001:0005dbb0       __IsNonwritableInCurrentImage 0045ebb0 f   libcmt:pesect.obj
 0001:0005dc6b       ?_Type_info_dtor@type_info@@CAXPAV1@@Z 0045ec6b f   libcmt:typname.obj
 0001:0005dd62       __VEC_memcpy               0045ed62 f   libcmt:p4_memcpy.obj
 0001:0005de45       __sse2_mathfcns_init       0045ee45 f   libcmt:mathfcns.obj
 0001:0005deb0       __VEC_memzero              0045eeb0 f   libcmt:p4_memset.obj
 0001:0005df3f       __mtinitlocks              0045ef3f f   libcmt:mlock.obj
 0001:0005df88       __mtdeletelocks            0045ef88 f   libcmt:mlock.obj
 0001:0005dfdd       __unlock                   0045efdd f   libcmt:mlock.obj
 0001:0005dff2       __mtinitlocknum            0045eff2 f   libcmt:mlock.obj
 0001:0005e0b5       __lock                     0045f0b5 f   libcmt:mlock.obj
 0001:0005e0e6       ___sbh_heap_init           0045f0e6 f   libcmt:sbheap.obj
 0001:0005e12e       ___sbh_find_block          0045f12e f   libcmt:sbheap.obj
 0001:0005e159       ___sbh_free_block          0045f159 f   libcmt:sbheap.obj
 0001:0005e46d       ___sbh_alloc_new_region    0045f46d f   libcmt:sbheap.obj
 0001:0005e51d       ___sbh_alloc_new_group     0045f51d f   libcmt:sbheap.obj
 0001:0005e623       ___sbh_resize_block        0045f623 f   libcmt:sbheap.obj
 0001:0005e902       ___sbh_alloc_block         0045f902 f   libcmt:sbheap.obj
 0001:0005ebe5       ___heap_select             0045fbe5 f   libcmt:heapinit.obj
 0001:0005ec40       __heap_init                0045fc40 f   libcmt:heapinit.obj
 0001:0005ec9a       __NMSG_WRITE               0045fc9a f   libcmt:crt0msg.obj
 0001:0005ee3a       __FF_MSGBANNER             0045fe3a f   libcmt:crt0msg.obj
 0001:0005ee73       __initp_heap_handler       0045fe73 f   libcmt:handler.obj
 0001:0005ee7d       __callnewh                 0045fe7d f   libcmt:handler.obj
 0001:0005eea0       _memmove                   0045fea0 f   libcmt:memmove.obj
 0001:0005f205       __flsbuf                   00460205 f   libcmt:_flsbuf.obj
 0001:0005f3af       __output_l                 004603af f   libcmt:output.obj
 0001:0005fd9a       __output_s_l               00460d9a f   libcmt:outputs.obj
 0001:0006074a       __malloc_crt               0046174a f   libcmt:crtheap.obj
 0001:0006078a       __calloc_crt               0046178a f   libcmt:crtheap.obj
 0001:000607d2       __realloc_crt              004617d2 f   libcmt:crtheap.obj
 0001:0006081d       __recalloc_crt             0046181d f   libcmt:crtheap.obj
 0001:0006086d       ?InitLibId@CWinApp@@UAEXXZ 0046186d f   nafxcw:appui2.obj
 0001:0006086d       ?PreSubclassWindow@CWnd@@UAEXXZ 0046186d f   nafxcw:wincore.obj
 0001:0006086d       ?OnDestroy@CHtmlView@@IAEXXZ 0046186d f   nafxcw:viewhtml.obj
 0001:0006086d       ?OnTypeChange@CFileDialog@@MAEXXZ 0046186d f   nafxcw:dlgfile.obj
 0001:0006086d       ?OnDragLeave@CView@@UAEXXZ 0046186d f   nafxcw:viewcore.obj
 0001:0006086d       ?OnFileNameChange@CFileDialog@@MAEXXZ 0046186d f   nafxcw:dlgfile.obj
 0001:0006086d       ?PostNcDestroy@CWnd@@MAEXXZ 0046186d f   nafxcw:wincore.obj
 0001:0006086d       __initp_misc_winxfltr      0046186d f   libcmt:winxfltr.obj
 0001:0006086d       ?OnFolderChange@CFileDialog@@MAEXXZ 0046186d f   nafxcw:dlgfile.obj
 0001:0006086d       ?OnDownloadBegin@CHtmlView@@UAEXXZ 0046186d f   nafxcw:viewhtml.obj
 0001:0006086d       ?Flush@CMemFile@@UAEXXZ    0046186d f   nafxcw:filemem.obj
 0001:0006086d       __fpclear                  0046186d f   libcmt:fpinit.obj
 0001:0006086d       ?PreInitDialog@CDialog@@MAEXXZ 0046186d f   nafxcw:dlgcore.obj
 0001:0006086d       ?OnQuit@CHtmlView@@UAEXXZ  0046186d f   nafxcw:viewhtml.obj
 0001:0006086d       ?OnDownloadComplete@CHtmlView@@UAEXXZ 0046186d f   nafxcw:viewhtml.obj
 0001:0006086e       __XcptFilter               0046186e f   libcmt:winxfltr.obj
 0001:000609cc       __crt_debugger_hook        004619cc f   libcmt:dbghook.obj
 0001:00060c68       __strtoi64                 00461c68 f   libcmt:strtoq.obj
 0001:00060c91       __forcdecpt_l              00461c91 f   libcmt:cvt.obj
 0001:00060d02       __cropzeros_l              00461d02 f   libcmt:cvt.obj
 0001:00060d82       __positive                 00461d82 f   libcmt:cvt.obj
 0001:00060d98       __fassign_l                00461d98 f   libcmt:cvt.obj
 0001:00060dd8       __fassign                  00461dd8 f   libcmt:cvt.obj
 0001:00060e0c       __forcdecpt                00461e0c f   libcmt:cvt.obj
 0001:00060e1a       __cropzeros                00461e1a f   libcmt:cvt.obj
 0001:00060f95       __cftoe_l                  00461f95 f   libcmt:cvt.obj
 0001:00061063       __cftoe                    00462063 f   libcmt:cvt.obj
 0001:00061081       __cftoa_l                  00462081 f   libcmt:cvt.obj
 0001:000614e7       __cftof_l                  004624e7 f   libcmt:cvt.obj
 0001:000615a0       __cftog_l                  004625a0 f   libcmt:cvt.obj
 0001:00061698       __cfltcvt_l                00462698 f   libcmt:cvt.obj
 0001:0006171e       __cfltcvt                  0046271e f   libcmt:cvt.obj
 0001:0006173f       __initp_misc_cfltcvt_tab   0046273f f   libcmt:cmiscdat.obj
 0001:0006175e       __setdefaultprecision      0046275e f   libcmt:fp8.obj
 0001:00061787       __ms_p5_test_fdiv          00462787 f   libcmt:testfdiv.obj
 0001:000617c3       __ms_p5_mp_test_fdiv       004627c3 f   libcmt:testfdiv.obj
 0001:000617ec       ___loctotime64_t           004627ec f   libcmt:dtoxtm64.obj
 0001:00061c63       ___updatetmbcinfo          00462c63 f   libcmt:mbctype.obj
 0001:00061d81       __setmbcp_nolock           00462d81 f   libcmt:mbctype.obj
 0001:00061f5a       __setmbcp                  00462f5a f   libcmt:mbctype.obj
 0001:000620f4       ___initmbctable            004630f4 f   libcmt:mbctype.obj
 0001:00062112       ___freetlocinfo            00463112 f   libcmt:setlocal.obj
 0001:00062252       ___addlocaleref            00463252 f   libcmt:setlocal.obj
 0001:000622d8       ___removelocaleref         004632d8 f   libcmt:setlocal.obj
 0001:000623a2       ___updatetlocinfo          004633a2 f   libcmt:setlocal.obj
 0001:00062420       _strstr                    00463420 f   libcmt:strstr.obj
 0001:000624b0       _strrchr                   004634b0 f   libcmt:strrchr.obj
 0001:000624e0       __global_unwind2           004634e0 f   libcmt:exsup.obj
 0001:00062545       __local_unwind2            00463545 f   libcmt:exsup.obj
 0001:000625c9       __abnormal_termination     004635c9 f   libcmt:exsup.obj
 0001:000625ec       __NLG_Notify1              004635ec f   libcmt:exsup.obj
 0001:000625f5       __NLG_Notify               004635f5 f   libcmt:exsup.obj
 0001:0006260c       __NLG_Dispatch2            0046360c     libcmt:exsup.obj
 0001:0006260c       __NLG_Dispatch             0046360c     libcmt:exsup.obj
 0001:00062614       __NLG_Call                 00463614 f   libcmt:exsup.obj
 0001:00062616       __NLG_Return2              00463616     libcmt:exsup.obj
 0001:00062d2b       ___tzset                   00463d2b f   libcmt:tzset.obj
 0001:00062d7a       __isindst                  00463d7a f   libcmt:tzset.obj
 0001:00062dbb       __gmtime64_s               00463dbb f   libcmt:gmtime64.obj
 0001:00062ff7       __get_daylight             00463ff7 f   libcmt:timeset.obj
 0001:0006302b       __get_dstbias              0046402b f   libcmt:timeset.obj
 0001:0006305f       __get_timezone             0046405f f   libcmt:timeset.obj
 0001:00063093       ___daylight                00464093 f   libcmt:timeset.obj
 0001:00063099       ___dstbias                 00464099 f   libcmt:timeset.obj
 0001:0006309f       ___timezone                0046409f f   libcmt:timeset.obj
 0001:000630a5       ___tzname                  004640a5 f   libcmt:timeset.obj
 0001:000630b0       __aulldiv                  004640b0 f   libcmt:ulldiv.obj
 0001:00063118       __isctype_l                00464118 f   libcmt:isctype.obj
 0001:00063386       ___crtGetStringTypeA       00464386 f   libcmt:a_str.obj
 0001:000633e0       _strchr                    004643e0 f   libcmt:strchr.obj
 0001:000633e6       ___from_strstr_to_strchr   004643e6     libcmt:strchr.obj
 0001:0006349e       ___ascii_stricmp           0046449e f   libcmt:stricmp.obj
 0001:000634d3       __isleadbyte_l             004644d3 f i libcmt:_wctype.obj
 0001:00063509       _isleadbyte                00464509 f i libcmt:_wctype.obj
 0001:00063520       _strspn                    00464520 f   libcmt:strspn.obj
 0001:00063570       _strcspn                   00464570 f   libcmt:strcspn.obj
 0001:000635b6       ?__CxxUnhandledExceptionFilter@@YGJPAU_EXCEPTION_POINTERS@@@Z 004645b6 f   libcmt:unhandld.obj
 0001:000635f3       ___CxxSetUnhandledExceptionFilter 004645f3 f   libcmt:unhandld.obj
 0001:00063601       __wincmdln                 00464601 f   libcmt:wincmdln.obj
 0001:0006365e       __setenvp                  0046465e f   libcmt:stdenvp.obj
 0001:000638d1       __setargv                  004648d1 f   libcmt:stdargv.obj
 0001:0006398a       ___crtGetEnvironmentStringsA 0046498a f   libcmt:a_env.obj
 0001:00063abf       __ioinit                   00464abf f   libcmt:ioinit.obj
 0001:00063d13       __RTC_Initialize           00464d13 f   libcmt:initsect.obj
 0001:00063d37       __RTC_Terminate            00464d37 f   libcmt:initsect.obj
 0001:00063d5b       ___security_init_cookie    00464d5b f   libcmt:gs_support.obj
 0001:00063def       __mbsnbcpy_s_l             00464def f   libcmt:mbsnbcpy_s_l.obj
 0001:00063ffc       __initp_misc_winsig        00464ffc f   libcmt:winsig.obj
 0001:00064049       ___get_sigabrt             00465049 f   libcmt:winsig.obj
 0001:00064056       _raise                     00465056 f   libcmt:winsig.obj
 0001:00064206       __initp_misc_rand_s        00465206 f   libcmt:rand_s.obj
 0001:00064210       __initp_misc_purevirt      00465210 f   libcmt:inithelp.obj
 0001:0006421a       __initp_misc_initcrit      0046521a f   libcmt:initcrit.obj
 0001:00064234       ___crtInitCritSecAndSpinCount 00465234 f   libcmt:initcrit.obj
 0001:00064388       __input_s_l                00465388 f   libcmt:inputs.obj
 0001:000650b3       __validdrive               004660b3 f   libcmt:getcwd.obj
 0001:000650ea       __getdcwd_nolock           004660ea f   libcmt:getcwd.obj
 0001:0006521f       __getcwd                   0046621f f   libcmt:getcwd.obj
 0001:00065270       __aulldvrm                 00466270 f   libcmt:ulldvrm.obj
 0001:00065310       _strpbrk                   00466310 f   libcmt:strpbrk.obj
 0001:00065350       ?_ValidateExecute@@YAHP6GHXZ@Z 00466350 f   libcmt:validate.obj
 0001:00065350       ?_ValidateRead@@YAHPBXI@Z  00466350 f   libcmt:validate.obj
 0001:00065350       ?_ValidateWrite@@YAHPAXI@Z 00466350 f   libcmt:validate.obj
 0001:000653ad       __get_sse2_info            004663ad f   libcmt:cpu_disp.obj
 0001:0006540d       ___sse2_available_init     0046640d f   libcmt:cpu_disp.obj
 0001:0006541a       ___crtMessageBoxA          0046641a f   libcmt:crtmbox.obj
 0001:000655d7       __set_error_mode           004665d7 f   libcmt:errmode.obj
 0001:0006561d       __lseeki64_nolock          0046661d f   libcmt:lseeki64.obj
 0001:000656a0       __lseeki64                 004666a0 f   libcmt:lseeki64.obj
 0001:000657b9       __write_nolock             004667b9 f   libcmt:write.obj
 0001:00065ddb       __write                    00466ddb f   libcmt:write.obj
 0001:00065eb7       __getbuf                   00466eb7 f   libcmt:_getbuf.obj
 0001:00065efb       __isatty                   00466efb f   libcmt:isatty.obj
 0001:00065f59       ___iob_func                00466f59 f   libcmt:_file.obj
 0001:00065f5f       ___initstdio               00466f5f f   libcmt:_file.obj
 0001:00066010       ___endstdio                00467010 f   libcmt:_file.obj
 0001:00066030       __lock_file                00467030 f   libcmt:_file.obj
 0001:0006606c       __lock_file2               0046706c f   libcmt:_file.obj
 0001:0006609a       __unlock_file              0046709a f   libcmt:_file.obj
 0001:000660d0       __unlock_file2             004670d0 f   libcmt:_file.obj
 0001:000660fa       __fileno                   004670fa f   libcmt:fileno.obj
 0001:00066127       __get_printf_count_output  00467127 f   libcmt:printf.obj
 0001:0006613d       __wctomb_s_l               0046713d f   libcmt:wctomb.obj
 0001:0006629c       _wctomb_s                  0046729c f   libcmt:wctomb.obj
 0001:000662b7       __isdigit_l                004672b7 f i libcmt:_ctype.obj
 0001:00066306       _isdigit                   00467306 f i libcmt:_ctype.obj
 0001:0006632f       __isxdigit_l               0046732f f i libcmt:_ctype.obj
 0001:00066383       _isxdigit                  00467383 f i libcmt:_ctype.obj
 0001:000663ae       __isspace_l                004673ae f i libcmt:_ctype.obj
 0001:000663fd       _isspace                   004673fd f i libcmt:_ctype.obj
 0001:00066426       __tolower_l                00467426 f   libcmt:tolower.obj
 0001:0006653d       _tolower                   0046753d f   libcmt:tolower.obj
 0001:00066564       __atodbl_l                 00467564 f   libcmt:atodbl.obj
 0001:0006660a       __atoflt_l                 0046760a f   libcmt:atodbl.obj
 0001:000666b0       __fptostr                  004676b0 f   libcmt:_fptostr.obj
 0001:0006676d       ___dtold                   0046776d f   libcmt:cfout.obj
 0001:00066828       __fltout2                  00467828 f   libcmt:cfout.obj
 0001:000668c0       __alldvrm                  004678c0 f   libcmt:lldvrm.obj
 0001:000669a0       __aullshr                  004679a0 f   libcmt:ullshr.obj
 0001:000669bf       __fptrap                   004679bf f   libcmt:crt0fp.obj
 0001:000669c8       __controlfp_s              004679c8 f   libcmt:contrlfp.obj
 0001:00066dd4       ___crtLCMapStringA         00467dd4 f   libcmt:a_map.obj
 0001:00066e17       ___free_lc_time            00467e17 f   libcmt:inittime.obj
 0001:00066fa7       ___free_lconv_num          00467fa7 f   libcmt:initnum.obj
 0001:00066fe7       ___free_lconv_mon          00467fe7 f   libcmt:initmon.obj
 0001:00067070       ____lc_codepage_func       00468070 f   libcmt:initctyp.obj
 0001:00067096       __getenv_helper_nolock     00468096 f   libcmt:getenv.obj
 0001:00067117       ___ansicp                  00468117 f   libcmt:convrtcp.obj
 0001:0006715e       ___convertcp               0046815e f   libcmt:convrtcp.obj
 0001:00067310       __mbtowc_l                 00468310 f   libcmt:mbtowc.obj
 0001:00067423       _mbtowc                    00468423 f   libcmt:mbtowc.obj
 0001:0006743a       __filbuf                   0046843a f   libcmt:_filbuf.obj
 0001:0006755a       __ungetc_nolock            0046855a f   libcmt:ungetc.obj
 0001:00067678       __getdrive                 00468678 f   libcmt:drive.obj
 0001:0006773e       __free_osfhnd              0046873e f   libcmt:osfinfo.obj
 0001:000677bf       __get_osfhandle            004687bf f   libcmt:osfinfo.obj
 0001:00067830       ___lock_fhandle            00468830 f   libcmt:osfinfo.obj
 0001:000678d0       __unlock_fhandle           004688d0 f   libcmt:osfinfo.obj
 0001:000678f2       __putwch_nolock            004688f2 f   libcmt:putwch.obj
 0001:000679b4       __fcloseall                004689b4 f   libcmt:closeall.obj
 0001:00067a53       __flush                    00468a53 f   libcmt:fflush.obj
 0001:00067ab5       __fflush_nolock            00468ab5 f   libcmt:fflush.obj
 0001:00067bd1       __flushall                 00468bd1 f   libcmt:fflush.obj
 0001:00067bda       __ld12tod                  00468bda f   libcmt:intrncvt.obj
 0001:0006811c       __ld12tof                  0046911c f   libcmt:intrncvt.obj
 0001:0006865e       ___strgtold12_l            0046965e f   libcmt:strgtold.obj
 0001:00068d1e       _$I10_OUTPUT               00469d1e f   libcmt:x10fout.obj
 0001:00069712       __control87                0046a712 f i libcmt:ieee87.obj
 0001:00069a15       __strnicmp_l               0046aa15 f   libcmt:strnicmp.obj
 0001:00069b05       __mbsnbicoll_l             0046ab05 f   libcmt:mbsnbico.obj
 0001:00069bf1       __mbsnbicoll               0046abf1 f   libcmt:mbsnbico.obj
 0001:00069c08       ___wtomb_environ           0046ac08 f   libcmt:wtombenv.obj
 0001:00069c9d       __read_nolock              0046ac9d f   libcmt:read.obj
 0001:0006a25e       __read                     0046b25e f   libcmt:read.obj
 0001:0006a35b       __toupper_l                0046b35b f   libcmt:toupper.obj
 0001:0006a473       _toupper                   0046b473 f   libcmt:toupper.obj
 0001:0006a49a       ___initconout              0046b49a f   libcmt:initcon.obj
 0001:0006a4b9       ___termcon                 0046b4b9 f   libcmt:initcon.obj
 0001:0006a4e6       __fclose_nolock            0046b4e6 f   libcmt:fclose.obj
 0001:0006a558       _fclose                    0046b558 f   libcmt:fclose.obj
 0001:0006a5d4       __commit                   0046b5d4 f   libcmt:commit.obj
 0001:0006a6b5       ___mtold12                 0046b6b5 f   libcmt:mantold.obj
 0001:0006a881       ___set_fpsr_sse2           0046b881 f   libcmt:fpctrl.obj
 0001:0006a900       ___ascii_strnicmp          0046b900 f   libcmt:_strnicm.obj
 0001:0006acea       ___crtCompareStringA       0046bcea f   libcmt:a_cmp.obj
 0001:0006ad2a       __strnicoll_l              0046bd2a f   libcmt:strnicol.obj
 0001:0006aecc       ___crtsetenv               0046becc f   libcmt:setenv.obj
 0001:0006b118       __close_nolock             0046c118 f   libcmt:close.obj
 0001:0006b1af       __close                    0046c1af f   libcmt:close.obj
 0001:0006b27c       __freebuf                  0046c27c f   libcmt:_freebuf.obj
 0001:0006b2a8       _RtlUnwind@16              0046c2a8 f   kernel32:KERNEL32.dll
 0001:0006b2ae       _ClosePrinter@4            0046c2ae f   winspool:WINSPOOL.DRV
 0001:0006b2b4       _DocumentPropertiesA@24    0046c2b4 f   winspool:WINSPOOL.DRV
 0001:0006b2ba       _OpenPrinterA@12           0046c2ba f   winspool:WINSPOOL.DRV
 0001:0006b2c0       _OleUIBusyA@4              0046c2c0 f   oledlg:oledlg.dll
 0001:0006b2c6       ___WSAFDIsSet@8            0046c2c6 f   ws2_32:WS2_32.dll
 0001:0006b2cc       ??1out_of_range@std@@UAE@XZ 0046c2cc f i libcpmt:string.obj
 0001:0006b2d7       ??_Eout_of_range@std@@UAEPAXI@Z 0046c2d7 f i libcpmt:string.obj
 0001:0006b2d7       ??_Gout_of_range@std@@UAEPAXI@Z 0046c2d7 f i libcpmt:string.obj
 0001:0006b2f9       ?_Xlen@_String_base@std@@SAXXZ 0046c2f9 f   libcpmt:string.obj
 0001:0006b338       ?_Xran@_String_base@std@@SAXXZ 0046c338 f   libcpmt:string.obj
 0001:0006b377       ??0out_of_range@std@@QAE@ABV01@@Z 0046c377 f i libcpmt:string.obj
 0001:0006b38f       ?_AtlGetThreadACPFake@ATL@@YGIXZ 0046c38f f i atls:atltrace.obj
 0001:0006b3f4       ?_AtlGetThreadACPReal@ATL@@YGIXZ 0046c3f4 f i atls:atltrace.obj
 0001:0006b3f8       ?_AtlGetThreadACPThunk@ATL@@YGIXZ 0046c3f8 f i atls:atltrace.obj
 0001:0006b45c       ??0CComCriticalSection@ATL@@QAE@XZ 0046c45c f i atls:atlbase.obj
 0001:0006b470       ?Init@CComCriticalSection@ATL@@QAEJXZ 0046c470 f i atls:atlbase.obj
 0001:0006b4bb       ?AtlWinModuleInit@ATL@@YGJPAU_ATL_WIN_MODULE70@1@@Z 0046c4bb f i atls:atlbase.obj
 0001:0006b4de       ?RemoveAll@?$CSimpleArray@PAUHINSTANCE__@@V?$CSimpleArrayEqualHelper@PAUHINSTANCE__@@@ATL@@@ATL@@QAEXXZ 0046c4de f i atls:atlbase.obj
 0001:0006b4de       ?RemoveAll@?$CSimpleArray@GV?$CSimpleArrayEqualHelper@G@ATL@@@ATL@@QAEXXZ 0046c4de f i atls:atlbase.obj
 0001:0006b4fb       ??A?$CSimpleArray@GV?$CSimpleArrayEqualHelper@G@ATL@@@ATL@@QAEAAGH@Z 0046c4fb f i atls:atlbase.obj
 0001:0006b522       ??0_ATL_WIN_MODULE70@ATL@@QAE@XZ 0046c522 f i atls:atlbase.obj
 0001:0006b53c       ?AtlWinModuleTerm@ATL@@YGJPAU_ATL_WIN_MODULE70@1@PAUHINSTANCE__@@@Z 0046c53c f i atls:atlbase.obj
 0001:0006b59c       ??0_ATL_BASE_MODULE70@ATL@@QAE@XZ 0046c59c f i atls:atlbase.obj
 0001:0006b5b6       ??1CAtlBaseModule@ATL@@QAE@XZ 0046c5b6 f   atls:atlbase.obj
 0001:0006b5cc       ??0CAtlWinModule@ATL@@QAE@XZ 0046c5cc f i atls:atlbase.obj
 0001:0006b5f2       ??0CAtlBaseModule@ATL@@QAE@XZ 0046c5f2 f   atls:atlbase.obj
 0001:0006b6a1       ??1CAtlWinModule@ATL@@QAE@XZ 0046c6a1 f i atls:atlbase.obj
 0001:0006b6ba       ?GetValidDownSize@@YA_JXZ  0046c6ba f   v_down:v_down.dll
 0001:0006b6c0       ?GetSpeed@@YAHXZ           0046c6c0 f   v_down:v_down.dll
 0001:0006b6c6       ?GetStatus@@YAHXZ          0046c6c6 f   v_down:v_down.dll
 0001:0006b6cc       ?GetStartPoint@@YA_JXZ     0046c6cc f   v_down:v_down.dll
 0001:0006b6d2       ?OnStop_Download@@YAXXZ    0046c6d2 f   v_down:v_down.dll
 0001:0006b6d8       ?OnStart_Download@@YAHH@Z  0046c6d8 f   v_down:v_down.dll
 0001:0006b6de       ?SetDownloadFileEx@@YAXPAD00_J0H@Z 0046c6de f   v_down:v_down.dll
 0001:0006b6e4       ?SetDownMainSvrInfo@@YAXPADHH@Z 0046c6e4 f   v_down:v_down.dll
 0001:0006b6ea       ?InitNodeLib@@YAXPAD@Z     0046c6ea f   v_down:v_down.dll
 0001:0006b6f0       __imp_load__CreateStdAccessibleObject@16 0046c6f0     oleacc:OLEACC.dll
 0001:0006b6fa       __tailMerge_OLEACC_dll     0046c6fa     oleacc:OLEACC.dll
 0001:0006b70b       _CreateStdAccessibleObject@16 0046c70b f   oleacc:OLEACC.dll
 0001:0006b711       __imp_load__AccessibleObjectFromWindow@16 0046c711     oleacc:OLEACC.dll
 0001:0006b71b       _AccessibleObjectFromWindow@16 0046c71b f   oleacc:OLEACC.dll
 0001:0006b721       __imp_load__LresultFromObject@12 0046c721     oleacc:OLEACC.dll
 0001:0006b72b       _LresultFromObject@12      0046c72b f   oleacc:OLEACC.dll
 0001:0006b732       _ReuseDDElParam@20         0046c732 f   User32:USER32.dll
 0001:0006b738       _UnpackDDElParam@16        0046c738 f   User32:USER32.dll
 0001:0006b73e       ___delayLoadHelper2@8      0046c73e f   DelayImp:delayhlp.obj
 0001:0006b97b       _WinMain@16                0046c97b f   nafxcw:appmodul.obj
 0001:0006b980       ?AfxInitialize@@YGHHK@Z    0046c980 f   nafxcw:appmodul.obj
 0001:0006b99e       ?_AfxTermAppState@@YAXXZ   0046c99e f   nafxcw:appmodul.obj
 0001:0006b9b1       ?AfxWinMain@@YGHPAUHINSTANCE__@@0PADH@Z 0046c9b1 f   nafxcw:winmain.obj
 0002:00000000       __imp__LookupPrivilegeValueA@12 00472000     advapi32:ADVAPI32.dll
 0002:00000004       __imp__RegOpenKeyExA@20    00472004     advapi32:ADVAPI32.dll
 0002:00000008       __imp__RegEnumKeyA@16      00472008     advapi32:ADVAPI32.dll
 0002:0000000c       __imp__RegQueryValueA@16   0047200c     advapi32:ADVAPI32.dll
 0002:00000010       __imp__RegOpenKeyA@12      00472010     advapi32:ADVAPI32.dll
 0002:00000014       __imp__OpenProcessToken@12 00472014     advapi32:ADVAPI32.dll
 0002:00000018       __imp__RegConnectRegistryA@12 00472018     advapi32:ADVAPI32.dll
 0002:0000001c       __imp__AdjustTokenPrivileges@24 0047201c     advapi32:ADVAPI32.dll
 0002:00000020       __imp__RegDeleteValueA@8   00472020     advapi32:ADVAPI32.dll
 0002:00000024       __imp__RegDeleteKeyA@8     00472024     advapi32:ADVAPI32.dll
 0002:00000028       __imp__RegCreateKeyExA@36  00472028     advapi32:ADVAPI32.dll
 0002:0000002c       __imp__RegSetValueExA@24   0047202c     advapi32:ADVAPI32.dll
 0002:00000030       __imp__RegQueryValueExA@24 00472030     advapi32:ADVAPI32.dll
 0002:00000034       __imp__RegQueryInfoKeyA@48 00472034     advapi32:ADVAPI32.dll
 0002:00000038       __imp__RegCloseKey@4       00472038     advapi32:ADVAPI32.dll
 0002:0000003c       __imp__RegEnumValueA@32    0047203c     advapi32:ADVAPI32.dll
 0002:00000040       \177ADVAPI32_NULL_THUNK_DATA 00472040     advapi32:ADVAPI32.dll
 0002:00000044       __imp__InitCommonControls@0 00472044     comctl32:COMCTL32.dll
 0002:00000048       \177COMCTL32_NULL_THUNK_DATA 00472048     comctl32:COMCTL32.dll
 0002:0000004c       __imp__TextOutA@20         0047204c     gdi32:GDI32.dll
 0002:00000050       __imp__GetRgnBox@8         00472050     gdi32:GDI32.dll
 0002:00000054       __imp__GetTextColor@4      00472054     gdi32:GDI32.dll
 0002:00000058       __imp__GetBkColor@4        00472058     gdi32:GDI32.dll
 0002:0000005c       __imp__Ellipse@20          0047205c     gdi32:GDI32.dll
 0002:00000060       __imp__LPtoDP@12           00472060     gdi32:GDI32.dll
 0002:00000064       __imp__CreateEllipticRgn@16 00472064     gdi32:GDI32.dll
 0002:00000068       __imp__CreatePatternBrush@4 00472068     gdi32:GDI32.dll
 0002:0000006c       __imp__ExtSelectClipRgn@12 0047206c     gdi32:GDI32.dll
 0002:00000070       __imp__ScaleWindowExtEx@24 00472070     gdi32:GDI32.dll
 0002:00000074       __imp__SetWindowExtEx@16   00472074     gdi32:GDI32.dll
 0002:00000078       __imp__ScaleViewportExtEx@24 00472078     gdi32:GDI32.dll
 0002:0000007c       __imp__SetViewportExtEx@16 0047207c     gdi32:GDI32.dll
 0002:00000080       __imp__OffsetViewportOrgEx@16 00472080     gdi32:GDI32.dll
 0002:00000084       __imp__SetViewportOrgEx@16 00472084     gdi32:GDI32.dll
 0002:00000088       __imp__Escape@20           00472088     gdi32:GDI32.dll
 0002:0000008c       __imp__ExtTextOutA@32      0047208c     gdi32:GDI32.dll
 0002:00000090       __imp__RectVisible@8       00472090     gdi32:GDI32.dll
 0002:00000094       __imp__PtVisible@12        00472094     gdi32:GDI32.dll
 0002:00000098       __imp__GetWindowExtEx@8    00472098     gdi32:GDI32.dll
 0002:0000009c       __imp__GetViewportExtEx@8  0047209c     gdi32:GDI32.dll
 0002:000000a0       __imp__SelectClipRgn@8     004720a0     gdi32:GDI32.dll
 0002:000000a4       __imp__SetBkMode@8         004720a4     gdi32:GDI32.dll
 0002:000000a8       __imp__RestoreDC@8         004720a8     gdi32:GDI32.dll
 0002:000000ac       __imp__SaveDC@4            004720ac     gdi32:GDI32.dll
 0002:000000b0       __imp__SetTextColor@8      004720b0     gdi32:GDI32.dll
 0002:000000b4       __imp__GetClipBox@8        004720b4     gdi32:GDI32.dll
 0002:000000b8       __imp__CreateDCA@16        004720b8     gdi32:GDI32.dll
 0002:000000bc       __imp__GetPixel@12         004720bc     gdi32:GDI32.dll
 0002:000000c0       __imp__CreateRectRgn@16    004720c0     gdi32:GDI32.dll
 0002:000000c4       __imp__CreateFontA@56      004720c4     gdi32:GDI32.dll
 0002:000000c8       __imp__CreateDIBSection@24 004720c8     gdi32:GDI32.dll
 0002:000000cc       __imp__ExtCreateRegion@12  004720cc     gdi32:GDI32.dll
 0002:000000d0       __imp__CombineRgn@16       004720d0     gdi32:GDI32.dll
 0002:000000d4       __imp__DPtoLP@12           004720d4     gdi32:GDI32.dll
 0002:000000d8       __imp__CreateBitmap@20     004720d8     gdi32:GDI32.dll
 0002:000000dc       __imp__GetMapMode@4        004720dc     gdi32:GDI32.dll
 0002:000000e0       __imp__SetMapMode@8        004720e0     gdi32:GDI32.dll
 0002:000000e4       __imp__SetBkColor@8        004720e4     gdi32:GDI32.dll
 0002:000000e8       __imp__CreateFontIndirectA@4 004720e8     gdi32:GDI32.dll
 0002:000000ec       __imp__GetStockObject@4    004720ec     gdi32:GDI32.dll
 0002:000000f0       __imp__GetTextExtentPoint32A@16 004720f0     gdi32:GDI32.dll
 0002:000000f4       __imp__StretchBlt@44       004720f4     gdi32:GDI32.dll
 0002:000000f8       __imp__Rectangle@20        004720f8     gdi32:GDI32.dll
 0002:000000fc       __imp__SetRectRgn@20       004720fc     gdi32:GDI32.dll
 0002:00000100       __imp__CreateRectRgnIndirect@4 00472100     gdi32:GDI32.dll
 0002:00000104       __imp__GetObjectA@12       00472104     gdi32:GDI32.dll
 0002:00000108       __imp__CreatePen@12        00472108     gdi32:GDI32.dll
 0002:0000010c       __imp__CreateSolidBrush@4  0047210c     gdi32:GDI32.dll
 0002:00000110       __imp__BitBlt@36           00472110     gdi32:GDI32.dll
 0002:00000114       __imp__CreateCompatibleDC@4 00472114     gdi32:GDI32.dll
 0002:00000118       __imp__CreateCompatibleBitmap@12 00472118     gdi32:GDI32.dll
 0002:0000011c       __imp__SelectObject@8      0047211c     gdi32:GDI32.dll
 0002:00000120       __imp__DeleteDC@4          00472120     gdi32:GDI32.dll
 0002:00000124       __imp__DeleteObject@4      00472124     gdi32:GDI32.dll
 0002:00000128       __imp__GetDeviceCaps@8     00472128     gdi32:GDI32.dll
 0002:0000012c       \177GDI32_NULL_THUNK_DATA  0047212c     gdi32:GDI32.dll
 0002:00000130       __imp__GetSystemInfo@4     00472130     kernel32:KERNEL32.dll
 0002:00000134       __imp__TerminateThread@8   00472134     kernel32:KERNEL32.dll
 0002:00000138       __imp__GetExitCodeThread@8 00472138     kernel32:KERNEL32.dll
 0002:0000013c       __imp__GetVolumeInformationA@32 0047213c     kernel32:KERNEL32.dll
 0002:00000140       __imp__GetCurrentThreadId@0 00472140     kernel32:KERNEL32.dll
 0002:00000144       __imp__GetModuleFileNameA@12 00472144     kernel32:KERNEL32.dll
 0002:00000148       __imp__InterlockedDecrement@4 00472148     kernel32:KERNEL32.dll
 0002:0000014c       __imp__HeapCreate@12       0047214c     kernel32:KERNEL32.dll
 0002:00000150       __imp__HeapDestroy@4       00472150     kernel32:KERNEL32.dll
 0002:00000154       __imp__HeapFree@12         00472154     kernel32:KERNEL32.dll
 0002:00000158       __imp__HeapAlloc@12        00472158     kernel32:KERNEL32.dll
 0002:0000015c       __imp__GlobalReAlloc@12    0047215c     kernel32:KERNEL32.dll
 0002:00000160       __imp__GetVersionExA@4     00472160     kernel32:KERNEL32.dll
 0002:00000164       __imp__VirtualFreeEx@16    00472164     kernel32:KERNEL32.dll
 0002:00000168       __imp__ReadProcessMemory@20 00472168     kernel32:KERNEL32.dll
 0002:0000016c       __imp__VirtualAllocEx@20   0047216c     kernel32:KERNEL32.dll
 0002:00000170       __imp__OpenProcess@12      00472170     kernel32:KERNEL32.dll
 0002:00000174       __imp__GetDiskFreeSpaceExA@16 00472174     kernel32:KERNEL32.dll
 0002:00000178       __imp__GetNumberFormatA@24 00472178     kernel32:KERNEL32.dll
 0002:0000017c       __imp__GetTickCount@0      0047217c     kernel32:KERNEL32.dll
 0002:00000180       __imp__CreateRemoteThread@28 00472180     kernel32:KERNEL32.dll
 0002:00000184       __imp__GetExitCodeProcess@8 00472184     kernel32:KERNEL32.dll
 0002:00000188       __imp__DuplicateHandle@28  00472188     kernel32:KERNEL32.dll
 0002:0000018c       __imp__GetCurrentProcess@0 0047218c     kernel32:KERNEL32.dll
 0002:00000190       __imp__GetProcessHeap@0    00472190     kernel32:KERNEL32.dll
 0002:00000194       __imp__LocalFree@4         00472194     kernel32:KERNEL32.dll
 0002:00000198       __imp__FormatMessageA@28   00472198     kernel32:KERNEL32.dll
 0002:0000019c       __imp__LoadLibraryExA@12   0047219c     kernel32:KERNEL32.dll
 0002:000001a0       __imp__GetLocaleInfoA@16   004721a0     kernel32:KERNEL32.dll
 0002:000001a4       __imp__EnterCriticalSection@4 004721a4     kernel32:KERNEL32.dll
 0002:000001a8       __imp__ConvertDefaultLocale@4 004721a8     kernel32:KERNEL32.dll
 0002:000001ac       __imp__GlobalDeleteAtom@4  004721ac     kernel32:KERNEL32.dll
 0002:000001b0       __imp__GlobalAddAtomA@4    004721b0     kernel32:KERNEL32.dll
 0002:000001b4       __imp__GetCurrentProcessId@0 004721b4     kernel32:KERNEL32.dll
 0002:000001b8       __imp__lstrcmpW@8          004721b8     kernel32:KERNEL32.dll
 0002:000001bc       __imp__GlobalFindAtomA@4   004721bc     kernel32:KERNEL32.dll
 0002:000001c0       __imp__GlobalGetAtomNameA@12 004721c0     kernel32:KERNEL32.dll
 0002:000001c4       __imp__FindClose@4         004721c4     kernel32:KERNEL32.dll
 0002:000001c8       __imp__FindNextFileA@8     004721c8     kernel32:KERNEL32.dll
 0002:000001cc       __imp__FileTimeToSystemTime@8 004721cc     kernel32:KERNEL32.dll
 0002:000001d0       __imp__FileTimeToLocalFileTime@8 004721d0     kernel32:KERNEL32.dll
 0002:000001d4       __imp__FindFirstFileA@8    004721d4     kernel32:KERNEL32.dll
 0002:000001d8       __imp__GetThreadLocale@0   004721d8     kernel32:KERNEL32.dll
 0002:000001dc       __imp__ReadFile@20         004721dc     kernel32:KERNEL32.dll
 0002:000001e0       __imp__WriteFile@20        004721e0     kernel32:KERNEL32.dll
 0002:000001e4       __imp__SetFilePointer@16   004721e4     kernel32:KERNEL32.dll
 0002:000001e8       __imp__FlushFileBuffers@4  004721e8     kernel32:KERNEL32.dll
 0002:000001ec       __imp__LockFile@20         004721ec     kernel32:KERNEL32.dll
 0002:000001f0       __imp__UnlockFile@20       004721f0     kernel32:KERNEL32.dll
 0002:000001f4       __imp__SetEndOfFile@4      004721f4     kernel32:KERNEL32.dll
 0002:000001f8       __imp__GetFileSize@8       004721f8     kernel32:KERNEL32.dll
 0002:000001fc       __imp__GetFullPathNameA@16 004721fc     kernel32:KERNEL32.dll
 0002:00000200       __imp__CreateFileA@28      00472200     kernel32:KERNEL32.dll
 0002:00000204       __imp__GetModuleFileNameW@12 00472204     kernel32:KERNEL32.dll
 0002:00000208       __imp__InterlockedIncrement@4 00472208     kernel32:KERNEL32.dll
 0002:0000020c       __imp__LocalAlloc@8        0047220c     kernel32:KERNEL32.dll
 0002:00000210       __imp__TlsGetValue@4       00472210     kernel32:KERNEL32.dll
 0002:00000214       __imp__GlobalHandle@4      00472214     kernel32:KERNEL32.dll
 0002:00000218       __imp__TlsAlloc@0          00472218     kernel32:KERNEL32.dll
 0002:0000021c       __imp__TlsSetValue@8       0047221c     kernel32:KERNEL32.dll
 0002:00000220       __imp__LocalReAlloc@12     00472220     kernel32:KERNEL32.dll
 0002:00000224       __imp__TlsFree@4           00472224     kernel32:KERNEL32.dll
 0002:00000228       __imp__WritePrivateProfileStringA@16 00472228     kernel32:KERNEL32.dll
 0002:0000022c       __imp__GetCurrentDirectoryA@8 0047222c     kernel32:KERNEL32.dll
 0002:00000230       __imp__GlobalFlags@4       00472230     kernel32:KERNEL32.dll
 0002:00000234       __imp__GetCPInfo@8         00472234     kernel32:KERNEL32.dll
 0002:00000238       __imp__GetOEMCP@0          00472238     kernel32:KERNEL32.dll
 0002:0000023c       __imp__SetErrorMode@4      0047223c     kernel32:KERNEL32.dll
 0002:00000240       __imp__GetFileAttributesA@4 00472240     kernel32:KERNEL32.dll
 0002:00000244       __imp__GetFileTime@16      00472244     kernel32:KERNEL32.dll
 0002:00000248       __imp__RtlUnwind@16        00472248     kernel32:KERNEL32.dll
 0002:0000024c       __imp__VirtualProtect@16   0047224c     kernel32:KERNEL32.dll
 0002:00000250       __imp__VirtualAlloc@16     00472250     kernel32:KERNEL32.dll
 0002:00000254       __imp__VirtualQuery@12     00472254     kernel32:KERNEL32.dll
 0002:00000258       __imp__HeapReAlloc@16      00472258     kernel32:KERNEL32.dll
 0002:0000025c       __imp__ExitThread@4        0047225c     kernel32:KERNEL32.dll
 0002:00000260       __imp__CreateThread@24     00472260     kernel32:KERNEL32.dll
 0002:00000264       __imp__TerminateProcess@8  00472264     kernel32:KERNEL32.dll
 0002:00000268       __imp__UnhandledExceptionFilter@4 00472268     kernel32:KERNEL32.dll
 0002:0000026c       __imp__SetUnhandledExceptionFilter@4 0047226c     kernel32:KERNEL32.dll
 0002:00000270       __imp__IsDebuggerPresent@0 00472270     kernel32:KERNEL32.dll
 0002:00000274       __imp__RaiseException@16   00472274     kernel32:KERNEL32.dll
 0002:00000278       __imp__GetSystemTimeAsFileTime@4 00472278     kernel32:KERNEL32.dll
 0002:0000027c       __imp__GetTimeFormatA@24   0047227c     kernel32:KERNEL32.dll
 0002:00000280       __imp__GetDateFormatA@24   00472280     kernel32:KERNEL32.dll
 0002:00000284       __imp__GetStartupInfoA@4   00472284     kernel32:KERNEL32.dll
 0002:00000288       __imp__ExitProcess@4       00472288     kernel32:KERNEL32.dll
 0002:0000028c       __imp__HeapSize@12         0047228c     kernel32:KERNEL32.dll
 0002:00000290       __imp__VirtualFree@12      00472290     kernel32:KERNEL32.dll
 0002:00000294       __imp__GetStdHandle@4      00472294     kernel32:KERNEL32.dll
 0002:00000298       __imp__GetACP@0            00472298     kernel32:KERNEL32.dll
 0002:0000029c       __imp__IsValidCodePage@4   0047229c     kernel32:KERNEL32.dll
 0002:000002a0       __imp__GetTimeZoneInformation@4 004722a0     kernel32:KERNEL32.dll
 0002:000002a4       __imp__GetStringTypeA@20   004722a4     kernel32:KERNEL32.dll
 0002:000002a8       __imp__GetStringTypeW@16   004722a8     kernel32:KERNEL32.dll
 0002:000002ac       __imp__FreeEnvironmentStringsA@4 004722ac     kernel32:KERNEL32.dll
 0002:000002b0       __imp__GetEnvironmentStrings@0 004722b0     kernel32:KERNEL32.dll
 0002:000002b4       __imp__FreeEnvironmentStringsW@4 004722b4     kernel32:KERNEL32.dll
 0002:000002b8       __imp__GetEnvironmentStringsW@0 004722b8     kernel32:KERNEL32.dll
 0002:000002bc       __imp__SetHandleCount@4    004722bc     kernel32:KERNEL32.dll
 0002:000002c0       __imp__GetFileType@4       004722c0     kernel32:KERNEL32.dll
 0002:000002c4       __imp__QueryPerformanceCounter@4 004722c4     kernel32:KERNEL32.dll
 0002:000002c8       __imp__GetDriveTypeA@4     004722c8     kernel32:KERNEL32.dll
 0002:000002cc       __imp__GetConsoleCP@0      004722cc     kernel32:KERNEL32.dll
 0002:000002d0       __imp__GetConsoleMode@8    004722d0     kernel32:KERNEL32.dll
 0002:000002d4       __imp__LCMapStringA@24     004722d4     kernel32:KERNEL32.dll
 0002:000002d8       __imp__LCMapStringW@24     004722d8     kernel32:KERNEL32.dll
 0002:000002dc       __imp__SetStdHandle@8      004722dc     kernel32:KERNEL32.dll
 0002:000002e0       __imp__WriteConsoleA@20    004722e0     kernel32:KERNEL32.dll
 0002:000002e4       __imp__GetConsoleOutputCP@0 004722e4     kernel32:KERNEL32.dll
 0002:000002e8       __imp__WriteConsoleW@20    004722e8     kernel32:KERNEL32.dll
 0002:000002ec       __imp__SetEnvironmentVariableA@8 004722ec     kernel32:KERNEL32.dll
 0002:000002f0       __imp__LeaveCriticalSection@4 004722f0     kernel32:KERNEL32.dll
 0002:000002f4       __imp__DeleteCriticalSection@4 004722f4     kernel32:KERNEL32.dll
 0002:000002f8       __imp__InitializeCriticalSection@4 004722f8     kernel32:KERNEL32.dll
 0002:000002fc       __imp__GetCurrentThread@0  004722fc     kernel32:KERNEL32.dll
 0002:00000300       __imp__SetThreadPriority@8 00472300     kernel32:KERNEL32.dll
 0002:00000304       __imp__CreateDirectoryA@8  00472304     kernel32:KERNEL32.dll
 0002:00000308       __imp__GetModuleHandleA@4  00472308     kernel32:KERNEL32.dll
 0002:0000030c       __imp__SetLastError@4      0047230c     kernel32:KERNEL32.dll
 0002:00000310       __imp__lstrcpynA@12        00472310     kernel32:KERNEL32.dll
 0002:00000314       __imp__SetEvent@4          00472314     kernel32:KERNEL32.dll
 0002:00000318       __imp__ResetEvent@4        00472318     kernel32:KERNEL32.dll
 0002:0000031c       __imp__FindResourceA@12    0047231c     kernel32:KERNEL32.dll
 0002:00000320       __imp__LoadResource@8      00472320     kernel32:KERNEL32.dll
 0002:00000324       __imp__SizeofResource@8    00472324     kernel32:KERNEL32.dll
 0002:00000328       __imp__FreeResource@4      00472328     kernel32:KERNEL32.dll
 0002:0000032c       __imp__LockResource@4      0047232c     kernel32:KERNEL32.dll
 0002:00000330       __imp__GlobalAlloc@8       00472330     kernel32:KERNEL32.dll
 0002:00000334       __imp__ResumeThread@4      00472334     kernel32:KERNEL32.dll
 0002:00000338       __imp__GlobalLock@4        00472338     kernel32:KERNEL32.dll
 0002:0000033c       __imp__GlobalUnlock@4      0047233c     kernel32:KERNEL32.dll
 0002:00000340       __imp__MulDiv@12           00472340     kernel32:KERNEL32.dll
 0002:00000344       __imp__GlobalFree@4        00472344     kernel32:KERNEL32.dll
 0002:00000348       __imp__CloseHandle@4       00472348     kernel32:KERNEL32.dll
 0002:0000034c       __imp__CreateEventA@16     0047234c     kernel32:KERNEL32.dll
 0002:00000350       __imp__LoadLibraryA@4      00472350     kernel32:KERNEL32.dll
 0002:00000354       __imp__GetProcAddress@8    00472354     kernel32:KERNEL32.dll
 0002:00000358       __imp__FreeLibrary@4       00472358     kernel32:KERNEL32.dll
 0002:0000035c       __imp__lstrcmpA@8          0047235c     kernel32:KERNEL32.dll
 0002:00000360       __imp__DeleteFileA@4       00472360     kernel32:KERNEL32.dll
 0002:00000364       __imp__WaitForSingleObject@8 00472364     kernel32:KERNEL32.dll
 0002:00000368       __imp__lstrcpyA@8          00472368     kernel32:KERNEL32.dll
 0002:0000036c       __imp__CreateMutexA@12     0047236c     kernel32:KERNEL32.dll
 0002:00000370       __imp__GetCommandLineA@0   00472370     kernel32:KERNEL32.dll
 0002:00000374       __imp__GetLastError@0      00472374     kernel32:KERNEL32.dll
 0002:00000378       __imp__Sleep@4             00472378     kernel32:KERNEL32.dll
 0002:0000037c       __imp__lstrlenA@4          0047237c     kernel32:KERNEL32.dll
 0002:00000380       __imp__WideCharToMultiByte@32 00472380     kernel32:KERNEL32.dll
 0002:00000384       __imp__CompareStringA@24   00472384     kernel32:KERNEL32.dll
 0002:00000388       __imp__CompareStringW@24   00472388     kernel32:KERNEL32.dll
 0002:0000038c       __imp__MultiByteToWideChar@24 0047238c     kernel32:KERNEL32.dll
 0002:00000390       __imp__InterlockedExchange@8 00472390     kernel32:KERNEL32.dll
 0002:00000394       __imp__GetVersion@0        00472394     kernel32:KERNEL32.dll
 0002:00000398       __imp__EnumResourceLanguagesA@20 00472398     kernel32:KERNEL32.dll
 0002:0000039c       \177KERNEL32_NULL_THUNK_DATA 0047239c     kernel32:KERNEL32.dll
 0002:000003a0       __imp__OleCreateFontIndirect@12 004723a0     oleaut32:OLEAUT32.dll
 0002:000003a4       __imp__SystemTimeToVariantTime@8 004723a4     oleaut32:OLEAUT32.dll
 0002:000003a8       __imp__VariantTimeToSystemTime@12 004723a8     oleaut32:OLEAUT32.dll
 0002:000003ac       __imp__SafeArrayDestroy@4  004723ac     oleaut32:OLEAUT32.dll
 0002:000003b0       __imp__VariantCopy@8       004723b0     oleaut32:OLEAUT32.dll
 0002:000003b4       __imp__SafeArrayCreate@12  004723b4     oleaut32:OLEAUT32.dll
 0002:000003b8       __imp__SafeArrayGetDim@4   004723b8     oleaut32:OLEAUT32.dll
 0002:000003bc       __imp__SafeArrayGetElemsize@4 004723bc     oleaut32:OLEAUT32.dll
 0002:000003c0       __imp__SafeArrayGetLBound@12 004723c0     oleaut32:OLEAUT32.dll
 0002:000003c4       __imp__SafeArrayGetUBound@12 004723c4     oleaut32:OLEAUT32.dll
 0002:000003c8       __imp__SafeArrayAccessData@8 004723c8     oleaut32:OLEAUT32.dll
 0002:000003cc       __imp__SafeArrayUnaccessData@4 004723cc     oleaut32:OLEAUT32.dll
 0002:000003d0       __imp__SysStringLen@4      004723d0     oleaut32:OLEAUT32.dll
 0002:000003d4       __imp__VariantInit@4       004723d4     oleaut32:OLEAUT32.dll
 0002:000003d8       __imp__VariantChangeType@16 004723d8     oleaut32:OLEAUT32.dll
 0002:000003dc       __imp__SysAllocString@4    004723dc     oleaut32:OLEAUT32.dll
 0002:000003e0       __imp__SysAllocStringLen@8 004723e0     oleaut32:OLEAUT32.dll
 0002:000003e4       __imp__VariantClear@4      004723e4     oleaut32:OLEAUT32.dll
 0002:000003e8       __imp__SysStringByteLen@4  004723e8     oleaut32:OLEAUT32.dll
 0002:000003ec       __imp__SysAllocStringByteLen@8 004723ec     oleaut32:OLEAUT32.dll
 0002:000003f0       __imp__OleLoadPicture@20   004723f0     oleaut32:OLEAUT32.dll
 0002:000003f4       __imp__SysFreeString@4     004723f4     oleaut32:OLEAUT32.dll
 0002:000003f8       \177OLEAUT32_NULL_THUNK_DATA 004723f8     oleaut32:OLEAUT32.dll
 0002:000003fc       __imp__SHGetSpecialFolderPathA@16 004723fc     shell32:SHELL32.dll
 0002:00000400       __imp__Shell_NotifyIconA@8 00472400     shell32:SHELL32.dll
 0002:00000404       __imp__ShellExecuteA@24    00472404     shell32:SHELL32.dll
 0002:00000408       __imp__SHGetFileInfoA@20   00472408     shell32:SHELL32.dll
 0002:0000040c       __imp__DragFinish@4        0047240c     shell32:SHELL32.dll
 0002:00000410       __imp__DragQueryFileA@16   00472410     shell32:SHELL32.dll
 0002:00000414       __imp__ShellExecuteExA@4   00472414     shell32:SHELL32.dll
 0002:00000418       \177SHELL32_NULL_THUNK_DATA 00472418     shell32:SHELL32.dll
 0002:0000041c       __imp__StrFormatByteSize64A@16 0047241c     shlwapi:SHLWAPI.dll
 0002:00000420       __imp__PathFindFileNameA@4 00472420     shlwapi:SHLWAPI.dll
 0002:00000424       __imp__PathFindExtensionA@4 00472424     shlwapi:SHLWAPI.dll
 0002:00000428       __imp__PathStripToRootA@4  00472428     shlwapi:SHLWAPI.dll
 0002:0000042c       __imp__PathIsUNCA@4        0047242c     shlwapi:SHLWAPI.dll
 0002:00000430       __imp__PathGetArgsA@4      00472430     shlwapi:SHLWAPI.dll
 0002:00000434       \177SHLWAPI_NULL_THUNK_DATA 00472434     shlwapi:SHLWAPI.dll
 0002:00000438       __imp__InvalidateRect@12   00472438     User32:USER32.dll
 0002:0000043c       __imp__CopyRect@8          0047243c     User32:USER32.dll
 0002:00000440       __imp__GetSysColor@4       00472440     User32:USER32.dll
 0002:00000444       __imp__FillRect@12         00472444     User32:USER32.dll
 0002:00000448       __imp__GetDC@4             00472448     User32:USER32.dll
 0002:0000044c       __imp__ReleaseDC@8         0047244c     User32:USER32.dll
 0002:00000450       __imp__SetRect@20          00472450     User32:USER32.dll
 0002:00000454       __imp__GetClassInfoA@12    00472454     User32:USER32.dll
 0002:00000458       __imp__FindWindowA@8       00472458     User32:USER32.dll
 0002:0000045c       __imp__SendMessageA@16     0047245c     User32:USER32.dll
 0002:00000460       __imp__CharUpperA@4        00472460     User32:USER32.dll
 0002:00000464       __imp__EnableWindow@8      00472464     User32:USER32.dll
 0002:00000468       __imp__LoadIconA@8         00472468     User32:USER32.dll
 0002:0000046c       __imp__DrawIconEx@36       0047246c     User32:USER32.dll
 0002:00000470       __imp__GetWindowLongA@8    00472470     User32:USER32.dll
 0002:00000474       __imp__PtInRect@12         00472474     User32:USER32.dll
 0002:00000478       __imp__InflateRect@12      00472478     User32:USER32.dll
 0002:0000047c       __imp__LoadBitmapA@8       0047247c     User32:USER32.dll
 0002:00000480       __imp__DrawFocusRect@8     00472480     User32:USER32.dll
 0002:00000484       __imp__GetClientRect@8     00472484     User32:USER32.dll
 0002:00000488       __imp__LoadMenuA@8         00472488     User32:USER32.dll
 0002:0000048c       __imp__ReuseDDElParam@20   0047248c     User32:USER32.dll
 0002:00000490       __imp__UnpackDDElParam@16  00472490     User32:USER32.dll
 0002:00000494       __imp__RegisterClipboardFormatA@4 00472494     User32:USER32.dll
 0002:00000498       __imp__GetFocus@0          00472498     User32:USER32.dll
 0002:0000049c       __imp__SetTimer@16         0047249c     User32:USER32.dll
 0002:000004a0       __imp__LoadAcceleratorsA@8 004724a0     User32:USER32.dll
 0002:000004a4       __imp__InsertMenuItemA@16  004724a4     User32:USER32.dll
 0002:000004a8       __imp__SetRectEmpty@4      004724a8     User32:USER32.dll
 0002:000004ac       __imp__SetMenu@8           004724ac     User32:USER32.dll
 0002:000004b0       __imp__TranslateAcceleratorA@12 004724b0     User32:USER32.dll
 0002:000004b4       __imp__UnregisterClassA@8  004724b4     User32:USER32.dll
 0002:000004b8       __imp__GetMenuItemInfoA@16 004724b8     User32:USER32.dll
 0002:000004bc       __imp__MessageBeep@4       004724bc     User32:USER32.dll
 0002:000004c0       __imp__GetNextDlgGroupItem@12 004724c0     User32:USER32.dll
 0002:000004c4       __imp__InvalidateRgn@12    004724c4     User32:USER32.dll
 0002:000004c8       __imp__CopyAcceleratorTableA@12 004724c8     User32:USER32.dll
 0002:000004cc       __imp__CharNextA@4         004724cc     User32:USER32.dll
 0002:000004d0       __imp__GetSysColorBrush@4  004724d0     User32:USER32.dll
 0002:000004d4       __imp__LoadCursorA@8       004724d4     User32:USER32.dll
 0002:000004d8       __imp__DrawIcon@16         004724d8     User32:USER32.dll
 0002:000004dc       __imp__IsRectEmpty@4       004724dc     User32:USER32.dll
 0002:000004e0       __imp__EndPaint@8          004724e0     User32:USER32.dll
 0002:000004e4       __imp__BeginPaint@8        004724e4     User32:USER32.dll
 0002:000004e8       __imp__GetWindowDC@4       004724e8     User32:USER32.dll
 0002:000004ec       __imp__GrayStringA@36      004724ec     User32:USER32.dll
 0002:000004f0       __imp__DrawTextExA@24      004724f0     User32:USER32.dll
 0002:000004f4       __imp__DrawTextA@20        004724f4     User32:USER32.dll
 0002:000004f8       __imp__TabbedTextOutA@32   004724f8     User32:USER32.dll
 0002:000004fc       __imp__MoveWindow@24       004724fc     User32:USER32.dll
 0002:00000500       __imp__SetWindowTextA@8    00472500     User32:USER32.dll
 0002:00000504       __imp__IsDialogMessageA@8  00472504     User32:USER32.dll
 0002:00000508       __imp__MessageBoxA@16      00472508     User32:USER32.dll
 0002:0000050c       __imp__PostMessageA@16     0047250c     User32:USER32.dll
 0002:00000510       __imp__BringWindowToTop@4  00472510     User32:USER32.dll
 0002:00000514       __imp__AttachThreadInput@12 00472514     User32:USER32.dll
 0002:00000518       __imp__GetWindowThreadProcessId@8 00472518     User32:USER32.dll
 0002:0000051c       __imp__GetForegroundWindow@0 0047251c     User32:USER32.dll
 0002:00000520       __imp__RedrawWindow@16     00472520     User32:USER32.dll
 0002:00000524       __imp__KillTimer@8         00472524     User32:USER32.dll
 0002:00000528       __imp__ShowWindow@8        00472528     User32:USER32.dll
 0002:0000052c       __imp__SetForegroundWindow@4 0047252c     User32:USER32.dll
 0002:00000530       __imp__DestroyMenu@4       00472530     User32:USER32.dll
 0002:00000534       __imp__TrackPopupMenu@28   00472534     User32:USER32.dll
 0002:00000538       __imp__GetCursorPos@4      00472538     User32:USER32.dll
 0002:0000053c       __imp__SetMenuDefaultItem@12 0047253c     User32:USER32.dll
 0002:00000540       __imp__AppendMenuA@16      00472540     User32:USER32.dll
 0002:00000544       __imp__CreatePopupMenu@0   00472544     User32:USER32.dll
 0002:00000548       __imp__CloseWindow@4       00472548     User32:USER32.dll
 0002:0000054c       __imp__GetSystemMetrics@4  0047254c     User32:USER32.dll
 0002:00000550       __imp__ReleaseCapture@0    00472550     User32:USER32.dll
 0002:00000554       __imp__GetIconInfo@8       00472554     User32:USER32.dll
 0002:00000558       __imp__LoadImageA@24       00472558     User32:USER32.dll
 0002:0000055c       __imp__DestroyIcon@4       0047255c     User32:USER32.dll
 0002:00000560       __imp__OffsetRect@12       00472560     User32:USER32.dll
 0002:00000564       __imp__ClientToScreen@8    00472564     User32:USER32.dll
 0002:00000568       __imp__GetCapture@0        00472568     User32:USER32.dll
 0002:0000056c       __imp__SetCapture@4        0047256c     User32:USER32.dll
 0002:00000570       __imp__WindowFromPoint@8   00472570     User32:USER32.dll
 0002:00000574       __imp__SetCursor@4         00472574     User32:USER32.dll
 0002:00000578       __imp__UpdateWindow@4      00472578     User32:USER32.dll
 0002:0000057c       __imp__CallWindowProcA@20  0047257c     User32:USER32.dll
 0002:00000580       __imp__SetWindowLongA@12   00472580     User32:USER32.dll
 0002:00000584       __imp__IsWindow@4          00472584     User32:USER32.dll
 0002:00000588       __imp__GetWindowRect@8     00472588     User32:USER32.dll
 0002:0000058c       __imp__GetParent@4         0047258c     User32:USER32.dll
 0002:00000590       __imp__GetActiveWindow@0   00472590     User32:USER32.dll
 0002:00000594       __imp__SetWindowRgn@12     00472594     User32:USER32.dll
 0002:00000598       __imp__GetClassNameA@12    00472598     User32:USER32.dll
 0002:0000059c       __imp__EnumChildWindows@12 0047259c     User32:USER32.dll
 0002:000005a0       __imp__MapWindowPoints@16  004725a0     User32:USER32.dll
 0002:000005a4       __imp__ReplyMessage@4      004725a4     User32:USER32.dll
 0002:000005a8       __imp__ExitWindowsEx@8     004725a8     User32:USER32.dll
 0002:000005ac       __imp__SetWindowPos@28     004725ac     User32:USER32.dll
 0002:000005b0       __imp__PostThreadMessageA@16 004725b0     User32:USER32.dll
 0002:000005b4       __imp__RegisterWindowMessageA@4 004725b4     User32:USER32.dll
 0002:000005b8       __imp__SendDlgItemMessageA@20 004725b8     User32:USER32.dll
 0002:000005bc       __imp__WinHelpA@16         004725bc     User32:USER32.dll
 0002:000005c0       __imp__IsChild@8           004725c0     User32:USER32.dll
 0002:000005c4       __imp__GetClassLongA@8     004725c4     User32:USER32.dll
 0002:000005c8       __imp__SetPropA@12         004725c8     User32:USER32.dll
 0002:000005cc       __imp__GetPropA@8          004725cc     User32:USER32.dll
 0002:000005d0       __imp__RemovePropA@8       004725d0     User32:USER32.dll
 0002:000005d4       __imp__SetFocus@4          004725d4     User32:USER32.dll
 0002:000005d8       __imp__GetWindowTextLengthA@4 004725d8     User32:USER32.dll
 0002:000005dc       __imp__GetWindowTextA@12   004725dc     User32:USER32.dll
 0002:000005e0       __imp__BeginDeferWindowPos@4 004725e0     User32:USER32.dll
 0002:000005e4       __imp__EndDeferWindowPos@4 004725e4     User32:USER32.dll
 0002:000005e8       __imp__GetTopWindow@4      004725e8     User32:USER32.dll
 0002:000005ec       __imp__UnhookWindowsHookEx@4 004725ec     User32:USER32.dll
 0002:000005f0       __imp__GetMessageTime@0    004725f0     User32:USER32.dll
 0002:000005f4       __imp__GetMessagePos@0     004725f4     User32:USER32.dll
 0002:000005f8       __imp__ScrollWindow@20     004725f8     User32:USER32.dll
 0002:000005fc       __imp__SetScrollRange@20   004725fc     User32:USER32.dll
 0002:00000600       __imp__GetScrollRange@16   00472600     User32:USER32.dll
 0002:00000604       __imp__SetScrollPos@16     00472604     User32:USER32.dll
 0002:00000608       __imp__GetScrollPos@8      00472608     User32:USER32.dll
 0002:0000060c       __imp__ShowScrollBar@12    0047260c     User32:USER32.dll
 0002:00000610       __imp__GetMenu@4           00472610     User32:USER32.dll
 0002:00000614       __imp__CreateWindowExA@48  00472614     User32:USER32.dll
 0002:00000618       __imp__GetSubMenu@8        00472618     User32:USER32.dll
 0002:0000061c       __imp__GetMenuItemCount@4  0047261c     User32:USER32.dll
 0002:00000620       __imp__GetMenuItemID@8     00472620     User32:USER32.dll
 0002:00000624       __imp__GetMenuState@12     00472624     User32:USER32.dll
 0002:00000628       __imp__PostQuitMessage@4   00472628     User32:USER32.dll
 0002:0000062c       __imp__CheckMenuItem@12    0047262c     User32:USER32.dll
 0002:00000630       __imp__EnableMenuItem@12   00472630     User32:USER32.dll
 0002:00000634       __imp__ModifyMenuA@20      00472634     User32:USER32.dll
 0002:00000638       __imp__GetMenuCheckMarkDimensions@0 00472638     User32:USER32.dll
 0002:0000063c       __imp__SetMenuItemBitmaps@20 0047263c     User32:USER32.dll
 0002:00000640       __imp__ValidateRect@8      00472640     User32:USER32.dll
 0002:00000644       __imp__PeekMessageA@20     00472644     User32:USER32.dll
 0002:00000648       __imp__GetKeyState@4       00472648     User32:USER32.dll
 0002:0000064c       __imp__IsWindowVisible@4   0047264c     User32:USER32.dll
 0002:00000650       __imp__DispatchMessageA@4  00472650     User32:USER32.dll
 0002:00000654       __imp__TranslateMessage@4  00472654     User32:USER32.dll
 0002:00000658       __imp__GetMessageA@16      00472658     User32:USER32.dll
 0002:0000065c       __imp__CallNextHookEx@16   0047265c     User32:USER32.dll
 0002:00000660       __imp__SetWindowsHookExA@16 00472660     User32:USER32.dll
 0002:00000664       __imp__ShowOwnedPopups@8   00472664     User32:USER32.dll
 0002:00000668       __imp__IsWindowEnabled@4   00472668     User32:USER32.dll
 0002:0000066c       __imp__GetLastActivePopup@4 0047266c     User32:USER32.dll
 0002:00000670       __imp__EndDialog@8         00472670     User32:USER32.dll
 0002:00000674       __imp__GetNextDlgTabItem@12 00472674     User32:USER32.dll
 0002:00000678       __imp__GetDlgItem@8        00472678     User32:USER32.dll
 0002:0000067c       __imp__DestroyWindow@4     0047267c     User32:USER32.dll
 0002:00000680       __imp__CreateDialogIndirectParamA@20 00472680     User32:USER32.dll
 0002:00000684       __imp__SetActiveWindow@4   00472684     User32:USER32.dll
 0002:00000688       __imp__GetDesktopWindow@0  00472688     User32:USER32.dll
 0002:0000068c       __imp__MapDialogRect@8     0047268c     User32:USER32.dll
 0002:00000690       __imp__SetWindowContextHelpId@8 00472690     User32:USER32.dll
 0002:00000694       __imp__GetWindow@8         00472694     User32:USER32.dll
 0002:00000698       __imp__GetWindowPlacement@8 00472698     User32:USER32.dll
 0002:0000069c       __imp__IsIconic@4          0047269c     User32:USER32.dll
 0002:000006a0       __imp__SystemParametersInfoA@16 004726a0     User32:USER32.dll
 0002:000006a4       __imp__IntersectRect@12    004726a4     User32:USER32.dll
 0002:000006a8       __imp__DefWindowProcA@16   004726a8     User32:USER32.dll
 0002:000006ac       __imp__GetDlgCtrlID@4      004726ac     User32:USER32.dll
 0002:000006b0       __imp__SetScrollInfo@16    004726b0     User32:USER32.dll
 0002:000006b4       __imp__GetScrollInfo@12    004726b4     User32:USER32.dll
 0002:000006b8       __imp__DeferWindowPos@32   004726b8     User32:USER32.dll
 0002:000006bc       __imp__EqualRect@8         004726bc     User32:USER32.dll
 0002:000006c0       __imp__ScreenToClient@8    004726c0     User32:USER32.dll
 0002:000006c4       __imp__AdjustWindowRectEx@16 004726c4     User32:USER32.dll
 0002:000006c8       __imp__RegisterClassA@4    004726c8     User32:USER32.dll
 0002:000006cc       __imp__GetClassInfoExA@12  004726cc     User32:USER32.dll
 0002:000006d0       \177USER32_NULL_THUNK_DATA 004726d0     User32:USER32.dll
 0002:000006d4       __imp__DeleteUrlCacheEntry@4 004726d4     Wininet:WININET.dll
 0002:000006d8       \177WININET_NULL_THUNK_DATA 004726d8     Wininet:WININET.dll
 0002:000006dc       __imp__DocumentPropertiesA@24 004726dc     winspool:WINSPOOL.DRV
 0002:000006e0       __imp__OpenPrinterA@12     004726e0     winspool:WINSPOOL.DRV
 0002:000006e4       __imp__ClosePrinter@4      004726e4     winspool:WINSPOOL.DRV
 0002:000006e8       \177WINSPOOL_NULL_THUNK_DATA 004726e8     winspool:WINSPOOL.DRV
 0002:000006ec       __imp__WSACleanup@0        004726ec     ws2_32:WS2_32.dll
 0002:000006f0       __imp__connect@12          004726f0     ws2_32:WS2_32.dll
 0002:000006f4       __imp__htons@4             004726f4     ws2_32:WS2_32.dll
 0002:000006f8       __imp__setsockopt@20       004726f8     ws2_32:WS2_32.dll
 0002:000006fc       __imp__WSARecv@28          004726fc     ws2_32:WS2_32.dll
 0002:00000700       __imp__WSASend@28          00472700     ws2_32:WS2_32.dll
 0002:00000704       __imp__WSAWaitForMultipleEvents@20 00472704     ws2_32:WS2_32.dll
 0002:00000708       __imp__WSAStartup@8        00472708     ws2_32:WS2_32.dll
 0002:0000070c       __imp__WSAConnect@28       0047270c     ws2_32:WS2_32.dll
 0002:00000710       __imp__WSASocketA@24       00472710     ws2_32:WS2_32.dll
 0002:00000714       __imp__WSAGetLastError@0   00472714     ws2_32:WS2_32.dll
 0002:00000718       __imp__select@20           00472718     ws2_32:WS2_32.dll
 0002:0000071c       __imp____WSAFDIsSet@8      0047271c     ws2_32:WS2_32.dll
 0002:00000720       __imp__recv@16             00472720     ws2_32:WS2_32.dll
 0002:00000724       __imp__socket@12           00472724     ws2_32:WS2_32.dll
 0002:00000728       __imp__closesocket@4       00472728     ws2_32:WS2_32.dll
 0002:0000072c       __imp__inet_addr@4         0047272c     ws2_32:WS2_32.dll
 0002:00000730       \177WS2_32_NULL_THUNK_DATA 00472730     ws2_32:WS2_32.dll
 0002:00000734       __imp__GetFileTitleA@12    00472734     comdlg32:comdlg32.dll
 0002:00000738       \177comdlg32_NULL_THUNK_DATA 00472738     comdlg32:comdlg32.dll
 0002:0000073c       __imp__OleUninitialize@0   0047273c     ole32:ole32.dll
 0002:00000740       __imp__CoTaskMemFree@4     00472740     ole32:ole32.dll
 0002:00000744       __imp__CoRegisterMessageFilter@8 00472744     ole32:ole32.dll
 0002:00000748       __imp__OleFlushClipboard@0 00472748     ole32:ole32.dll
 0002:0000074c       __imp__OleIsCurrentClipboard@4 0047274c     ole32:ole32.dll
 0002:00000750       __imp__CoRevokeClassObject@4 00472750     ole32:ole32.dll
 0002:00000754       __imp__OleInitialize@4     00472754     ole32:ole32.dll
 0002:00000758       __imp__CoFreeUnusedLibraries@0 00472758     ole32:ole32.dll
 0002:0000075c       __imp__CreateStreamOnHGlobal@12 0047275c     ole32:ole32.dll
 0002:00000760       __imp__CreateILockBytesOnHGlobal@12 00472760     ole32:ole32.dll
 0002:00000764       __imp__StgCreateDocfileOnILockBytes@16 00472764     ole32:ole32.dll
 0002:00000768       __imp__StgOpenStorageOnILockBytes@24 00472768     ole32:ole32.dll
 0002:0000076c       __imp__CoGetClassObject@20 0047276c     ole32:ole32.dll
 0002:00000770       __imp__CLSIDFromString@8   00472770     ole32:ole32.dll
 0002:00000774       __imp__CLSIDFromProgID@8   00472774     ole32:ole32.dll
 0002:00000778       __imp__CoTaskMemAlloc@4    00472778     ole32:ole32.dll
 0002:0000077c       __imp__CoCreateInstance@20 0047277c     ole32:ole32.dll
 0002:00000780       \177ole32_NULL_THUNK_DATA  00472780     ole32:ole32.dll
 0002:00000784       __imp__OleUIBusyA@4        00472784     oledlg:oledlg.dll
 0002:00000788       \177oledlg_NULL_THUNK_DATA 00472788     oledlg:oledlg.dll
 0002:0000078c       __imp__URLDownloadToFileA@20 0047278c     Urlmon:urlmon.dll
 0002:00000790       \177urlmon_NULL_THUNK_DATA 00472790     Urlmon:urlmon.dll
 0002:00000794       __imp_?GetValidDownSize@@YA_JXZ 00472794     v_down:v_down.dll
 0002:00000798       __imp_?GetSpeed@@YAHXZ     00472798     v_down:v_down.dll
 0002:0000079c       __imp_?GetStatus@@YAHXZ    0047279c     v_down:v_down.dll
 0002:000007a0       __imp_?GetStartPoint@@YA_JXZ 004727a0     v_down:v_down.dll
 0002:000007a4       __imp_?OnStop_Download@@YAXXZ 004727a4     v_down:v_down.dll
 0002:000007a8       __imp_?OnStart_Download@@YAHH@Z 004727a8     v_down:v_down.dll
 0002:000007ac       __imp_?SetDownloadFileEx@@YAXPAD00_J0H@Z 004727ac     v_down:v_down.dll
 0002:000007b0       __imp_?SetDownMainSvrInfo@@YAXPADHH@Z 004727b0     v_down:v_down.dll
 0002:000007b4       __imp_?InitNodeLib@@YAXPAD@Z 004727b4     v_down:v_down.dll
 0002:000007b8       \177v_down_NULL_THUNK_DATA 004727b8     v_down:v_down.dll
 0002:000007bc       ___xc_a                    004727bc     libcmt:crt0init.obj
 0002:00000834       ___xc_z                    00472834     libcmt:crt0init.obj
 0002:00000838       ___xi_a                    00472838     libcmt:crt0init.obj
 0002:00000854       ___xi_z                    00472854     libcmt:crt0init.obj
 0002:00000858       ___xp_a                    00472858     libcmt:crt0init.obj
 0002:00000864       ___xp_z                    00472864     libcmt:crt0init.obj
 0002:00000868       ___xt_a                    00472868     libcmt:crt0init.obj
 0002:0000086c       ___xt_z                    0047286c     libcmt:crt0init.obj
 0002:00000b1c       ??_7down_client@@6B@       00472b1c     down_client.obj
 0002:00000d0c       ??_7CPictureEx@@6B@        00472d0c     PictureEx.obj
 0002:00000e98       ??_C@_0BD@OLBABOEK@vector?$DMT?$DO?5too?5long?$AA@ 00472e98     PictureEx.obj
 0002:00000eb0       ??_7length_error@std@@6B@  00472eb0     PictureEx.obj
 0002:00000ebc       ??_7logic_error@std@@6B@   00472ebc     PictureEx.obj
 0002:00000ec4       ?npos@?$basic_string@DU?$char_traits@D@std@@V?$allocator@D@2@@std@@2IB 00472ec4     PictureEx.obj
 0002:00000ecc       ??_7bad_alloc@std@@6B@     00472ecc     PictureEx.obj
 0002:00000edc       ??_7CStatic@@6B@           00472edc     PictureEx.obj
 0002:0000112c       ??_7CSkinHeaderCtrl@@6B@   0047312c     SkinListCtrl.obj
 0002:000012ac       ??_7CSkinListCtrl@@6B@     004732ac     SkinListCtrl.obj
 0002:00001484       ??_7CPen@@6B@              00473484     SkinListCtrl.obj
 0002:00001494       ??_7CGdiObject@@6B@        00473494     SkinListCtrl.obj
 0002:000014a0       ??_C@_0L@LBHJMCDF@?$CFs?5?$CI?$CFs?3?$CFd?$CJ?$AA@ 004734a0     SkinListCtrl.obj
 0002:000014ac       ??_C@_0O@KHJMBFME@?$CFs?5?$CI?$CFs?3?$CFd?$CJ?6?$CFs?$AA@ 004734ac     SkinListCtrl.obj
 0002:000014bc       ??_C@_0BP@OIEOKIDM@Exception?5thrown?5in?5destructor?$AA@ 004734bc     SkinListCtrl.obj
 0002:000014e0       ??_C@_0EJ@FFNLFAJI@C?3?2Program?5Files?2Microsoft?5Visua@ 004734e0     SkinListCtrl.obj
 0002:00001530       ??_7CBrush@@6B@            00473530     SkinListCtrl.obj
 0002:00001540       ??_7CBitmap@@6B@           00473540     SkinListCtrl.obj
 0002:00001550       ??_7CRgn@@6B@              00473550     SkinListCtrl.obj
 0002:00001564       ??_7CListCtrl@@6B@         00473564     SkinListCtrl.obj
 0002:000016a4       ??_7CHeaderCtrl@@6B@       004736a4     SkinListCtrl.obj
 0002:000017e4       ??_C@_0P@PHOGADFO@ImageList_Draw?$AA@ 004737e4     SkinListCtrl.obj
 0002:00001c30       __real@4090000000000000    00473c30     FtpClient.obj
 0002:00001dd8       ??_7NetworkController@@6B@ 00473dd8     NetworkController.obj
 0002:00001ddc       ??_C@_03MFJJLKJK@EPC?$AA@  00473ddc     NetworkController.obj
 0002:00002efc       ??_7Worker@@6B@            00474efc     Worker.obj
 0002:0000301c       ??_7CBTray@@6B@            0047501c     BTray.obj
 0002:00003274       ??_7CComboEx@@6B@          00475274     ComboEx.obj
 0002:000034a4       ??_7CComboBox@@6B@         004754a4     ComboEx.obj
 0002:00003840       ?classHtmlViewer@HtmlViewer@@2UCRuntimeClass@@B 00475840     HtmlViewer.obj
 0002:00003864       ??_7HtmlViewer@@6B@        00475864     HtmlViewer.obj
 0002:00003a8c       __GUID_3050f434_98b5_11cf_bb82_00aa00bdce0b 00475a8c     HtmlViewer.obj
 0002:00003a9c       __GUID_3050f1d8_98b5_11cf_bb82_00aa00bdce0b 00475a9c     HtmlViewer.obj
 0002:00003bbc       ??_7CLabel@@6B@            00475bbc     Label.obj
 0002:00003d7c       ??_7CFont@@6B@             00475d7c     Label.obj
 0002:00003e90       ??_7CRegistry@@6B@         00475e90     registry.obj
 0002:00004034       ?classCSelectFolderDialog@CSelectFolderDialog@@2UCRuntimeClass@@B 00476034     SelectFolderDialog.obj
 0002:00004054       ??_7CSelectFolderDialog@@6B@ 00476054     SelectFolderDialog.obj
 0002:000041dc       ??_7CEdit@@6B@             004761dc     SelectFolderDialog.obj
 0002:00004414       ??_7CSkinButton@@6B@       00476414     SkinButton.obj
 0002:000045ec       ??_7CButton@@6B@           004765ec     SkinButton.obj
 0002:0000483c       ??_7CSkinDialog@@6B@       0047683c     SkinDialog.obj
 0002:000049a4       ??_7?$CTypedPtrArray@VCPtrArray@@PAVCSkinButton@@@@6B@ 004769a4     SkinDialog.obj
 0002:00004b8c       ??_7SkinProgress@@6B@      00476b8c     SkinProgress.obj
 0002:00004e4c       ??_7CTrayIconPosition@@6B@ 00476e4c     TrayIconPosition.obj
 0002:00005180       __real@40d3c40000000000    00477180     down_window_func.obj
 0002:00005188       __real@3f8ccccd            00477188     down_window_func.obj
 0002:000065c4       ??_7down_window@@6B@       004785c4     down_window_init.obj
 0002:000069f4       ??_7CTrayWindow@@6B@       004789f4     TrayWindow.obj
 0002:0000748c       ??_7use_window@@6B@        0047948c     use_window.obj
 0002:00007758       ?classDebugLIst@DebugLIst@@2UCRuntimeClass@@B 00479758     DebugLIst.obj
 0002:0000777c       ??_7DebugLIst@@6B@         0047977c     DebugLIst.obj
 0002:00007a84       ??_7Dlg_Alert@@6B@         00479a84     Dlg_Alert.obj
 0002:00007eb4       ??_7Dlg_Confirm@@6B@       00479eb4     Dlg_Confirm.obj
 0002:000081f4       ??_7Dlg_Exist@@6B@         0047a1f4     Dlg_Exist.obj
 0002:00008614       ??_7Dlg_Setup@@6B@         0047a614     Dlg_Setup.obj
 0002:000088e4       ??_7Dlg_Slide@@6B@         0047a8e4     Dlg_Slide.obj
 0002:00008a9c       ??_7_com_error@@6B@        0047aa9c     comsuppw:comraise.obj
 0002:00008aa0       __GUID_00020400_0000_0000_c000_000000000046 0047aaa0     comsuppw:invkerr.obj
 0002:00008ab0       ??_C@_0O@MIBDFLDP@COleException?$AA@ 0047aab0     nafxcw:olemisc.obj
 0002:00008ac0       ?classCOleException@COleException@@2UCRuntimeClass@@B 0047aac0     nafxcw:olemisc.obj
 0002:00008ae0       ??_7COleException@@6B@     0047aae0     nafxcw:olemisc.obj
 0002:00008af8       ??_C@_07JPHDIPNG@DISPLAY?$AA@ 0047aaf8     nafxcw:olemisc.obj
 0002:00008b00       ??_C@_0BF@JDJEAIOB@CInvalidArgException?$AA@ 0047ab00     nafxcw:except.obj
 0002:00008b18       ??_C@_0BH@EAGMGDLP@CNotSupportedException?$AA@ 0047ab18     nafxcw:except.obj
 0002:00008b30       ??_C@_0BB@HMFCKMLN@CMemoryException?$AA@ 0047ab30     nafxcw:except.obj
 0002:00008b44       ??_C@_0L@JGHLGBLN@CException?$AA@ 0047ab44     nafxcw:except.obj
 0002:00008b50       ?classCException@CException@@2UCRuntimeClass@@B 0047ab50     nafxcw:except.obj
 0002:00008b6c       ?classCMemoryException@CMemoryException@@2UCRuntimeClass@@B 0047ab6c     nafxcw:except.obj
 0002:00008b88       ?classCNotSupportedException@CNotSupportedException@@2UCRuntimeClass@@B 0047ab88     nafxcw:except.obj
 0002:00008ba4       ?classCInvalidArgException@CInvalidArgException@@2UCRuntimeClass@@B 0047aba4     nafxcw:except.obj
 0002:00008bc4       ??_7CMemoryException@@6B@  0047abc4     nafxcw:except.obj
 0002:00008be0       ??_7CNotSupportedException@@6B@ 0047abe0     nafxcw:except.obj
 0002:00008bfc       ??_7CInvalidArgException@@6B@ 0047abfc     nafxcw:except.obj
 0002:00008c14       ??_C@_07IKCCILOB@CWinApp?$AA@ 0047ac14     nafxcw:appcore.obj
 0002:00008c1c       ?_afxPreviewSection@@3QBDB 0047ac1c     nafxcw:appcore.obj
 0002:00008c28       ?_afxPreviewEntry@@3QBDB   0047ac28     nafxcw:appcore.obj
 0002:00008c38       ?classCWinApp@CWinApp@@2UCRuntimeClass@@B 0047ac38     nafxcw:appcore.obj
 0002:00008cc0       ??_C@_0BB@NPIOCCPF@DeactivateActCtx?$AA@ 0047acc0     nafxcw:appcore.obj
 0002:00008cd4       ??_C@_0P@CECBPMJL@ActivateActCtx?$AA@ 0047acd4     nafxcw:appcore.obj
 0002:00008ce4       ??_C@_0O@MFNHEEKA@ReleaseActCtx?$AA@ 0047ace4     nafxcw:appcore.obj
 0002:00008cf4       ??_C@_0O@IGJNKHBG@CreateActCtxA?$AA@ 0047acf4     nafxcw:appcore.obj
 0002:00008d04       ??_C@_08CPNIBGIE@KERNEL32?$AA@ 0047ad04     nafxcw:appcore.obj
 0002:00008d10       ??_C@_0DM@GGDFFNEK@Software?2Microsoft?2Windows?2Curre@ 0047ad10     nafxcw:appcore.obj
 0002:00008d4c       ??_C@_05KIENPOGH@NoRun?$AA@ 0047ad4c     nafxcw:appcore.obj
 0002:00008d54       ??_C@_08GALLLFPB@NoDrives?$AA@ 0047ad54     nafxcw:appcore.obj
 0002:00008d60       ??_C@_0M@HPPBOEKA@RestrictRun?$AA@ 0047ad60     nafxcw:appcore.obj
 0002:00008d6c       ??_C@_0BH@DOFDNNBH@NoNetConnectDisconnect?$AA@ 0047ad6c     nafxcw:appcore.obj
 0002:00008d84       ??_C@_0BE@BCHLKPOG@NoRecentDocsHistory?$AA@ 0047ad84     nafxcw:appcore.obj
 0002:00008d98       ??_C@_07CDECIAHF@NoClose?$AA@ 0047ad98     nafxcw:appcore.obj
 0002:00008da0       ??_C@_0DL@MECMLIJJ@Software?2Microsoft?2Windows?2Curre@ 0047ada0     nafxcw:appcore.obj
 0002:00008ddc       ??_C@_0BA@FOHNNHBN@NoEntireNetwork?$AA@ 0047addc     nafxcw:appcore.obj
 0002:00008dec       ??_C@_0DM@DBCEKDOL@Software?2Microsoft?2Windows?2Curre@ 0047adec     nafxcw:appcore.obj
 0002:00008e28       ??_C@_0M@LIECBDAG@NoPlacesBar?$AA@ 0047ae28     nafxcw:appcore.obj
 0002:00008e34       ??_C@_0N@GNMJFKCB@NoBackButton?$AA@ 0047ae34     nafxcw:appcore.obj
 0002:00008e44       ??_C@_09KMKHKKMC@NoFileMru?$AA@ 0047ae44     nafxcw:appcore.obj
 0002:00008e50       ??_C@_0BJ@NKEELOFF@FindActCtxSectionStringA?$AA@ 0047ae50     nafxcw:appcore.obj
 0002:00008e6c       ??_C@_03KPOLBBFN@LOC?$AA@  0047ae6c     nafxcw:appcore.obj
 0002:00008e70       ??_C@_09FLKFJBLM@ntdll?4dll?$AA@ 0047ae70     nafxcw:appcore.obj
 0002:00008e7c       ??_C@_02NJNOFBBI@?$CFx?$AA@ 0047ae7c     nafxcw:appcore.obj
 0002:00008e80       ??_C@_0CF@EJNEJPGJ@Control?5Panel?2Desktop?2ResourceLo@ 0047ae80     nafxcw:appcore.obj
 0002:00008ea8       ??_C@_0BL@ILHANBAM@GetSystemDefaultUILanguage?$AA@ 0047aea8     nafxcw:appcore.obj
 0002:00008ec4       ??_C@_0BJ@DKKDGADA@GetUserDefaultUILanguage?$AA@ 0047aec4     nafxcw:appcore.obj
 0002:00008ee0       ??_C@_0N@MDJJJHMB@kernel32?4dll?$AA@ 0047aee0     nafxcw:appcore.obj
 0002:00008eed       ??_C@_00CNPNBAHC@?$AA@     0047aeed     nafxcw:appcore.obj
 0002:00008ef0       ??_C@_08KBEMDEEE@?$CFs?$CFs?4dll?$AA@ 0047aef0     nafxcw:appcore.obj
 0002:00008f04       ??_7CWinApp@@6B@           0047af04     nafxcw:appcore.obj
 0002:00008fbc       ??_C@_0DG@EEPGKIAA@f?3?2dd?2vctools?2vc7libs?2ship?2atlmf@ 0047afbc     nafxcw:appcore.obj
 0002:00008ff4       ??_C@_0L@GDEMJNJL@CCmdTarget?$AA@ 0047aff4     nafxcw:cmdtarg.obj
 0002:00009000       ?_dispatchEntries@CCmdTarget@@0QBUAFX_DISPMAP_ENTRY@@B 0047b000     nafxcw:cmdtarg.obj
 0002:00009020       ?dispatchMap@CCmdTarget@@1UAFX_DISPMAP@@B 0047b020     nafxcw:cmdtarg.obj
 0002:00009030       ?_eventsinkEntries@CCmdTarget@@0QBUAFX_EVENTSINKMAP_ENTRY@@B 0047b030     nafxcw:cmdtarg.obj
 0002:00009058       ?eventsinkMap@CCmdTarget@@1UAFX_EVENTSINKMAP@@B 0047b058     nafxcw:cmdtarg.obj
 0002:00009064       ?_interfaceEntries@CCmdTarget@@0QBUAFX_INTERFACEMAP_ENTRY@@B 0047b064     nafxcw:cmdtarg.obj
 0002:00009074       ?interfaceMap@CCmdTarget@@1UAFX_INTERFACEMAP@@B 0047b074     nafxcw:cmdtarg.obj
 0002:0000907c       ?_connectionEntries@CCmdTarget@@0QBUAFX_CONNECTIONMAP_ENTRY@@B 0047b07c     nafxcw:cmdtarg.obj
 0002:00009084       ?connectionMap@CCmdTarget@@1UAFX_CONNECTIONMAP@@B 0047b084     nafxcw:cmdtarg.obj
 0002:0000908c       ?_commandEntries@CCmdTarget@@0QBUAFX_OLECMDMAP_ENTRY@@B 0047b08c     nafxcw:cmdtarg.obj
 0002:00009098       ?commandMap@CCmdTarget@@1UAFX_OLECMDMAP@@B 0047b098     nafxcw:cmdtarg.obj
 0002:000090a0       ?_afxDot@@3QBEB            0047b0a0     nafxcw:cmdtarg.obj
 0002:000090a8       ?classCCmdTarget@CCmdTarget@@2UCRuntimeClass@@B 0047b0a8     nafxcw:cmdtarg.obj
 0002:000090d0       ??_7CCmdUI@@6B@            0047b0d0     nafxcw:cmdtarg.obj
 0002:000090e0       ??_C@_0L@EBOINCAD@CWinThread?$AA@ 0047b0e0     nafxcw:thrdcore.obj
 0002:000090ec       ?classCWinThread@CWinThread@@2UCRuntimeClass@@B 0047b0ec     nafxcw:thrdcore.obj
 0002:0000910c       ??_7CWinThread@@6B@        0047b10c     nafxcw:thrdcore.obj
 0002:00009188       ??_C@_01KICIPPFI@?2?$AA@   0047b188     nafxcw:appui2.obj
 0002:0000918c       ??_C@_09OIHOKJLD@Software?2?$AA@ 0047b18c     nafxcw:appui2.obj
 0002:00009198       ??_C@_07BOOFINFL@CDialog?$AA@ 0047b198     nafxcw:dlgcore.obj
 0002:000091a0       ?classCDialog@CDialog@@2UCRuntimeClass@@B 0047b1a0     nafxcw:dlgcore.obj
 0002:000091c4       ??_7CDialog@@6B@           0047b1c4     nafxcw:dlgcore.obj
 0002:00009320       ??_C@_04BBNPPDNC@Edit?$AA@ 0047b320     nafxcw:dlgcore.obj
 0002:000093f0       ??_C@_0N@GHCGDJFB@MS?5Shell?5Dlg?$AA@ 0047b3f0     nafxcw:dlgcore.obj
 0002:00009404       ??_7IControlSiteFactory@@6B@ 0047b404     nafxcw:occmgr.obj
 0002:00009410       ??_7?$CList@PAVIControlSiteFactory@@PAV1@@@6B@ 0047b410     nafxcw:occmgr.obj
 0002:00009420       ??_7COleControlSiteFactory@@6B@ 0047b420     nafxcw:occmgr.obj
 0002:0000942c       ??_7CControlSiteFactoryMgr@@6B@ 0047b42c     nafxcw:occmgr.obj
 0002:00009434       ??_7COccManager@@6B@       0047b434     nafxcw:occmgr.obj
 0002:00009460       ??_C@_04DDIMFFOJ@CWnd?$AA@ 0047b460     nafxcw:wincore.obj
 0002:00009468       ?_interfaceEntries@CWnd@@0QBUAFX_INTERFACEMAP_ENTRY@@B 0047b468     nafxcw:wincore.obj
 0002:00009470       ?_afxWnd@@3QBDB            0047b470     nafxcw:wincore.obj
 0002:0000947c       ?_afxWndControlBar@@3QBDB  0047b47c     nafxcw:wincore.obj
 0002:00009490       ?_afxWndMDIFrame@@3QBDB    0047b490     nafxcw:wincore.obj
 0002:000094a0       ?_afxWndFrameOrView@@3QBDB 0047b4a0     nafxcw:wincore.obj
 0002:000094b4       ?_afxWndOleControl@@3QBDB  0047b4b4     nafxcw:wincore.obj
 0002:000094c8       ?_afxOldWndProc@@3QBDB     0047b4c8     nafxcw:wincore.obj
 0002:000094dc       ?interfaceMap@CWnd@@1UAFX_INTERFACEMAP@@B 0047b4dc     nafxcw:wincore.obj
 0002:000094e4       ?classCWnd@CWnd@@2UCRuntimeClass@@B 0047b4e4     nafxcw:wincore.obj
 0002:00009500       ??_C@_0BE@NPEOLIBM@EnumDisplayDevicesA?$AA@ 0047b500     nafxcw:wincore.obj
 0002:00009514       ??_C@_0BA@KIAMMEPJ@GetMonitorInfoA?$AA@ 0047b514     nafxcw:wincore.obj
 0002:00009524       ??_C@_0BE@OHNDFFJG@EnumDisplayMonitors?$AA@ 0047b524     nafxcw:wincore.obj
 0002:00009538       ??_C@_0BB@DDMDAIAD@MonitorFromPoint?$AA@ 0047b538     nafxcw:wincore.obj
 0002:0000954c       ??_C@_0BA@DPLKJPEB@MonitorFromRect?$AA@ 0047b54c     nafxcw:wincore.obj
 0002:0000955c       ??_C@_0BC@CHFENAPF@MonitorFromWindow?$AA@ 0047b55c     nafxcw:wincore.obj
 0002:00009570       ??_C@_0BB@BFCABEPI@GetSystemMetrics?$AA@ 0047b570     nafxcw:wincore.obj
 0002:00009584       ??_C@_06KDCOIDGA@USER32?$AA@ 0047b584     nafxcw:wincore.obj
 0002:0000958c       ??_C@_1BE@IPGFMKAP@?$AAa?$AAc?$AAc?$AAP?$AAa?$AAr?$AAe?$AAn?$AAt?$AA?$AA@ 0047b58c     nafxcw:wincore.obj
 0002:000095a0       ??_C@_1BM@BMIHNMGG@?$AAa?$AAc?$AAc?$AAC?$AAh?$AAi?$AAl?$AAd?$AAC?$AAo?$AAu?$AAn?$AAt?$AA?$AA@ 0047b5a0     nafxcw:wincore.obj
 0002:000095bc       ??_C@_1BC@PBFDOIOF@?$AAa?$AAc?$AAc?$AAC?$AAh?$AAi?$AAl?$AAd?$AA?$AA@ 0047b5bc     nafxcw:wincore.obj
 0002:000095d0       ??_C@_1BA@PLNDADF@?$AAa?$AAc?$AAc?$AAN?$AAa?$AAm?$AAe?$AA?$AA@ 0047b5d0     nafxcw:wincore.obj
 0002:000095e0       ??_C@_1BC@ENHIGDJB@?$AAa?$AAc?$AAc?$AAV?$AAa?$AAl?$AAu?$AAe?$AA?$AA@ 0047b5e0     nafxcw:wincore.obj
 0002:000095f4       ??_C@_1BO@LNDKJAGG@?$AAa?$AAc?$AAc?$AAD?$AAe?$AAs?$AAc?$AAr?$AAi?$AAp?$AAt?$AAi?$AAo?$AAn?$AA?$AA@ 0047b5f4     nafxcw:wincore.obj
 0002:00009614       ??_C@_1BA@OMPJJAME@?$AAa?$AAc?$AAc?$AAR?$AAo?$AAl?$AAe?$AA?$AA@ 0047b614     nafxcw:wincore.obj
 0002:00009624       ??_C@_1BC@EEAFJIFJ@?$AAa?$AAc?$AAc?$AAS?$AAt?$AAa?$AAt?$AAe?$AA?$AA@ 0047b624     nafxcw:wincore.obj
 0002:00009638       ??_C@_1BA@CKHCDKIA@?$AAa?$AAc?$AAc?$AAH?$AAe?$AAl?$AAp?$AA?$AA@ 0047b638     nafxcw:wincore.obj
 0002:00009648       ??_C@_1BK@GNALBKBD@?$AAa?$AAc?$AAc?$AAH?$AAe?$AAl?$AAp?$AAT?$AAo?$AAp?$AAi?$AAc?$AA?$AA@ 0047b648     nafxcw:wincore.obj
 0002:00009664       ??_C@_1CI@PLNHFMPJ@?$AAa?$AAc?$AAc?$AAK?$AAe?$AAy?$AAb?$AAo?$AAa?$AAr?$AAd?$AAS?$AAh?$AAo?$AAr?$AAt?$AAc?$AAu?$AAt?$AA?$AA@ 0047b664     nafxcw:wincore.obj
 0002:0000968c       ??_C@_1BC@PDPLKEDB@?$AAa?$AAc?$AAc?$AAF?$AAo?$AAc?$AAu?$AAs?$AA?$AA@ 0047b68c     nafxcw:wincore.obj
 0002:000096a0       ??_C@_1BK@KFJGMMBL@?$AAa?$AAc?$AAc?$AAS?$AAe?$AAl?$AAe?$AAc?$AAt?$AAi?$AAo?$AAn?$AA?$AA@ 0047b6a0     nafxcw:wincore.obj
 0002:000096bc       ??_C@_1CC@CJCCELFA@?$AAa?$AAc?$AAc?$AAD?$AAe?$AAf?$AAa?$AAu?$AAl?$AAt?$AAA?$AAc?$AAt?$AAi?$AAo?$AAn?$AA?$AA@ 0047b6bc     nafxcw:wincore.obj
 0002:000096e0       ??_C@_1BE@HFPLHGCO@?$AAa?$AAc?$AAc?$AAS?$AAe?$AAl?$AAe?$AAc?$AAt?$AA?$AA@ 0047b6e0     nafxcw:wincore.obj
 0002:000096f4       ??_C@_1BI@LONMDPCL@?$AAa?$AAc?$AAc?$AAL?$AAo?$AAc?$AAa?$AAt?$AAi?$AAo?$AAn?$AA?$AA@ 0047b6f4     nafxcw:wincore.obj
 0002:0000970c       ??_C@_1BI@NOPLNCPL@?$AAa?$AAc?$AAc?$AAN?$AAa?$AAv?$AAi?$AAg?$AAa?$AAt?$AAe?$AA?$AA@ 0047b70c     nafxcw:wincore.obj
 0002:00009724       ??_C@_1BG@JGHKFACA@?$AAa?$AAc?$AAc?$AAH?$AAi?$AAt?$AAT?$AAe?$AAs?$AAt?$AA?$AA@ 0047b724     nafxcw:wincore.obj
 0002:0000973c       ??_C@_1CG@DKEMKFDI@?$AAa?$AAc?$AAc?$AAD?$AAo?$AAD?$AAe?$AAf?$AAa?$AAu?$AAl?$AAt?$AAA?$AAc?$AAt?$AAi?$AAo?$AAn?$AA?$AA@ 0047b73c     nafxcw:wincore.obj
 0002:0000976c       ??_7XAccessible@CWnd@@6B@  0047b76c     nafxcw:wincore.obj
 0002:000097e0       ??_7XAccessibleServer@CWnd@@6B@ 0047b7e0     nafxcw:wincore.obj
 0002:000097fc       ??_7CWnd@@6B@              0047b7fc     nafxcw:wincore.obj
 0002:00009934       ??_7CTestCmdUI@@6B@        0047b934     nafxcw:wincore.obj
 0002:00009944       __GUID_618736e0_3c3d_11cf_810c_00aa00389b71 0047b944     nafxcw:wincore.obj
 0002:00009954       __GUID_7a7d9dcf_b7a1_4019_9031_258268846980 0047b954     nafxcw:wincore.obj
 0002:00009968       ??_7_AFX_HTMLHELP_STATE@@6B@ 0047b968     nafxcw:wincore.obj
 0002:0000996c       ??_C@_0BD@KDNHKDOA@InitCommonControls?$AA@ 0047b96c     nafxcw:wincore.obj
 0002:00009980       ??_C@_0BF@IABGBOLM@InitCommonControlsEx?$AA@ 0047b980     nafxcw:wincore.obj
 0002:00009998       ??_C@_09EFBFPPGM@HtmlHelpA?$AA@ 0047b998     nafxcw:wincore.obj
 0002:000099a4       ??_C@_0L@EFKJKBHF@hhctrl?4ocx?$AA@ 0047b9a4     nafxcw:wincore.obj
 0002:000099b4       ??_7?$CMFCComObject@VCAccessibleProxy@ATL@@@@6B@ 0047b9b4     nafxcw:wincore.obj
 0002:000099cc       ??_7?$CMFCComObject@VCAccessibleProxy@ATL@@@@6BIAccessibleProxy@@@ 0047b9cc     nafxcw:wincore.obj
 0002:000099e4       ??_7?$CMFCComObject@VCAccessibleProxy@ATL@@@@6BIAccessible@@@ 0047b9e4     nafxcw:wincore.obj
 0002:00009a58       ?_entries@?1??_GetEntries@CAccessibleProxy@ATL@@SGPBU_ATL_INTMAP_ENTRY@3@XZ@4QBU43@B 0047ba58     nafxcw:wincore.obj
 0002:00009a94       __GUID_00000114_0000_0000_c000_000000000046 0047ba94     nafxcw:wincore.obj
 0002:00009aa4       ??_C@_06JPEMHIKE@?$CD32768?$AA@ 0047baa4     nafxcw:wincore.obj
 0002:00009aac       ??_C@_03MABAFPPL@ime?$AA@  0047baac     nafxcw:wincore.obj
 0002:00009ab0       ??_C@_0DG@LAHMNBDH@f?3?2dd?2vctools?2vc7libs?2ship?2atlmf@ 0047bab0     nafxcw:wincore.obj
 0002:00009dc0       ??_C@_0BD@EOLFNIPD@Afx?3?$CFp?3?$CFx?3?$CFp?3?$CFp?3?$CFp?$AA@ 0047bdc0     nafxcw:wincore.obj
 0002:00009dd4       ??_C@_09NJJHGIHK@Afx?3?$CFp?3?$CFx?$AA@ 0047bdd4     nafxcw:wincore.obj
 0002:00009de0       ??_C@_0BF@NHDBJBLA@commctrl_DragListMsg?$AA@ 0047bde0     nafxcw:wincore.obj
 0002:00009df8       ??_C@_09MNLOAPKG@CFileFind?$AA@ 0047bdf8     nafxcw:filefind.obj
 0002:00009e04       ?classCFileFind@CFileFind@@2UCRuntimeClass@@B 0047be04     nafxcw:filefind.obj
 0002:00009e24       ??_7CFileFind@@6B@         0047be24     nafxcw:filefind.obj
 0002:00009e70       ??_C@_03EMIMMIHL@?$CK?4?$CK?$AA@ 0047be70     nafxcw:filefind.obj
 0002:00009e74       ??_C@_07CAIJGPF@file?3?1?1?$AA@ 0047be74     nafxcw:filefind.obj
 0002:00009e7c       ??_C@_05PCLJOFI@CFile?$AA@ 0047be7c     nafxcw:filecore.obj
 0002:00009e84       ?hFileNull@CFile@@2QAXA    0047be84     nafxcw:filecore.obj
 0002:00009e88       ?classCFile@CFile@@2UCRuntimeClass@@B 0047be88     nafxcw:filecore.obj
 0002:00009eac       ??_7CFile@@6B@             0047beac     nafxcw:filecore.obj
 0002:00009f04       ??_7CFileException@@6B@    0047bf04     nafxcw:filecore.obj
 0002:00009f1c       ??_C@_0DH@EOOIJDKI@f?3?2dd?2vctools?2vc7libs?2ship?2atlmf@ 0047bf1c     nafxcw:filecore.obj
 0002:00009f54       ??_C@_0O@JKAFBCMB@CreateActCtxW?$AA@ 0047bf54     nafxcw:afxstate.obj
 0002:00009f68       ??_7_AFX_THREAD_STATE@@6B@ 0047bf68     nafxcw:afxstate.obj
 0002:00009f70       ??_7AFX_MODULE_THREAD_STATE@@6B@ 0047bf70     nafxcw:afxstate.obj
 0002:00009f78       ??_7AFX_MODULE_STATE@@6B@  0047bf78     nafxcw:afxstate.obj
 0002:00009f80       ??_7CDllIsolationWrapperBase@@6B@ 0047bf80     nafxcw:afxstate.obj
 0002:00009f88       ??_7CComCtlWrapper@@6B@    0047bf88     nafxcw:afxstate.obj
 0002:00009f8c       ??_C@_0N@OGEBEC@comctl32?4dll?$AA@ 0047bf8c     nafxcw:afxstate.obj
 0002:00009fa0       ??_7CCommDlgWrapper@@6B@   0047bfa0     nafxcw:afxstate.obj
 0002:00009fa4       ??_C@_0N@KIEIKGAE@comdlg32?4dll?$AA@ 0047bfa4     nafxcw:afxstate.obj
 0002:00009fb8       ??_7_AFX_BASE_MODULE_STATE@@6B@ 0047bfb8     nafxcw:afxstate.obj
 0002:00009fc0       ??_7CAfxStringMgr@@6B@     0047bfc0     nafxcw:strcore.obj
 0002:00009fd4       ??_C@_05OPPDNNKO@CEdit?$AA@ 0047bfd4     nafxcw:winctrl1.obj
 0002:00009fdc       ??_C@_09KGGDCKEC@CComboBox?$AA@ 0047bfdc     nafxcw:winctrl1.obj
 0002:00009fe8       ??_C@_07OFEOKGEK@CButton?$AA@ 0047bfe8     nafxcw:winctrl1.obj
 0002:00009ff0       ??_C@_07PGJIPIJI@CStatic?$AA@ 0047bff0     nafxcw:winctrl1.obj
 0002:00009ff8       ?classCStatic@CStatic@@2UCRuntimeClass@@B 0047bff8     nafxcw:winctrl1.obj
 0002:0000a014       ?classCButton@CButton@@2UCRuntimeClass@@B 0047c014     nafxcw:winctrl1.obj
 0002:0000a030       ?classCComboBox@CComboBox@@2UCRuntimeClass@@B 0047c030     nafxcw:winctrl1.obj
 0002:0000a04c       ?classCEdit@CEdit@@2UCRuntimeClass@@B 0047c04c     nafxcw:winctrl1.obj
 0002:0000a068       ??_C@_06GCFCNKMP@STATIC?$AA@ 0047c068     nafxcw:winctrl1.obj
 0002:0000a070       ??_C@_06HBIEIEBN@BUTTON?$AA@ 0047c070     nafxcw:winctrl1.obj
 0002:0000a078       ??_C@_08ILACPJID@COMBOBOX?$AA@ 0047c078     nafxcw:winctrl1.obj
 0002:0000a084       ??_C@_04BMCEDOKO@EDIT?$AA@ 0047c084     nafxcw:winctrl1.obj
 0002:0000a08c       ??_C@_04PBGMHGNO@CRgn?$AA@ 0047c08c     nafxcw:wingdi.obj
 0002:0000a094       ??_C@_07GCJEGOGK@CBitmap?$AA@ 0047c094     nafxcw:wingdi.obj
 0002:0000a09c       ??_C@_05HKBNDGPK@CFont?$AA@ 0047c09c     nafxcw:wingdi.obj
 0002:0000a0a4       ??_C@_06HBIADAKF@CBrush?$AA@ 0047c0a4     nafxcw:wingdi.obj
 0002:0000a0ac       ??_C@_04FIOBGKDL@CPen?$AA@ 0047c0ac     nafxcw:wingdi.obj
 0002:0000a0b4       ??_C@_0L@EAFIEMIL@CGdiObject?$AA@ 0047c0b4     nafxcw:wingdi.obj
 0002:0000a0c0       ??_C@_08MHGNPJKL@CPaintDC?$AA@ 0047c0c0     nafxcw:wingdi.obj
 0002:0000a0cc       ??_C@_09LJMOIHJC@CWindowDC?$AA@ 0047c0cc     nafxcw:wingdi.obj
 0002:0000a0d8       ??_C@_09CBCMPBPO@CClientDC?$AA@ 0047c0d8     nafxcw:wingdi.obj
 0002:0000a0e4       ??_C@_03PLNNOOOK@CDC?$AA@  0047c0e4     nafxcw:wingdi.obj
 0002:0000a0e8       ??_C@_0P@MCKPIMM@CUserException?$AA@ 0047c0e8     nafxcw:wingdi.obj
 0002:0000a0f8       ??_C@_0BD@LKICOBNI@CResourceException?$AA@ 0047c0f8     nafxcw:wingdi.obj
 0002:0000a10c       ?classCResourceException@CResourceException@@2UCRuntimeClass@@B 0047c10c     nafxcw:wingdi.obj
 0002:0000a128       ?classCUserException@CUserException@@2UCRuntimeClass@@B 0047c128     nafxcw:wingdi.obj
 0002:0000a144       ?classCDC@CDC@@2UCRuntimeClass@@B 0047c144     nafxcw:wingdi.obj
 0002:0000a160       ?classCClientDC@CClientDC@@2UCRuntimeClass@@B 0047c160     nafxcw:wingdi.obj
 0002:0000a17c       ?classCWindowDC@CWindowDC@@2UCRuntimeClass@@B 0047c17c     nafxcw:wingdi.obj
 0002:0000a198       ?classCPaintDC@CPaintDC@@2UCRuntimeClass@@B 0047c198     nafxcw:wingdi.obj
 0002:0000a1b4       ?classCGdiObject@CGdiObject@@2UCRuntimeClass@@B 0047c1b4     nafxcw:wingdi.obj
 0002:0000a1d0       ?classCPen@CPen@@2UCRuntimeClass@@B 0047c1d0     nafxcw:wingdi.obj
 0002:0000a1ec       ?classCBrush@CBrush@@2UCRuntimeClass@@B 0047c1ec     nafxcw:wingdi.obj
 0002:0000a208       ?classCFont@CFont@@2UCRuntimeClass@@B 0047c208     nafxcw:wingdi.obj
 0002:0000a224       ?classCBitmap@CBitmap@@2UCRuntimeClass@@B 0047c224     nafxcw:wingdi.obj
 0002:0000a240       ?classCRgn@CRgn@@2UCRuntimeClass@@B 0047c240     nafxcw:wingdi.obj
 0002:0000a260       ??_7CResourceException@@6B@ 0047c260     nafxcw:wingdi.obj
 0002:0000a27c       ??_7CUserException@@6B@    0047c27c     nafxcw:wingdi.obj
 0002:0000a29c       ??_7CDC@@6B@               0047c29c     nafxcw:wingdi.obj
 0002:0000a31c       ??_7CClientDC@@6B@         0047c31c     nafxcw:wingdi.obj
 0002:0000a39c       ??_7CWindowDC@@6B@         0047c39c     nafxcw:wingdi.obj
 0002:0000a41c       ??_7CPaintDC@@6B@          0047c41c     nafxcw:wingdi.obj
 0002:0000a4a4       ??_C@_0L@NIPBFAPJ@CImageList?$AA@ 0047c4a4     nafxcw:winctrl2.obj
 0002:0000a4b0       ??_C@_09LGPKGIAP@CListCtrl?$AA@ 0047c4b0     nafxcw:winctrl2.obj
 0002:0000a4bc       ??_C@_0M@HNHMBCOH@CHeaderCtrl?$AA@ 0047c4bc     nafxcw:winctrl2.obj
 0002:0000a4cc       ?classCHeaderCtrl@CHeaderCtrl@@2UCRuntimeClass@@B 0047c4cc     nafxcw:winctrl2.obj
 0002:0000a4e8       ?classCListCtrl@CListCtrl@@2UCRuntimeClass@@B 0047c4e8     nafxcw:winctrl2.obj
 0002:0000a504       ?classCImageList@CImageList@@2UCRuntimeClass@@B 0047c504     nafxcw:winctrl2.obj
 0002:0000a520       ??_C@_0BA@EHLJJKFN@ToolbarWindow32?$AA@ 0047c520     nafxcw:winctrl2.obj
 0002:0000a530       ??_C@_0M@EPICHJMO@SysHeader32?$AA@ 0047c530     nafxcw:winctrl2.obj
 0002:0000a540       ??_7CImageList@@6B@        0047c540     nafxcw:winctrl2.obj
 0002:0000a54c       ??_C@_0BB@LDBGBJOF@ImageList_Create?$AA@ 0047c54c     nafxcw:winctrl2.obj
 0002:0000a560       ??_C@_0BC@NDOBEKHG@ImageList_Destroy?$AA@ 0047c560     nafxcw:winctrl2.obj
 0002:0000a5ac       ??_C@_0DH@HLHOPBOP@f?3?2dd?2vctools?2vc7libs?2ship?2atlmf@ 0047c5ac     nafxcw:winctrl2.obj
 0002:0000a5e4       ??_C@_0N@DHHFBONE@CToolTipCtrl?$AA@ 0047c5e4     nafxcw:tooltip.obj
 0002:0000a5f4       ?classCToolTipCtrl@CToolTipCtrl@@2UCRuntimeClass@@B 0047c5f4     nafxcw:tooltip.obj
 0002:0000a614       ??_7CToolTipCtrl@@6B@      0047c614     nafxcw:tooltip.obj
 0002:0000a754       ??_C@_0BB@HKOHPAJO@tooltips_class32?$AA@ 0047c754     nafxcw:tooltip.obj
 0002:0000a7e8       ??_C@_0O@PDOPEPKN@ReBarWindow32?$AA@ 0047c7e8     nafxcw:winctrl6.obj
 0002:0000a7f8       ??_C@_0M@NBKOBECK@CFileDialog?$AA@ 0047c7f8     nafxcw:dlgfile.obj
 0002:0000a804       ?classCFileDialog@CFileDialog@@2UCRuntimeClass@@B 0047c804     nafxcw:dlgfile.obj
 0002:0000a820       ??_C@_0BB@FJOKJKBI@GetOpenFileNameA?$AA@ 0047c820     nafxcw:dlgfile.obj
 0002:0000a834       ??_C@_0BB@CEJLPAEO@GetSaveFileNameA?$AA@ 0047c834     nafxcw:dlgfile.obj
 0002:0000a84c       ??_7CFileDialog@@6B@       0047c84c     nafxcw:dlgfile.obj
 0002:0000a9c4       ??_C@_09GOOAJDED@CHtmlView?$AA@ 0047c9c4     nafxcw:viewhtml.obj
 0002:0000a9d0       ?_interfaceEntries@CHtmlControlSite@@0QBUAFX_INTERFACEMAP_ENTRY@@B 0047c9d0     nafxcw:viewhtml.obj
 0002:0000a9e0       ?_eventsinkEntries@CHtmlView@@0QBUAFX_EVENTSINKMAP_ENTRY@@B 0047c9e0     nafxcw:viewhtml.obj
 0002:0000ad00       ??_C@_01FNNCDEML@?$AL?$AA@ 0047cd00     nafxcw:viewhtml.obj
 0002:0000ad04       ??_C@_05EPPOLPDD@?7LLLK?$AA@ 0047cd04     nafxcw:viewhtml.obj
 0002:0000ad0c       ??_C@_02GMHIAGGM@IK?$AA@   0047cd0c     nafxcw:viewhtml.obj
 0002:0000ad10       ??_C@_07FIGPFOAA@?7LLLLLK?$AA@ 0047cd10     nafxcw:viewhtml.obj
 0002:0000ad18       ??_C@_02FDKDBNGL@?7L?$AA@  0047cd18     nafxcw:viewhtml.obj
 0002:0000ad1c       ??_C@_02OBAMEBHP@?$AD?$AL?$AA@ 0047cd1c     nafxcw:viewhtml.obj
 0002:0000ad20       ??_C@_02CJNFMLHH@?$AD?$AD?$AA@ 0047cd20     nafxcw:viewhtml.obj
 0002:0000ad24       ??_C@_01CAKFMAIO@?$AO?$AA@ 0047cd24     nafxcw:viewhtml.obj
 0002:0000ad28       ?eventsinkMap@CHtmlView@@1UAFX_EVENTSINKMAP@@B 0047cd28     nafxcw:viewhtml.obj
 0002:0000ad34       ?interfaceMap@CHtmlControlSite@@1UAFX_INTERFACEMAP@@B 0047cd34     nafxcw:viewhtml.obj
 0002:0000ad3c       ?classCHtmlView@CHtmlView@@2UCRuntimeClass@@B 0047cd3c     nafxcw:viewhtml.obj
 0002:0000ad5c       ??_7CHtmlControlSite@@6B@  0047cd5c     nafxcw:viewhtml.obj
 0002:0000ae2c       __GUID_332c4425_26cb_11d0_b483_00c04fd90119 0047ce2c     nafxcw:viewhtml.obj
 0002:0000ae44       ??_7CHtmlView@@6B@         0047ce44     nafxcw:viewhtml.obj
 0002:0000b06c       ??_7XDocHostUIHandler@CHtmlControlSite@@6B@ 0047d06c     nafxcw:viewhtml.obj
 0002:0000b0b4       __GUID_b722bccb_4e68_101b_a2bc_00aa00404770 0047d0b4     nafxcw:viewhtml.obj
 0002:0000b0c4       __GUID_00000117_0000_0000_c000_000000000046 0047d0c4     nafxcw:viewhtml.obj
 0002:0000b1e8       ??_C@_0N@IAAEHEJA@CSplitterWnd?$AA@ 0047d1e8     nafxcw:viewcore.obj
 0002:0000b1f8       ?classCSplitterWnd@CSplitterWnd@@2UCRuntimeClass@@B 0047d1f8     nafxcw:viewcore.obj
 0002:0000b340       ??_C@_0DH@KCPJFKCC@f?3?2dd?2vctools?2vc7libs?2ship?2atlmf@ 0047d340     nafxcw:viewcore.obj
 0002:0000b378       ??_C@_0M@CDPKIMCK@CScrollView?$AA@ 0047d378     nafxcw:viewscrl.obj
 0002:0000b384       ?sizeDefault@CScrollView@@2UtagSIZE@@B 0047d384     nafxcw:viewscrl.obj
 0002:0000b38c       ?classCScrollView@CScrollView@@2UCRuntimeClass@@B 0047d38c     nafxcw:viewscrl.obj
 0002:0000b3a8       ??_C@_06PIBNFFGP@MouseZ?$AA@ 0047d3a8     nafxcw:viewscrl.obj
 0002:0000b3b0       ??_C@_0BB@FOOCKEH@Magellan?5MSWHEEL?$AA@ 0047d3b0     nafxcw:viewscrl.obj
 0002:0000b3c4       ??_C@_0BF@DMMDPNAL@MSH_SCROLL_LINES_MSG?$AA@ 0047d3c4     nafxcw:viewscrl.obj
 0002:0000b3e4       ??_7_AFX_MOUSEANCHORWND@@6B@ 0047d3e4     nafxcw:viewscrl.obj
 0002:0000b51c       ??_7CScrollView@@6B@       0047d51c     nafxcw:viewscrl.obj
 0002:0000b6a4       ??_C@_0BF@MKEAJGJE@MSH_WHEELSUPPORT_MSG?$AA@ 0047d6a4     nafxcw:viewscrl.obj
 0002:0000b6bc       ??_C@_0BA@NAALPGKC@MSWHEEL_ROLLMSG?$AA@ 0047d6bc     nafxcw:viewscrl.obj
 0002:0000b7b8       ??_C@_09NNDJFKCO@CFormView?$AA@ 0047d7b8     nafxcw:viewform.obj
 0002:0000b7c4       ?classCFormView@CFormView@@2UCRuntimeClass@@B 0047d7c4     nafxcw:viewform.obj
 0002:0000b84c       ??_7CFormView@@6B@         0047d84c     nafxcw:viewform.obj
 0002:0000b9d4       ??_C@_0DH@EDNJNAA@f?3?2dd?2vctools?2vc7libs?2ship?2atlmf@ 0047d9d4     nafxcw:viewform.obj
 0002:0000ba10       ??_7CFixedStringMgr@ATL@@6B@ 0047da10     nafxcw:olevar.obj
 0002:0000ba2c       ??_7?$CFixedStringT@V?$CStringT@_WV?$StrTraitMFC@_WV?$ChTraitsCRT@_W@ATL@@@@@ATL@@$0BAA@@ATL@@6B@ 0047da2c     nafxcw:olevar.obj
 0002:0000ba44       ??_C@_0N@ENBGCOPE@CStringArray?$AA@ 0047da44     nafxcw:array_s.obj
 0002:0000ba58       ??_7CStringArray@@6B@      0047da58     nafxcw:array_s.obj
 0002:0000ba64       ??_C@_0DG@PHKIGIAM@f?3?2dd?2vctools?2vc7libs?2ship?2atlmf@ 0047da64     nafxcw:array_s.obj
 0002:0000baf0       ??_C@_0BE@IEIONKOG@commdlg_SetRGBColor?$AA@ 0047daf0     nafxcw:dlgcomm.obj
 0002:0000bb04       ??_C@_0N@FIGHHFHB@commdlg_help?$AA@ 0047db04     nafxcw:dlgcomm.obj
 0002:0000bb14       ??_C@_0BA@JPAMGOEO@commdlg_ColorOK?$AA@ 0047db14     nafxcw:dlgcomm.obj
 0002:0000bb24       ??_C@_0BD@BNBCEAFM@commdlg_FileNameOK?$AA@ 0047db24     nafxcw:dlgcomm.obj
 0002:0000bb38       ??_C@_0BH@HGKAGIJK@commdlg_ShareViolation?$AA@ 0047db38     nafxcw:dlgcomm.obj
 0002:0000bb50       ??_C@_0BL@OFBDHBNO@commdlg_LBSelChangedNotify?$AA@ 0047db50     nafxcw:dlgcomm.obj
 0002:0000bb6c       ??_C@_09HJIPFFON@CPtrArray?$AA@ 0047db6c     nafxcw:array_p.obj
 0002:0000bb78       ?classCPtrArray@CPtrArray@@2UCRuntimeClass@@B 0047db78     nafxcw:array_p.obj
 0002:0000bb98       ??_7CPtrArray@@6B@         0047db98     nafxcw:array_p.obj
 0002:0000bba4       ??_C@_02DPKJAMEF@?$CFd?$AA@ 0047dba4     nafxcw:dlgdata.obj
 0002:0000bba8       ??_C@_07BEAIOPAP@CObject?$AA@ 0047dba8     nafxcw:objcore.obj
 0002:0000bbb0       ??_C@_06JBKGCNBB@Delete?$AA@ 0047dbb0     nafxcw:objcore.obj
 0002:0000bbb8       ??_C@_08KAAPDIAN@NoRemove?$AA@ 0047dbb8     nafxcw:objcore.obj
 0002:0000bbc4       ??_C@_0M@DBGDLGLL@ForceRemove?$AA@ 0047dbc4     nafxcw:objcore.obj
 0002:0000bbd0       ??_C@_03LAIAPFCB@Val?$AA@  0047dbd0     nafxcw:objcore.obj
 0002:0000bbd4       ??_C@_01HMGJMAIH@B?$AA@    0047dbd4     nafxcw:objcore.obj
 0002:0000bbd8       ??_C@_01CKDDGHAB@D?$AA@    0047dbd8     nafxcw:objcore.obj
 0002:0000bbdc       ??_C@_01PLPBNMEI@M?$AA@    0047dbdc     nafxcw:objcore.obj
 0002:0000bbe0       ??_C@_01CPLAODJH@S?$AA@    0047dbe0     nafxcw:objcore.obj
 0002:0000bc04       ?classCObject@CObject@@2UCRuntimeClass@@B 0047dc04     nafxcw:objcore.obj
 0002:0000bc20       ??_C@_0BP@DHAEBKIO@MFCM80ReleaseManagedReferences?$AA@ 0047dc20     nafxcw:oleunk.obj
 0002:0000bc40       ??_C@_0L@CAAHOCFG@mfcm80?4dll?$AA@ 0047dc40     nafxcw:oleunk.obj
 0002:0000bc4c       ??_C@_0DG@KPNMEMGB@f?3?2dd?2vctools?2vc7libs?2ship?2atlmf@ 0047dc4c     nafxcw:auxdata.obj
 0002:0000bc88       ??_7CThreadData@@6B@       0047dc88     nafxcw:afxtls.obj
 0002:0000bc8c       ??_C@_08CGFBBPDL@software?$AA@ 0047dc8c     nafxcw:appui3.obj
 0002:0000bc98       ??_C@_08PEKOMHKE@combobox?$AA@ 0047dc98     nafxcw:winutil.obj
 0002:0000bca8       ??_7CHandleMap@@6B@        0047dca8     nafxcw:winhand.obj
 0002:0000bcac       ??_C@_06JIODDOFH@System?$AA@ 0047dcac     nafxcw:dlgtempl.obj
 0002:0000bcb4       ??_C@_0BC@IIDFIFGA@CArchiveException?$AA@ 0047dcb4     nafxcw:arcex.obj
 0002:0000bcc8       ?classCArchiveException@CArchiveException@@2UCRuntimeClass@@B 0047dcc8     nafxcw:arcex.obj
 0002:0000bce8       ??_7CArchiveException@@6B@ 0047dce8     nafxcw:arcex.obj
 0002:0000bd00       ?_interfaceEntries@CEnumUnknown@@0QBUAFX_INTERFACEMAP_ENTRY@@B 0047dd00     nafxcw:occcont.obj
 0002:0000bd10       ?_dispatchEntries@COleControlContainer@@0QBUAFX_DISPMAP_ENTRY@@B 0047dd10     nafxcw:occcont.obj
 0002:0000bd30       ?_interfaceEntries@COleControlContainer@@0QBUAFX_INTERFACEMAP_ENTRY@@B 0047dd30     nafxcw:occcont.obj
 0002:0000bd48       ?interfaceMap@COleControlContainer@@1UAFX_INTERFACEMAP@@B 0047dd48     nafxcw:occcont.obj
 0002:0000bd50       ?dispatchMap@COleControlContainer@@1UAFX_DISPMAP@@B 0047dd50     nafxcw:occcont.obj
 0002:0000bd60       ?interfaceMap@CEnumUnknown@@1UAFX_INTERFACEMAP@@B 0047dd60     nafxcw:occcont.obj
 0002:0000bd6c       ??_7CEnumUnknown@@6B@      0047dd6c     nafxcw:occcont.obj
 0002:0000bdd0       ??_7?$_CTypedPtrList@VCPtrList@@PAUCOleControlSiteOrWnd@@@@6B@ 0047ddd0     nafxcw:occcont.obj
 0002:0000bde0       ??_7?$CTypedPtrList@VCPtrList@@PAUCOleControlSiteOrWnd@@@@6B@ 0047dde0     nafxcw:occcont.obj
 0002:0000bdf4       ??_7COleControlContainer@@6B@ 0047ddf4     nafxcw:occcont.obj
 0002:0000be9c       ??_7XOleContainer@COleControlContainer@@6B@ 0047de9c     nafxcw:occcont.obj
 0002:0000bebc       ??_7XOleIPFrame@COleControlContainer@@6B@ 0047debc     nafxcw:occcont.obj
 0002:0000bef8       ?_interfaceEntries@COleControlSite@@0QBUAFX_INTERFACEMAP_ENTRY@@B 0047def8     nafxcw:occsite.obj
 0002:0000bf48       _IID_IDataSource           0047df48     nafxcw:occsite.obj
 0002:0000bf58       ?interfaceMap@COleControlSite@@1UAFX_INTERFACEMAP@@B 0047df58     nafxcw:occsite.obj
 0002:0000bf60       ?_afxAmbients@@3QBU<unnamed-tag>@@B 0047df60     nafxcw:occsite.obj
 0002:0000bfb4       ??_7CDataSourceControl@@6B@ 0047dfb4     nafxcw:occsite.obj
 0002:0000bfcc       __GUID_0c733a11_2a1c_11ce_ade5_00aa0044773d 0047dfcc     nafxcw:occsite.obj
 0002:0000bfdc       __GUID_0c733a55_2a1c_11ce_ade5_00aa0044773d 0047dfdc     nafxcw:occsite.obj
 0002:0000bfec       __GUID_0c733a8c_2a1c_11ce_ade5_00aa0044773d 0047dfec     nafxcw:occsite.obj
 0002:0000bffc       __GUID_0c733a05_2a1c_11ce_ade5_00aa0044773d 0047dffc     nafxcw:occsite.obj
 0002:0000c010       ??_7XOleClientSite@COleControlSite@@6B@ 0047e010     nafxcw:occsite.obj
 0002:0000c038       ??_7XOleControlSite@COleControlSite@@6B@ 0047e038     nafxcw:occsite.obj
 0002:0000c064       ??_7XAmbientProps@COleControlSite@@6B@ 0047e064     nafxcw:occsite.obj
 0002:0000c084       ??_7XPropertyNotifySink@COleControlSite@@6B@ 0047e084     nafxcw:occsite.obj
 0002:0000c09c       ??_7XEventSink@COleControlSite@@6B@ 0047e09c     nafxcw:occsite.obj
 0002:0000c0bc       ??_7XBoundObjectSite@COleControlSite@@6B@ 0047e0bc     nafxcw:occsite.obj
 0002:0000c0d0       ??_7XNotifyDBEvents@COleControlSite@@6B@ 0047e0d0     nafxcw:occsite.obj
 0002:0000c0fc       ??_7XRowsetNotify@COleControlSite@@6B@ 0047e0fc     nafxcw:occsite.obj
 0002:0000c114       __GUID_0c733a93_2a1c_11ce_ade5_00aa0044773d 0047e114     nafxcw:occsite.obj
 0002:0000c124       __GUID_00000000_0000_0000_c000_000000000046 0047e124     nafxcw:occsite.obj
 0002:0000c134       __GUID_0000000c_0000_0000_c000_000000000046 0047e134     nafxcw:occsite.obj
 0002:0000c144       __GUID_0c733a30_2a1c_11ce_ade5_00aa0044773d 0047e144     nafxcw:occsite.obj
 0002:0000c15c       ??_7XOleIPSite@COleControlSite@@6B@ 0047e15c     nafxcw:occsite.obj
 0002:0000c1dc       ??_7COleControlSite@@6B@   0047e1dc     nafxcw:occsite.obj
 0002:0000c2b0       __real@4024000000000000    0047e2b0     nafxcw:occsite.obj
 0002:0000c2b8       ??_C@_08OJEPMEKP@CMemFile?$AA@ 0047e2b8     nafxcw:filemem.obj
 0002:0000c2c4       ?classCMemFile@CMemFile@@2UCRuntimeClass@@B 0047e2c4     nafxcw:filemem.obj
 0002:0000c2e4       ??_7CMemFile@@6B@          0047e2e4     nafxcw:filemem.obj
 0002:0000c34c       ??_C@_05HLGLNGMO@CMenu?$AA@ 0047e34c     nafxcw:winmenu.obj
 0002:0000c354       ?classCMenu@CMenu@@2UCRuntimeClass@@B 0047e354     nafxcw:winmenu.obj
 0002:0000c374       ??_7CMenu@@6B@             0047e374     nafxcw:winmenu.obj
 0002:0000c38c       ??_7CChevronOwnerDrawMenu@@6B@ 0047e38c     nafxcw:winmenu.obj
 0002:0000c3a0       ??_C@_0N@BBCNFPFP@CMapPtrToPtr?$AA@ 0047e3a0     nafxcw:map_pp.obj
 0002:0000c3b0       ?classCMapPtrToPtr@CMapPtrToPtr@@2UCRuntimeClass@@B 0047e3b0     nafxcw:map_pp.obj
 0002:0000c3d0       ??_7CMapPtrToPtr@@6B@      0047e3d0     nafxcw:map_pp.obj
 0002:0000c3dc       ??_C@_0P@ICMFMKFO@CFileException?$AA@ 0047e3dc     nafxcw:filex.obj
 0002:0000c3ec       ?classCFileException@CFileException@@2UCRuntimeClass@@B 0047e3ec     nafxcw:filex.obj
 0002:0000c408       ??_C@_04PKIPNKLG@?4INI?$AA@ 0047e408     nafxcw:appinit.obj
 0002:0000c410       ??_C@_04NKLHMAKF@?4HLP?$AA@ 0047e410     nafxcw:appinit.obj
 0002:0000c418       ??_C@_04PFNDIDGE@?4CHM?$AA@ 0047e418     nafxcw:appinit.obj
 0002:0000c420       ??_C@_0P@IGJNGFKD@NotifyWinEvent?$AA@ 0047e420     nafxcw:appinit.obj
 0002:0000c430       ??_C@_0L@GMPLCCII@user32?4dll?$AA@ 0047e430     nafxcw:appinit.obj
 0002:0000c43c       ??_C@_08DDMLBIJN@CPtrList?$AA@ 0047e43c     nafxcw:list_p.obj
 0002:0000c448       ?classCPtrList@CPtrList@@2UCRuntimeClass@@B 0047e448     nafxcw:list_p.obj
 0002:0000c468       ??_7CPtrList@@6B@          0047e468     nafxcw:list_p.obj
 0002:0000c474       ??_C@_01EEMJAFIK@?6?$AA@   0047e474     nafxcw:appterm.obj
 0002:0000c47c       ??_7CArchiveStream@@6B@    0047e47c     nafxcw:arcstrm.obj
 0002:0000c4b4       ??_C@_0BA@MLCJIBK@CMapStringToPtr?$AA@ 0047e4b4     nafxcw:map_sp.obj
 0002:0000c4c4       ?classCMapStringToPtr@CMapStringToPtr@@2UCRuntimeClass@@B 0047e4c4     nafxcw:map_sp.obj
 0002:0000c4e4       ??_7CMapStringToPtr@@6B@   0047e4e4     nafxcw:map_sp.obj
 0002:0000c4f0       ??_C@_0M@KLLMHFML@CControlBar?$AA@ 0047e4f0     nafxcw:winfrm.obj
 0002:0000c4fc       ??_C@_05BIOOECIG@CView?$AA@ 0047e4fc     nafxcw:winfrm.obj
 0002:0000c504       ??_C@_09PHHOBLDA@CFrameWnd?$AA@ 0047e504     nafxcw:winfrm.obj
 0002:0000c510       ?classCFrameWnd@CFrameWnd@@2UCRuntimeClass@@B 0047e510     nafxcw:winfrm.obj
 0002:0000c52c       ?classCView@CView@@2UCRuntimeClass@@B 0047e52c     nafxcw:winfrm.obj
 0002:0000c548       ?classCControlBar@CControlBar@@2UCRuntimeClass@@B 0047e548     nafxcw:winfrm.obj
 0002:0000c568       ??_7?$CTypedPtrArray@VCObArray@@PAVCBitmap@@@@6B@ 0047e568     nafxcw:winfrm.obj
 0002:0000c578       ??_7?$CArray@PAUHWND__@@PAU1@@@6B@ 0047e578     nafxcw:winfrm.obj
 0002:0000c588       ??_7?$CList@PAUHWND__@@PAU1@@@6B@ 0047e588     nafxcw:winfrm.obj
 0002:0000c594       ??_C@_0BH@KAPMGNKC@ImageList_GetImageInfo?$AA@ 0047e594     nafxcw:winfrm.obj
 0002:0000c5b4       ??_7CFrameWnd@@6B@         0047e5b4     nafxcw:winfrm.obj
 0002:0000c728       ??_C@_0DF@LPCOIIKM@f?3?2dd?2vctools?2vc7libs?2ship?2atlmf@ 0047e728     nafxcw:winfrm.obj
 0002:0000cbe8       ??_C@_03NLJIHOMM@?5?9?5?$AA@ 0047ebe8     nafxcw:winfrm.obj
 0002:0000cbec       ??_C@_03HODKBCIO@?3?$CFd?$AA@ 0047ebec     nafxcw:winfrm.obj
 0002:0000cbf0       ??_C@_0L@NNMBAOBP@CByteArray?$AA@ 0047ebf0     nafxcw:array_b.obj
 0002:0000cc00       ??_7CByteArray@@6B@        0047ec00     nafxcw:array_b.obj
 0002:0000cc10       ??_7?$CArray@W4LoadArrayObjType@CArchive@@ABW412@@@6B@ 0047ec10     nafxcw:arcobj.obj
 0002:0000cc1c       ??_C@_0BG@HFEJJAEN@COleDispatchException?$AA@ 0047ec1c     nafxcw:oledisp1.obj
 0002:0000cc38       ?_afxByValue@@3QBIB        0047ec38     nafxcw:oledisp1.obj
 0002:0000cc90       ?_afxByRef@@3QBIB          0047ec90     nafxcw:oledisp1.obj
 0002:0000cce8       ?_afxRetVal@@3QBIB         0047ece8     nafxcw:oledisp1.obj
 0002:0000cd40       ?classCOleDispatchException@COleDispatchException@@2UCRuntimeClass@@B 0047ed40     nafxcw:oledisp1.obj
 0002:0000cd60       ??_7?$CArray@VCVariantBoolPair@@ABV1@@@6B@ 0047ed60     nafxcw:oledisp1.obj
 0002:0000cd70       ??_7COleDispatchException@@6B@ 0047ed70     nafxcw:oledisp1.obj
 0002:0000cd8c       ??_7CEnumArray@@6B@        0047ed8c     nafxcw:oleenum.obj
 0002:0000cdf0       ??_7XEnumVOID@CEnumArray@@6B@ 0047edf0     nafxcw:oleenum.obj
 0002:0000ce0c       ??_C@_0BK@LHAIBAOL@RichEdit?5Text?5and?5Objects?$AA@ 0047ee0c     nafxcw:oleinit.obj
 0002:0000ce28       ??_C@_0BB@CKIAAGJH@Rich?5Text?5Format?$AA@ 0047ee28     nafxcw:oleinit.obj
 0002:0000ce3c       ??_C@_09MCHBNJEA@FileNameW?$AA@ 0047ee3c     nafxcw:oleinit.obj
 0002:0000ce48       ??_C@_08FDCJCDOL@FileName?$AA@ 0047ee48     nafxcw:oleinit.obj
 0002:0000ce54       ??_C@_0BH@FLBAAEK@Link?5Source?5Descriptor?$AA@ 0047ee54     nafxcw:oleinit.obj
 0002:0000ce6c       ??_C@_0BC@IMFAKKEE@Object?5Descriptor?$AA@ 0047ee6c     nafxcw:oleinit.obj
 0002:0000ce80       ??_C@_0M@DLDEIBCG@Link?5Source?$AA@ 0047ee80     nafxcw:oleinit.obj
 0002:0000ce8c       ??_C@_0N@GINLAHIG@Embed?5Source?$AA@ 0047ee8c     nafxcw:oleinit.obj
 0002:0000ce9c       ??_C@_0BA@KKJFEPPA@Embedded?5Object?$AA@ 0047ee9c     nafxcw:oleinit.obj
 0002:0000ceac       ??_C@_0L@GABMJCLK@ObjectLink?$AA@ 0047eeac     nafxcw:oleinit.obj
 0002:0000ceb8       ??_C@_09KCGOEBDO@OwnerLink?$AA@ 0047eeb8     nafxcw:oleinit.obj
 0002:0000cec4       ??_C@_06LHIFIHNM@Native?$AA@ 0047eec4     nafxcw:oleinit.obj
 0002:0000cecc       ??_C@_08CDLFDIMH@CObArray?$AA@ 0047eecc     nafxcw:array_o.obj
 0002:0000cedc       ??_7CObArray@@6B@          0047eedc     nafxcw:array_o.obj
 0002:0000cee8       ??_C@_08CLEDDFPF@CDockBar?$AA@ 0047eee8     nafxcw:bardock.obj
 0002:0000cef4       ?classCDockBar@CDockBar@@2UCRuntimeClass@@B 0047eef4     nafxcw:bardock.obj
 0002:0000cf10       ??_C@_08JCBKBILF@CToolBar?$AA@ 0047ef10     nafxcw:bartool.obj
 0002:0000cf1c       ?classCToolBar@CToolBar@@2UCRuntimeClass@@B 0047ef1c     nafxcw:bartool.obj
 0002:0000cf38       ??_C@_06GCOFDEHB@CReBar?$AA@ 0047ef38     nafxcw:barcool.obj
 0002:0000cf40       ?classCReBar@CReBar@@2UCRuntimeClass@@B 0047ef40     nafxcw:barcool.obj
 0002:0000cf5c       ?_interfaceEntries@COleMessageFilter@@0QBUAFX_INTERFACEMAP_ENTRY@@B 0047ef5c     nafxcw:olemsgf.obj
 0002:0000cf6c       ?_afxSignificantMsgs@@3QBIB 0047ef6c     nafxcw:olemsgf.obj
 0002:0000cfa8       ?interfaceMap@COleMessageFilter@@1UAFX_INTERFACEMAP@@B 0047efa8     nafxcw:olemsgf.obj
 0002:0000cfb4       ??_7COleMessageFilter@@6B@ 0047efb4     nafxcw:olemsgf.obj
 0002:0000d020       ??_7XMessageFilter@COleMessageFilter@@6B@ 0047f020     nafxcw:olemsgf.obj
 0002:0000d3cc       ??_7_AFX_OLE_STATE@@6B@    0047f3cc     nafxcw:oledata.obj
 0002:0000d3d0       ??_C@_0P@HGACFDM@COleBusyDialog?$AA@ 0047f3d0     nafxcw:oledlgs2.obj
 0002:0000d3e0       ??_C@_0L@LFBFNJHM@COleDialog?$AA@ 0047f3e0     nafxcw:oledlgs2.obj
 0002:0000d3ec       ?classCOleDialog@COleDialog@@2UCRuntimeClass@@B 0047f3ec     nafxcw:oledlgs2.obj
 0002:0000d408       ?classCOleBusyDialog@COleBusyDialog@@2UCRuntimeClass@@B 0047f408     nafxcw:oledlgs2.obj
 0002:0000d42c       ??_7COleBusyDialog@@6B@    0047f42c     nafxcw:oledlgs2.obj
 0002:0000d588       ?dwDockBarMap@CFrameWnd@@1QAY01$$CBKA 0047f588     nafxcw:winfrm2.obj
 0002:0000d5a8       ??_C@_0BI@BKLFFAPO@SetThreadStackGuarantee?$AA@ 0047f5a8     libcmt:resetstk.obj
 0002:0000d5c0       ??_C@_0P@GHFPNOJB@bad?5allocation?$AA@ 0047f5c0     libcmt:typinfo.obj
 0002:0000d5d4       ??_7type_info@@6B@         0047f5d4     libcmt:typinfo.obj
 0002:0000d5fc       ??_7exception@std@@6B@     0047f5fc     libcmt:stdexcpt.obj
 0002:0000d604       ??_C@_0BC@EOODALEL@Unknown?5exception?$AA@ 0047f604     libcmt:stdexcpt.obj
 0002:0000d618       __FPinit                   0047f618     libcmt:fpinit.obj
 0002:0000d61c       __FPmtinit                 0047f61c     libcmt:fpinit.obj
 0002:0000d620       __FPmtterm                 0047f620     libcmt:fpinit.obj
 0002:0000d624       ??_C@_08JCCMCCIL@HH?3mm?3ss?$AA@ 0047f624     libcmt:strftime.obj
 0002:0000d630       ??_C@_0BE@CKGJFCPC@dddd?0?5MMMM?5dd?0?5yyyy?$AA@ 0047f630     libcmt:strftime.obj
 0002:0000d644       ??_C@_08BPBNCDIB@MM?1dd?1yy?$AA@ 0047f644     libcmt:strftime.obj
 0002:0000d650       ??_C@_02CJNFDJBF@PM?$AA@   0047f650     libcmt:strftime.obj
 0002:0000d654       ??_C@_02DEDBPAFC@AM?$AA@   0047f654     libcmt:strftime.obj
 0002:0000d658       ??_C@_08EDHMEBNP@December?$AA@ 0047f658     libcmt:strftime.obj
 0002:0000d664       ??_C@_08HCHEGEOA@November?$AA@ 0047f664     libcmt:strftime.obj
 0002:0000d670       ??_C@_07JJNFCEND@October?$AA@ 0047f670     libcmt:strftime.obj
 0002:0000d678       ??_C@_09BHHEALKD@September?$AA@ 0047f678     libcmt:strftime.obj
 0002:0000d684       ??_C@_06LBBHFDDG@August?$AA@ 0047f684     libcmt:strftime.obj
 0002:0000d68c       ??_C@_04MIEPOIFP@July?$AA@ 0047f68c     libcmt:strftime.obj
 0002:0000d694       ??_C@_04CNLMGBGM@June?$AA@ 0047f694     libcmt:strftime.obj
 0002:0000d69c       ??_C@_05DMJDNLEJ@April?$AA@ 0047f69c     libcmt:strftime.obj
 0002:0000d6a4       ??_C@_05HPCKOFNC@March?$AA@ 0047f6a4     libcmt:strftime.obj
 0002:0000d6ac       ??_C@_08GNJGEPFN@February?$AA@ 0047f6ac     libcmt:strftime.obj
 0002:0000d6b8       ??_C@_07CGJPFGJA@January?$AA@ 0047f6b8     libcmt:strftime.obj
 0002:0000d6c0       ??_C@_03MKABNOCG@Dec?$AA@  0047f6c0     libcmt:strftime.obj
 0002:0000d6c4       ??_C@_03JPJOFNIA@Nov?$AA@  0047f6c4     libcmt:strftime.obj
 0002:0000d6c8       ??_C@_03BMAOKBAD@Oct?$AA@  0047f6c8     libcmt:strftime.obj
 0002:0000d6cc       ??_C@_03GGCAPAJC@Sep?$AA@  0047f6cc     libcmt:strftime.obj
 0002:0000d6d0       ??_C@_03IFJFEIGA@Aug?$AA@  0047f6d0     libcmt:strftime.obj
 0002:0000d6d4       ??_C@_03LBGABGKK@Jul?$AA@  0047f6d4     libcmt:strftime.obj
 0002:0000d6d8       ??_C@_03IDFGHECI@Jun?$AA@  0047f6d8     libcmt:strftime.obj
 0002:0000d6dc       ??_C@_03CNMDKL@May?$AA@    0047f6dc     libcmt:strftime.obj
 0002:0000d6e0       ??_C@_03LEOLGMJP@Apr?$AA@  0047f6e0     libcmt:strftime.obj
 0002:0000d6e4       ??_C@_03ODNJBKGA@Mar?$AA@  0047f6e4     libcmt:strftime.obj
 0002:0000d6e8       ??_C@_03HJBDCHOM@Feb?$AA@  0047f6e8     libcmt:strftime.obj
 0002:0000d6ec       ??_C@_03JIHJHPIE@Jan?$AA@  0047f6ec     libcmt:strftime.obj
 0002:0000d6f0       ??_C@_08INBOOONO@Saturday?$AA@ 0047f6f0     libcmt:strftime.obj
 0002:0000d6fc       ??_C@_06JECMNKMI@Friday?$AA@ 0047f6fc     libcmt:strftime.obj
 0002:0000d704       ??_C@_08HACCIKIA@Thursday?$AA@ 0047f704     libcmt:strftime.obj
 0002:0000d710       ??_C@_09DLIGFAKA@Wednesday?$AA@ 0047f710     libcmt:strftime.obj
 0002:0000d71c       ??_C@_07BAAGCFCM@Tuesday?$AA@ 0047f71c     libcmt:strftime.obj
 0002:0000d724       ??_C@_06JLEDEDGH@Monday?$AA@ 0047f724     libcmt:strftime.obj
 0002:0000d72c       ??_C@_06OOPIFAJ@Sunday?$AA@ 0047f72c     libcmt:strftime.obj
 0002:0000d734       ??_C@_03FEFJNEK@Sat?$AA@   0047f734     libcmt:strftime.obj
 0002:0000d738       ??_C@_03IDIOELNC@Fri?$AA@  0047f738     libcmt:strftime.obj
 0002:0000d73c       ??_C@_03IOFIKPDN@Thu?$AA@  0047f73c     libcmt:strftime.obj
 0002:0000d740       ??_C@_03MHOMLAJA@Wed?$AA@  0047f740     libcmt:strftime.obj
 0002:0000d744       ??_C@_03NAGEINEP@Tue?$AA@  0047f744     libcmt:strftime.obj
 0002:0000d748       ??_C@_03PDAGKDH@Mon?$AA@   0047f748     libcmt:strftime.obj
 0002:0000d74c       ??_C@_03KOEHGMDN@Sun?$AA@  0047f74c     libcmt:strftime.obj
 0002:0000d750       ??_C@_03EBAPMIKO@a?1p?$AA@ 0047f750     libcmt:strftime.obj
 0002:0000d754       ??_C@_05JAMEPDIN@am?1pm?$AA@ 0047f754     libcmt:strftime.obj
 0002:0000d75c       ??_C@_0P@MIGLKIOC@CorExitProcess?$AA@ 0047f75c     libcmt:crt0dat.obj
 0002:0000d76c       ??_C@_0M@MBOPBNBK@mscoree?4dll?$AA@ 0047f76c     libcmt:crt0dat.obj
 0002:0000d778       __pDestructExceptionObject 0047f778     libcmt:frame.obj
 0002:0000d780       ??_7bad_exception@std@@6B@ 0047f780     libcmt:frame.obj
 0002:0000d788       ??_C@_0O@DPKOEFFH@bad?5exception?$AA@ 0047f788     libcmt:frame.obj
 0002:0000d798       ??_C@_07EPKMNAGK@?4mixcrt?$AA@ 0047f798     libcmt:tidtable.obj
 0002:0000d7a0       ??_C@_0O@NLDKAIKN@EncodePointer?$AA@ 0047f7a0     libcmt:tidtable.obj
 0002:0000d7b0       ??_C@_0N@NHGLKGEC@KERNEL32?4DLL?$AA@ 0047f7b0     libcmt:tidtable.obj
 0002:0000d7c0       ??_C@_0O@KBPMFGHI@DecodePointer?$AA@ 0047f7c0     libcmt:tidtable.obj
 0002:0000d7d0       ??_C@_07PEJMOBNF@FlsFree?$AA@ 0047f7d0     libcmt:tidtable.obj
 0002:0000d7d8       ??_C@_0M@JCPCPOEF@FlsSetValue?$AA@ 0047f7d8     libcmt:tidtable.obj
 0002:0000d7e4       ??_C@_0M@GDNOONDI@FlsGetValue?$AA@ 0047f7e4     libcmt:tidtable.obj
 0002:0000d7f0       ??_C@_08KNHFBNJ@FlsAlloc?$AA@ 0047f7f0     libcmt:tidtable.obj
 0002:0000d804       ??_C@_0P@GGKDKEEG@runtime?5error?5?$AA@ 0047f804     libcmt:crt0msg.obj
 0002:0000d814       ??_C@_02PCIJFNDE@?$AN?6?$AA@ 0047f814     libcmt:crt0msg.obj
 0002:0000d818       ??_C@_0O@MJNIPGOH@TLOSS?5error?$AN?6?$AA@ 0047f818     libcmt:crt0msg.obj
 0002:0000d828       ??_C@_0N@BONNPDHF@SING?5error?$AN?6?$AA@ 0047f828     libcmt:crt0msg.obj
 0002:0000d838       ??_C@_0P@MBDAJNE@DOMAIN?5error?$AN?6?$AA@ 0047f838     libcmt:crt0msg.obj
 0002:0000d848       ??_C@_0JL@DFDOOABL@R6034?$AN?6An?5application?5has?5made?5a@ 0047f848     libcmt:crt0msg.obj
 0002:0000d8e8       ??_C@_0PH@EPAFIJ@R6033?$AN?6?9?5Attempt?5to?5use?5MSIL?5cod@ 0047f8e8     libcmt:crt0msg.obj
 0002:0000d9e0       ??_C@_0DD@BKEEABMM@R6032?$AN?6?9?5not?5enough?5space?5for?5lo@ 0047f9e0     libcmt:crt0msg.obj
 0002:0000da18       ??_C@_0GD@OFKILIED@R6031?$AN?6?9?5Attempt?5to?5initialize?5t@ 0047fa18     libcmt:crt0msg.obj
 0002:0000da7c       ??_C@_0BP@LPMHJOKI@R6030?$AN?6?9?5CRT?5not?5initialized?$AN?6?$AA@ 0047fa7c     libcmt:crt0msg.obj
 0002:0000da9c       ??_C@_0CF@KJDAIALP@R6028?$AN?6?9?5unable?5to?5initialize?5he@ 0047fa9c     libcmt:crt0msg.obj
 0002:0000dac4       ??_C@_0DF@GAKBPDFP@R6027?$AN?6?9?5not?5enough?5space?5for?5lo@ 0047fac4     libcmt:crt0msg.obj
 0002:0000dafc       ??_C@_0DF@IBLNNAIG@R6026?$AN?6?9?5not?5enough?5space?5for?5st@ 0047fafc     libcmt:crt0msg.obj
 0002:0000db34       ??_C@_0CG@IOHKGFNJ@R6025?$AN?6?9?5pure?5virtual?5function?5c@ 0047fb34     libcmt:crt0msg.obj
 0002:0000db5c       ??_C@_0DF@JIJJFJDC@R6024?$AN?6?9?5not?5enough?5space?5for?5_o@ 0047fb5c     libcmt:crt0msg.obj
 0002:0000db94       ??_C@_0CJ@EGEJHFME@R6019?$AN?6?9?5unable?5to?5open?5console?5@ 0047fb94     libcmt:crt0msg.obj
 0002:0000dbc0       ??_C@_0CB@GNHNIELH@R6018?$AN?6?9?5unexpected?5heap?5error?$AN?6@ 0047fbc0     libcmt:crt0msg.obj
 0002:0000dbe4       ??_C@_0CN@FOLDKNG@R6017?$AN?6?9?5unexpected?5multithread?5@ 0047fbe4     libcmt:crt0msg.obj
 0002:0000dc14       ??_C@_0CM@FAHFJNHO@R6016?$AN?6?9?5not?5enough?5space?5for?5th@ 0047fc14     libcmt:crt0msg.obj
 0002:0000dc40       ??_C@_0JG@LBKMGKLD@?$AN?6This?5application?5has?5requested@ 0047fc40     libcmt:crt0msg.obj
 0002:0000dcd8       ??_C@_0CM@FLCNIPKK@R6009?$AN?6?9?5not?5enough?5space?5for?5en@ 0047fcd8     libcmt:crt0msg.obj
 0002:0000dd04       ??_C@_0CK@KMMJOAPP@R6008?$AN?6?9?5not?5enough?5space?5for?5ar@ 0047fd04     libcmt:crt0msg.obj
 0002:0000dd30       ??_C@_0CN@LEKKICBM@R6002?$AN?6?9?5floating?5point?5support?5@ 0047fd30     libcmt:crt0msg.obj
 0002:0000dd60       ??_C@_0CF@GOGNBNAK@Microsoft?5Visual?5C?$CL?$CL?5Runtime?5Lib@ 0047fd60     libcmt:crt0msg.obj
 0002:0000dd88       ??_C@_02PHMGELLB@?6?6?$AA@ 0047fd88     libcmt:crt0msg.obj
 0002:0000dd8c       ??_C@_03KHICJKCI@?4?4?4?$AA@ 0047fd8c     libcmt:crt0msg.obj
 0002:0000dd90       ??_C@_0BH@DNAGHKFM@?$DMprogram?5name?5unknown?$DO?$AA@ 0047fd90     libcmt:crt0msg.obj
 0002:0000dda8       ??_C@_0BK@OFGJDLJJ@Runtime?5Error?$CB?6?6Program?3?5?$AA@ 0047fda8     libcmt:crt0msg.obj
 0002:0000ddc4       ??_C@_1O@CEDCILHN@?$AA?$CI?$AAn?$AAu?$AAl?$AAl?$AA?$CJ?$AA?$AA@ 0047fdc4     libcmt:output.obj
 0002:0000ddd4       ??_C@_06OJHGLDPL@?$CInull?$CJ?$AA@ 0047fdd4     libcmt:output.obj
 0002:0000dde0       ___lookuptable             0047fde0     libcmt:output.obj
 0002:0000de40       ___lookuptable_s           0047fe40     libcmt:outputs.obj
 0002:0000de9c       ??_C@_05KLBDPFGC@e?$CL000?$AA@ 0047fe9c     libcmt:cvt.obj
 0002:0000dea8       __real@4150017ec0000000    0047fea8     libcmt:testfdiv.obj
 0002:0000deb0       __real@4147ffff80000000    0047feb0     libcmt:testfdiv.obj
 0002:0000deb8       ??_C@_0BK@NHEOCAHP@IsProcessorFeaturePresent?$AA@ 0047feb8     libcmt:testfdiv.obj
 0002:0000df58       ??_C@_01NEMOKFLO@?$DN?$AA@ 0047ff58     libcmt:setlocal.obj
 0002:0000df5c       ??_C@_02CLFPBFFP@TZ?$AA@   0047ff5c     libcmt:tzset.obj
 0002:0000df60       ___dnames                  0047ff60     libcmt:timeset.obj
 0002:0000df78       ___mnames                  0047ff78     libcmt:timeset.obj
 0002:0000dfa0       ??_C@_13NOLLCAOD@?$AA?$AA?$AA?$AA@ 0047ffa0     libcmt:a_str.obj
 0002:0000dfa4       ??_C@_0CG@PKBDLMEO@InitializeCriticalSectionAndSpin@ 0047ffa4     libcmt:initcrit.obj
 0002:0000dfcc       ??_C@_0BK@CFCOFLF@?5Complete?5Object?5Locator?8?$AA@ 0047ffcc     libcmt:undname.obj
 0002:0000dfe8       ??_C@_0BN@MECKDCOJ@?5Class?5Hierarchy?5Descriptor?8?$AA@ 0047ffe8     libcmt:undname.obj
 0002:0000e008       ??_C@_0BD@LGICGFMM@?5Base?5Class?5Array?8?$AA@ 00480008     libcmt:undname.obj
 0002:0000e01c       ??_C@_0BM@LDKODKLH@?5Base?5Class?5Descriptor?5at?5?$CI?$AA@ 0048001c     libcmt:undname.obj
 0002:0000e038       ??_C@_0BC@DAFEJGAK@?5Type?5Descriptor?8?$AA@ 00480038     libcmt:undname.obj
 0002:0000e04c       ??_C@_0BM@PMGGMLDN@?$GAlocal?5static?5thread?5guard?8?$AA@ 0048004c     libcmt:undname.obj
 0002:0000e068       ??_C@_0CL@FGIJHLCE@?$GAmanaged?5vector?5copy?5constructor@ 00480068     libcmt:undname.obj
 0002:0000e094       ??_C@_0CJ@GJELGAMM@?$GAvector?5vbase?5copy?5constructor?5i@ 00480094     libcmt:undname.obj
 0002:0000e0c0       ??_C@_0CD@CGAJBKEJ@?$GAvector?5copy?5constructor?5iterato@ 004800c0     libcmt:undname.obj
 0002:0000e0e4       ??_C@_0CB@PDBIFEP@?$GAdynamic?5atexit?5destructor?5for?5?8@ 004800e4     libcmt:undname.obj
 0002:0000e108       ??_C@_0BL@CLIPGLGB@?$GAdynamic?5initializer?5for?5?8?$AA@ 00480108     libcmt:undname.obj
 0002:0000e124       ??_C@_0CM@FCBBDIGB@?$GAeh?5vector?5vbase?5copy?5constructo@ 00480124     libcmt:undname.obj
 0002:0000e150       ??_C@_0CG@HLDDJMAG@?$GAeh?5vector?5copy?5constructor?5iter@ 00480150     libcmt:undname.obj
 0002:0000e178       ??_C@_0CF@IMGKMJNO@?$GAmanaged?5vector?5destructor?5itera@ 00480178     libcmt:undname.obj
 0002:0000e1a0       ??_C@_0CG@CFDHKGGD@?$GAmanaged?5vector?5constructor?5iter@ 004801a0     libcmt:undname.obj
 0002:0000e1c8       ??_C@_0BN@CKNJLHMB@?$GAplacement?5delete?$FL?$FN?5closure?8?$AA@ 004801c8     libcmt:undname.obj
 0002:0000e1e8       ??_C@_0BL@CNOONJFP@?$GAplacement?5delete?5closure?8?$AA@ 004801e8     libcmt:undname.obj
 0002:0000e204       ??_C@_0P@HJKNJFNN@?$GAomni?5callsig?8?$AA@ 00480204     libcmt:undname.obj
 0002:0000e214       ??_C@_09LBNFPBCA@?5delete?$FL?$FN?$AA@ 00480214     libcmt:undname.obj
 0002:0000e220       ??_C@_06FHBGPFGH@?5new?$FL?$FN?$AA@ 00480220     libcmt:undname.obj
 0002:0000e228       ??_C@_0CE@IIHCMGGL@?$GAlocal?5vftable?5constructor?5closu@ 00480228     libcmt:undname.obj
 0002:0000e24c       ??_C@_0BA@KKLDJDLB@?$GAlocal?5vftable?8?$AA@ 0048024c     libcmt:undname.obj
 0002:0000e25c       ??_C@_05KHLCHHI@?$GARTTI?$AA@ 0048025c     libcmt:undname.obj
 0002:0000e264       ??_C@_03KLGMFNMG@?$GAEH?$AA@ 00480264     libcmt:undname.obj
 0002:0000e268       ??_C@_0BA@KBCDOMBN@?$GAudt?5returning?8?$AA@ 00480268     libcmt:undname.obj
 0002:0000e278       ??_C@_0BL@LLKPOHJI@?$GAcopy?5constructor?5closure?8?$AA@ 00480278     libcmt:undname.obj
 0002:0000e294       ??_C@_0CH@OOJPLCPH@?$GAeh?5vector?5vbase?5constructor?5ite@ 00480294     libcmt:undname.obj
 0002:0000e2bc       ??_C@_0CA@GCEOPDGL@?$GAeh?5vector?5destructor?5iterator?8?$AA@ 004802bc     libcmt:undname.obj
 0002:0000e2dc       ??_C@_0CB@JONCMFFK@?$GAeh?5vector?5constructor?5iterator?8@ 004802dc     libcmt:undname.obj
 0002:0000e300       ??_C@_0BL@NILFHHPC@?$GAvirtual?5displacement?5map?8?$AA@ 00480300     libcmt:undname.obj
 0002:0000e31c       ??_C@_0CE@IKBNEHA@?$GAvector?5vbase?5constructor?5iterat@ 0048031c     libcmt:undname.obj
 0002:0000e340       ??_C@_0BN@LFPFMEDL@?$GAvector?5destructor?5iterator?8?$AA@ 00480340     libcmt:undname.obj
 0002:0000e360       ??_C@_0BO@PFGOCPJJ@?$GAvector?5constructor?5iterator?8?$AA@ 00480360     libcmt:undname.obj
 0002:0000e380       ??_C@_0BN@IMDCHIKM@?$GAscalar?5deleting?5destructor?8?$AA@ 00480380     libcmt:undname.obj
 0002:0000e3a0       ??_C@_0BO@OBMKPJIG@?$GAdefault?5constructor?5closure?8?$AA@ 004803a0     libcmt:undname.obj
 0002:0000e3c0       ??_C@_0BN@DEGPLNFK@?$GAvector?5deleting?5destructor?8?$AA@ 004803c0     libcmt:undname.obj
 0002:0000e3e0       ??_C@_0BD@JDLKDPAB@?$GAvbase?5destructor?8?$AA@ 004803e0     libcmt:undname.obj
 0002:0000e3f4       ??_C@_08OBABFOLI@?$GAstring?8?$AA@ 004803f4     libcmt:undname.obj
 0002:0000e400       ??_C@_0BF@KDPPACIK@?$GAlocal?5static?5guard?8?$AA@ 00480400     libcmt:undname.obj
 0002:0000e418       ??_C@_08LLFFHHDJ@?$GAtypeof?8?$AA@ 00480418     libcmt:undname.obj
 0002:0000e424       ??_C@_07FEEIOKP@?$GAvcall?8?$AA@ 00480424     libcmt:undname.obj
 0002:0000e42c       ??_C@_09BLBHBJP@?$GAvbtable?8?$AA@ 0048042c     libcmt:undname.obj
 0002:0000e438       ??_C@_09IFPLHPGF@?$GAvftable?8?$AA@ 00480438     libcmt:undname.obj
 0002:0000e444       ??_C@_02MHEGNOJ@?$FO?$DN?$AA@ 00480444     libcmt:undname.obj
 0002:0000e448       ??_C@_02DHLNPPGH@?$HM?$DN?$AA@ 00480448     libcmt:undname.obj
 0002:0000e44c       ??_C@_02FGJGFEAB@?$CG?$DN?$AA@ 0048044c     libcmt:undname.obj
 0002:0000e450       ??_C@_03CDNPDDLA@?$DM?$DM?$DN?$AA@ 00480450     libcmt:undname.obj
 0002:0000e454       ??_C@_03IKFCCPFF@?$DO?$DO?$DN?$AA@ 00480454     libcmt:undname.obj
 0002:0000e458       ??_C@_02FENAOKFI@?$CF?$DN?$AA@ 00480458     libcmt:undname.obj
 0002:0000e45c       ??_C@_02FJEHGPIO@?1?$DN?$AA@ 0048045c     libcmt:undname.obj
 0002:0000e460       ??_C@_02FKMDLLOA@?9?$DN?$AA@ 00480460     libcmt:undname.obj
 0002:0000e464       ??_C@_02FOEOMHFC@?$CL?$DN?$AA@ 00480464     libcmt:undname.obj
 0002:0000e468       ??_C@_02FPIMKNGF@?$CK?$DN?$AA@ 00480468     libcmt:undname.obj
 0002:0000e46c       ??_C@_02NONPIBCD@?$HM?$HM?$AA@ 0048046c     libcmt:undname.obj
 0002:0000e470       ??_C@_02PPKAJPJL@?$CG?$CG?$AA@ 00480470     libcmt:undname.obj
 0002:0000e474       ??_C@_01DNKMNLPK@?$HM?$AA@ 00480474     libcmt:undname.obj
 0002:0000e478       ??_C@_01JKBOJNNK@?$FO?$AA@ 00480478     libcmt:undname.obj
 0002:0000e47c       ??_C@_01PJKLJHI@?$HO?$AA@  0048047c     libcmt:undname.obj
 0002:0000e480       ??_C@_02HCKGKOFO@?$CI?$CJ?$AA@ 00480480     libcmt:undname.obj
 0002:0000e484       ??_C@_01IHBHIGKO@?0?$AA@   00480484     libcmt:undname.obj
 0002:0000e488       ??_C@_02EEKDKGMJ@?$DO?$DN?$AA@ 00480488     libcmt:undname.obj
 0002:0000e48c       ??_C@_01PPODPGHN@?$DO?$AA@ 0048048c     libcmt:undname.obj
 0002:0000e490       ??_C@_02EHCHHCKH@?$DM?$DN?$AA@ 00480490     libcmt:undname.obj
 0002:0000e494       ??_C@_01MNNFJEPP@?$DM?$AA@ 00480494     libcmt:undname.obj
 0002:0000e498       ??_C@_01FGNFDNOH@?$CF?$AA@ 00480498     libcmt:undname.obj
 0002:0000e49c       ??_C@_01KMDKNFGN@?1?$AA@   0048049c     libcmt:undname.obj
 0002:0000e4a0       ??_C@_03MNHNFDLC@?9?$DO?$CK?$AA@ 004804a0     libcmt:undname.obj
 0002:0000e4a4       ??_C@_01HNPIGOCE@?$CG?$AA@ 004804a4     libcmt:undname.obj
 0002:0000e4a8       ??_C@_01MIFGBAGJ@?$CL?$AA@ 004804a8     libcmt:undname.obj
 0002:0000e4ac       ??_C@_01JOAMLHOP@?9?$AA@   004804ac     libcmt:undname.obj
 0002:0000e4b0       ??_C@_02BAABKJLB@?9?9?$AA@ 004804b0     libcmt:undname.obj
 0002:0000e4b4       ??_C@_02ECNGHCIF@?$CL?$CL?$AA@ 004804b4     libcmt:undname.obj
 0002:0000e4b8       ??_C@_01NBENCBCI@?$CK?$AA@ 004804b8     libcmt:undname.obj
 0002:0000e4bc       ??_C@_02HBOOOICD@?9?$DO?$AA@ 004804bc     libcmt:undname.obj
 0002:0000e4c0       ??_C@_08LHJFAFGD@operator?$AA@ 004804c0     libcmt:undname.obj
 0002:0000e4cc       ??_C@_02GPECMEKF@?$FL?$FN?$AA@ 004804cc     libcmt:undname.obj
 0002:0000e4d0       ??_C@_02FDNJECIE@?$CB?$DN?$AA@ 004804d0     libcmt:undname.obj
 0002:0000e4d4       ??_C@_02EGOFBIJA@?$DN?$DN?$AA@ 004804d4     libcmt:undname.obj
 0002:0000e4d8       ??_C@_01DCLJPIOD@?$CB?$AA@ 004804d8     libcmt:undname.obj
 0002:0000e4dc       ??_C@_02FODMEDOG@?$DM?$DM?$AA@ 004804dc     libcmt:undname.obj
 0002:0000e4e0       ??_C@_02GPIOPFAK@?$DO?$DO?$AA@ 004804e0     libcmt:undname.obj
 0002:0000e4e4       ??_C@_07FPCDHGMM@?5delete?$AA@ 004804e4     libcmt:undname.obj
 0002:0000e4ec       ??_C@_04NIHEBCM@?5new?$AA@ 004804ec     libcmt:undname.obj
 0002:0000e4f4       ??_C@_0M@GFIIJFMG@__unaligned?$AA@ 004804f4     libcmt:undname.obj
 0002:0000e500       ??_C@_0L@PILCLIHE@__restrict?$AA@ 00480500     libcmt:undname.obj
 0002:0000e50c       ??_C@_07JOMMBBKO@__ptr64?$AA@ 0048050c     libcmt:undname.obj
 0002:0000e514       ??_C@_09HIJEGCPM@__clrcall?$AA@ 00480514     libcmt:undname.obj
 0002:0000e520       ??_C@_0L@JMKHOMEK@__fastcall?$AA@ 00480520     libcmt:undname.obj
 0002:0000e52c       ??_C@_0L@NPHFGOKO@__thiscall?$AA@ 0048052c     libcmt:undname.obj
 0002:0000e538       ??_C@_09IFJBGAPI@__stdcall?$AA@ 00480538     libcmt:undname.obj
 0002:0000e544       ??_C@_08GHMPAG@__pascal?$AA@ 00480544     libcmt:undname.obj
 0002:0000e550       ??_C@_07KOLFKCDI@__cdecl?$AA@ 00480550     libcmt:undname.obj
 0002:0000e558       ??_C@_08EHJDFFNH@__based?$CI?$AA@ 00480558     libcmt:undname.obj
 0002:0000e6e8       ??_C@_0BI@DFKBFLJE@GetProcessWindowStation?$AA@ 004806e8     libcmt:crtmbox.obj
 0002:0000e700       ??_C@_0BK@CIDNPOGP@GetUserObjectInformationA?$AA@ 00480700     libcmt:crtmbox.obj
 0002:0000e71c       ??_C@_0BD@HHGDFDBJ@GetLastActivePopup?$AA@ 0048071c     libcmt:crtmbox.obj
 0002:0000e730       ??_C@_0BA@HNOPNCHB@GetActiveWindow?$AA@ 00480730     libcmt:crtmbox.obj
 0002:0000e740       ??_C@_0M@CHKKJDAI@MessageBoxA?$AA@ 00480740     libcmt:crtmbox.obj
 0002:0000e74c       ??_C@_0L@NDEGIDAG@USER32?4DLL?$AA@ 0048074c     libcmt:crtmbox.obj
 0002:0000e758       ___newctype                00480758     libcmt:ctype.obj
 0002:0000ea58       __wctype                   00480a58     libcmt:ctype.obj
 0002:0000ec60       ___newclmap                00480c60     libcmt:ctype.obj
 0002:0000ede0       ___newcumap                00480de0     libcmt:ctype.obj
 0002:0000ef60       ??_C@_06IMKFLFPG@1?$CDQNAN?$AA@ 00480f60     libcmt:x10fout.obj
 0002:0000ef68       ??_C@_05DNEBIAHO@1?$CDINF?$AA@ 00480f68     libcmt:x10fout.obj
 0002:0000ef70       ??_C@_05PHHOCPM@1?$CDIND?$AA@ 00480f70     libcmt:x10fout.obj
 0002:0000ef78       ??_C@_06PGGFOGJG@1?$CDSNAN?$AA@ 00480f78     libcmt:x10fout.obj
 0002:0000ef80       ??_C@_07GPDNMNG@CONOUT$?$AA@ 00480f80     libcmt:initcon.obj
 0002:0000ef88       _IID_IShellLinkA           00480f88     shell32:shguid.obj
 0002:0000ef98       _CLSID_ShellLink           00480f98     shell32:shguid.obj
 0002:0000efa8       _IID_IQuickActivate        00480fa8     uuid:ocidl_i.obj
 0002:0000efb8       _IID_IOleInPlaceSiteWindowless 00480fb8     uuid:ocidl_i.obj
 0002:0000efc8       _IID_IOleInPlaceSiteEx     00480fc8     uuid:ocidl_i.obj
 0002:0000efd8       _IID_IOleInPlaceObjectWindowless 00480fd8     uuid:ocidl_i.obj
 0002:0000efe8       _IID_IFontDisp             00480fe8     uuid:ocidl_i.obj
 0002:0000eff8       _IID_IPicture              00480ff8     uuid:ocidl_i.obj
 0002:0000f008       _IID_IFont                 00481008     uuid:ocidl_i.obj
 0002:0000f018       _IID_IPersistStreamInit    00481018     uuid:ocidl_i.obj
 0002:0000f028       _IID_IPersistMemory        00481028     uuid:ocidl_i.obj
 0002:0000f038       _IID_IPropertyNotifySink   00481038     uuid:ocidl_i.obj
 0002:0000f048       _IID_IOleControlSite       00481048     uuid:ocidl_i.obj
 0002:0000f058       _IID_IOleControl           00481058     uuid:ocidl_i.obj
 0002:0000f068       _IID_IProvideClassInfo2    00481068     uuid:ocidl_i.obj
 0002:0000f078       _IID_IProvideClassInfo     00481078     uuid:ocidl_i.obj
 0002:0000f088       _IID_IClassFactory2        00481088     uuid:ocidl_i.obj
 0002:0000f098       _IID_IConnectionPointContainer 00481098     uuid:ocidl_i.obj
 0002:0000f0a8       _IID_IHTMLDocument2        004810a8     uuid:mshtml_i.obj
 0002:0000f0b8       _IID_IMessageFilter        004810b8     uuid:objidl_i.obj
 0002:0000f0c8       _IID_IDataObject           004810c8     uuid:objidl_i.obj
 0002:0000f0d8       _IID_IPersistStorage       004810d8     uuid:objidl_i.obj
 0002:0000f0e8       _IID_IPersistFile          004810e8     uuid:objidl_i.obj
 0002:0000f0f8       _IID_IStream               004810f8     uuid:objidl_i.obj
 0002:0000f108       _IID_IEnumUnknown          00481108     uuid:objidl_i.obj
 0002:0000f118       _IID_IBoundObjectSite      00481118     uuid:cguid_i.obj
 0002:0000f128       _IID_IBoundObject          00481128     uuid:cguid_i.obj
 0002:0000f138       _IID_INotifyDBEvents       00481138     uuid:cguid_i.obj
 0002:0000f148       _IID_ICursorUpdateARow     00481148     uuid:cguid_i.obj
 0002:0000f158       _IID_ICursorMove           00481158     uuid:cguid_i.obj
 0002:0000f168       _IID_ICursor               00481168     uuid:cguid_i.obj
 0002:0000f178       _GUID_NULL                 00481178     uuid:cguid_i.obj
 0002:0000f188       _IID_IDispatch             00481188     uuid:oaidl_i.obj
 0002:0000f198       _CGID_MSHTML               00481198     uuid:ieguids.obj
 0002:0000f1a8       _IID_IAccessible           004811a8     uuid:ieguids.obj
 0002:0000f1b8       _IID_IClassFactory         004811b8     uuid:unknwn_i.obj
 0002:0000f1c8       _IID_IUnknown              004811c8     uuid:unknwn_i.obj
 0002:0000f1d8       _IID_IViewObject           004811d8     uuid:oleidl_i.obj
 0002:0000f1e8       _IID_IOleInPlaceSite       004811e8     uuid:oleidl_i.obj
 0002:0000f1f8       _IID_IOleInPlaceObject     004811f8     uuid:oleidl_i.obj
 0002:0000f208       _IID_IOleInPlaceFrame      00481208     uuid:oleidl_i.obj
 0002:0000f218       _IID_IOleObject            00481218     uuid:oleidl_i.obj
 0002:0000f228       _IID_IOleClientSite        00481228     uuid:oleidl_i.obj
 0002:0000f238       _IID_IOleContainer         00481238     uuid:oleidl_i.obj
 0002:0000f248       _IID_IDocHostUIHandler     00481248     uuid:mshtmhst_i.obj
 0002:0000f258       _CLSID_WebBrowser          00481258     uuid:exdisp_i.obj
 0002:0000f268       _IID_IWebBrowser2          00481268     uuid:exdisp_i.obj
 0002:0000f278       _IID_IAccessor             00481278     uuid:oledbiid.obj
 0002:0000f288       _IID_IRowset               00481288     uuid:oledbiid.obj
 0002:0000f298       _IID_IRowsetInfo           00481298     uuid:oledbiid.obj
 0002:0000f2a8       _IID_IRowsetLocate         004812a8     uuid:oledbiid.obj
 0002:0000f2b8       _IID_IRowsetResynch        004812b8     uuid:oledbiid.obj
 0002:0000f2c8       _IID_IRowsetScroll         004812c8     uuid:oledbiid.obj
 0002:0000f2d8       _IID_IChapteredRowset      004812d8     uuid:oledbiid.obj
 0002:0000f2e8       _IID_IRowsetFind           004812e8     uuid:oledbiid.obj
 0002:0000f2f8       _IID_IRowPosition          004812f8     uuid:oledbiid.obj
 0002:0000f308       _IID_IRowPositionChange    00481308     uuid:oledbiid.obj
 0002:0000f318       _IID_IViewRowset           00481318     uuid:oledbiid.obj
 0002:0000f328       _IID_IViewChapter          00481328     uuid:oledbiid.obj
 0002:0000f338       _IID_IViewSort             00481338     uuid:oledbiid.obj
 0002:0000f348       _IID_IViewFilter           00481348     uuid:oledbiid.obj
 0002:0000f358       _IID_IRowsetView           00481358     uuid:oledbiid.obj
 0002:0000f368       _IID_IRowsetExactScroll    00481368     uuid:oledbiid.obj
 0002:0000f378       _IID_IRowsetChange         00481378     uuid:oledbiid.obj
 0002:0000f388       _IID_IRowsetUpdate         00481388     uuid:oledbiid.obj
 0002:0000f398       _IID_IRowsetIdentity       00481398     uuid:oledbiid.obj
 0002:0000f3a8       _IID_IRowsetNotify         004813a8     uuid:oledbiid.obj
 0002:0000f3b8       _IID_IRowsetIndex          004813b8     uuid:oledbiid.obj
 0002:0000f3c8       _IID_ICommand              004813c8     uuid:oledbiid.obj
 0002:0000f3d8       _IID_IMultipleResults      004813d8     uuid:oledbiid.obj
 0002:0000f3e8       _IID_IConvertType          004813e8     uuid:oledbiid.obj
 0002:0000f3f8       _IID_ICommandPrepare       004813f8     uuid:oledbiid.obj
 0002:0000f408       _IID_ICommandProperties    00481408     uuid:oledbiid.obj
 0002:0000f418       _IID_ICommandText          00481418     uuid:oledbiid.obj
 0002:0000f428       _IID_ICommandWithParameters 00481428     uuid:oledbiid.obj
 0002:0000f438       _IID_IColumnsRowset        00481438     uuid:oledbiid.obj
 0002:0000f448       _IID_IColumnsInfo          00481448     uuid:oledbiid.obj
 0002:0000f458       _IID_IDBCreateCommand      00481458     uuid:oledbiid.obj
 0002:0000f468       _IID_IDBCreateSession      00481468     uuid:oledbiid.obj
 0002:0000f478       _IID_ISourcesRowset        00481478     uuid:oledbiid.obj
 0002:0000f488       _IID_IDBProperties         00481488     uuid:oledbiid.obj
 0002:0000f498       _IID_IDBInitialize         00481498     uuid:oledbiid.obj
 0002:0000f4a8       _IID_IDBInfo               004814a8     uuid:oledbiid.obj
 0002:0000f4b8       _IID_IDBDataSourceAdmin    004814b8     uuid:oledbiid.obj
 0002:0000f4c8       _IID_IDBAsynchNotify       004814c8     uuid:oledbiid.obj
 0002:0000f4d8       _IID_IDBAsynchStatus       004814d8     uuid:oledbiid.obj
 0002:0000f4e8       _IID_ISessionProperties    004814e8     uuid:oledbiid.obj
 0002:0000f4f8       _IID_IIndexDefinition      004814f8     uuid:oledbiid.obj
 0002:0000f508       _IID_ITableDefinition      00481508     uuid:oledbiid.obj
 0002:0000f518       _IID_IOpenRowset           00481518     uuid:oledbiid.obj
 0002:0000f528       _IID_IDBSchemaRowset       00481528     uuid:oledbiid.obj
 0002:0000f538       _IID_IMDDataset            00481538     uuid:oledbiid.obj
 0002:0000f548       _IID_IMDFind               00481548     uuid:oledbiid.obj
 0002:0000f558       _IID_IMDRangeRowset        00481558     uuid:oledbiid.obj
 0002:0000f568       _IID_IAlterTable           00481568     uuid:oledbiid.obj
 0002:0000f578       _IID_IAlterIndex           00481578     uuid:oledbiid.obj
 0002:0000f588       _IID_IRowsetChapterMember  00481588     uuid:oledbiid.obj
 0002:0000f598       _IID_ICommandPersist       00481598     uuid:oledbiid.obj
 0002:0000f5a8       _IID_IRowsetRefresh        004815a8     uuid:oledbiid.obj
 0002:0000f5b8       _IID_IParentRowset         004815b8     uuid:oledbiid.obj
 0002:0000f5c8       _IID_IErrorRecords         004815c8     uuid:oledbiid.obj
 0002:0000f5d8       _IID_IErrorLookup          004815d8     uuid:oledbiid.obj
 0002:0000f5e8       _IID_ISQLErrorInfo         004815e8     uuid:oledbiid.obj
 0002:0000f5f8       _IID_IGetDataSource        004815f8     uuid:oledbiid.obj
 0002:0000f608       _IID_ITransactionLocal     00481608     uuid:oledbiid.obj
 0002:0000f618       _IID_ITransactionJoin      00481618     uuid:oledbiid.obj
 0002:0000f628       _IID_ITransactionObject    00481628     uuid:oledbiid.obj
 0002:0000f638       _IID_ITrusteeAdmin         00481638     uuid:oledbiid.obj
 0002:0000f648       _IID_ITrusteeGroupAdmin    00481648     uuid:oledbiid.obj
 0002:0000f658       _IID_IObjectAccessControl  00481658     uuid:oledbiid.obj
 0002:0000f668       _IID_ISecurityInfo         00481668     uuid:oledbiid.obj
 0002:0000f678       _IID_ITableCreation        00481678     uuid:oledbiid.obj
 0002:0000f688       _IID_ITableDefinitionWithConstraints 00481688     uuid:oledbiid.obj
 0002:0000f698       _IID_IRow                  00481698     uuid:oledbiid.obj
 0002:0000f6a8       _IID_IRowChange            004816a8     uuid:oledbiid.obj
 0002:0000f6b8       _IID_IRowSchemaChange      004816b8     uuid:oledbiid.obj
 0002:0000f6c8       _IID_IGetRow               004816c8     uuid:oledbiid.obj
 0002:0000f6d8       _IID_IBindResource         004816d8     uuid:oledbiid.obj
 0002:0000f6e8       _IID_IScopedOperations     004816e8     uuid:oledbiid.obj
 0002:0000f6f8       _IID_ICreateRow            004816f8     uuid:oledbiid.obj
 0002:0000f708       _IID_IDBBinderProperties   00481708     uuid:oledbiid.obj
 0002:0000f718       _IID_IColumnsInfo2         00481718     uuid:oledbiid.obj
 0002:0000f728       _IID_IRegisterProvider     00481728     uuid:oledbiid.obj
 0002:0000f738       _IID_IGetSession           00481738     uuid:oledbiid.obj
 0002:0000f748       _IID_IGetSourceRow         00481748     uuid:oledbiid.obj
 0002:0000f758       _IID_IRowsetCurrentIndex   00481758     uuid:oledbiid.obj
 0002:0000f768       _IID_ICommandStream        00481768     uuid:oledbiid.obj
 0002:0000f778       _IID_IRowsetBookmark       00481778     uuid:oledbiid.obj
 0002:0000f788       _DBBMK_CURRENT             00481788     uuid:vcguids.obj
 0002:0000f78c       _COLUMN_NAME               0048178c     uuid:vcguids.obj
 0002:0000f7a4       _COLUMN_COLUMNID           004817a4     uuid:vcguids.obj
 0002:0000f7bc       _IID_IService              004817bc     uuid:oledbdat.obj
 0002:0000f7cc       _IID_IDBPromptInitialize   004817cc     uuid:oledbdat.obj
 0002:0000f7dc       _IID_IDataInitialize       004817dc     uuid:oledbdat.obj
 0002:0000f7ec       _IID_IDataSourceLocator    004817ec     uuid:oledbdat.obj
 0002:0000f7fc       _CLSID_DataLinks           004817fc     uuid:oledbdat.obj
 0002:0000f80c       _CLSID_MSDAINITIALIZE      0048180c     uuid:oledbdat.obj
 0002:0000f81c       _CLSID_PDPO                0048181c     uuid:oledbdat.obj
 0002:0000f82c       _CLSID_RootBinder          0048182c     uuid:oledbdat.obj
 0002:0000f83c       _CLSID_DataConvert         0048183c     uuid:oledbdat.obj
 0002:0000f84c       _DBPROPSET_ROWSET          0048184c     uuid:oledbdat.obj
 0002:0000f860       ??_7out_of_range@std@@6B@  00481860     libcpmt:string.obj
 0002:0000f868       ??_C@_0BA@JFNIOLAK@string?5too?5long?$AA@ 00481868     libcpmt:string.obj
 0002:0000f878       ??_C@_0BI@CFPLBAOH@invalid?5string?5position?$AA@ 00481878     libcpmt:string.obj
 0002:0000f890       _GUID_ATLVer30             00481890     atls:atlbase.obj
 0002:0000f8a0       _GUID_ATLVer70             004818a0     atls:atlbase.obj
 0002:0000f8b0       __sz_OLEACC_dll            004818b0     oleacc:OLEACC.dll
 0002:0000f8c0       __load_config_used         004818c0     libcmt:loadcfg.obj
 0002:0000f964       ??_R4down_client@@6B@      00481964     down_client.obj
 0002:0000f978       ??_R3down_client@@8        00481978     down_client.obj
 0002:0000f988       ??_R2down_client@@8        00481988     down_client.obj
 0002:0000f9a0       ??_R1A@?0A@EA@down_client@@8 004819a0     down_client.obj
 0002:0000f9bc       ??_R1A@?0A@EA@CWinApp@@8   004819bc     down_client.obj
 0002:0000f9d8       ??_R3CWinApp@@8            004819d8     down_client.obj
 0002:0000f9e8       ??_R2CWinApp@@8            004819e8     down_client.obj
 0002:0000f9fc       ??_R1A@?0A@EA@CWinThread@@8 004819fc     down_client.obj
 0002:0000fa18       ??_R3CWinThread@@8         00481a18     down_client.obj
 0002:0000fa28       ??_R2CWinThread@@8         00481a28     down_client.obj
 0002:0000fa38       ??_R1A@?0A@EA@CCmdTarget@@8 00481a38     down_client.obj
 0002:0000fa54       ??_R3CCmdTarget@@8         00481a54     down_client.obj
 0002:0000fa64       ??_R2CCmdTarget@@8         00481a64     down_client.obj
 0002:0000fa70       ??_R1A@?0A@EA@CObject@@8   00481a70     down_client.obj
 0002:0000fa8c       ??_R3CObject@@8            00481a8c     down_client.obj
 0002:0000fa9c       ??_R2CObject@@8            00481a9c     down_client.obj
 0002:0000faa4       ??_R4CPictureEx@@6B@       00481aa4     PictureEx.obj
 0002:0000fab8       ??_R3CPictureEx@@8         00481ab8     PictureEx.obj
 0002:0000fac8       ??_R2CPictureEx@@8         00481ac8     PictureEx.obj
 0002:0000fae0       ??_R1A@?0A@EA@CPictureEx@@8 00481ae0     PictureEx.obj
 0002:0000fafc       ??_R1A@?0A@EA@CStatic@@8   00481afc     PictureEx.obj
 0002:0000fb18       ??_R3CStatic@@8            00481b18     PictureEx.obj
 0002:0000fb28       ??_R2CStatic@@8            00481b28     PictureEx.obj
 0002:0000fb3c       ??_R1A@?0A@EA@CWnd@@8      00481b3c     PictureEx.obj
 0002:0000fb58       ??_R3CWnd@@8               00481b58     PictureEx.obj
 0002:0000fb68       ??_R2CWnd@@8               00481b68     PictureEx.obj
 0002:0000fb78       ??_R4length_error@std@@6B@ 00481b78     PictureEx.obj
 0002:0000fb8c       ??_R3length_error@std@@8   00481b8c     PictureEx.obj
 0002:0000fb9c       ??_R2length_error@std@@8   00481b9c     PictureEx.obj
 0002:0000fbac       ??_R1A@?0A@EA@length_error@std@@8 00481bac     PictureEx.obj
 0002:0000fbc8       ??_R1A@?0A@EA@logic_error@std@@8 00481bc8     PictureEx.obj
 0002:0000fbe4       ??_R3logic_error@std@@8    00481be4     PictureEx.obj
 0002:0000fbf4       ??_R2logic_error@std@@8    00481bf4     PictureEx.obj
 0002:0000fc00       ??_R1A@?0A@EA@exception@std@@8 00481c00     PictureEx.obj
 0002:0000fc1c       ??_R3exception@std@@8      00481c1c     PictureEx.obj
 0002:0000fc2c       ??_R2exception@std@@8      00481c2c     PictureEx.obj
 0002:0000fc34       ??_R4logic_error@std@@6B@  00481c34     PictureEx.obj
 0002:0000fc48       ??_R4bad_alloc@std@@6B@    00481c48     PictureEx.obj
 0002:0000fc5c       ??_R3bad_alloc@std@@8      00481c5c     PictureEx.obj
 0002:0000fc6c       ??_R2bad_alloc@std@@8      00481c6c     PictureEx.obj
 0002:0000fc78       ??_R1A@?0A@EA@bad_alloc@std@@8 00481c78     PictureEx.obj
 0002:0000fc94       ??_R4CStatic@@6B@          00481c94     PictureEx.obj
 0002:0000fca8       ??_R4CSkinHeaderCtrl@@6B@  00481ca8     SkinListCtrl.obj
 0002:0000fcbc       ??_R3CSkinHeaderCtrl@@8    00481cbc     SkinListCtrl.obj
 0002:0000fccc       ??_R2CSkinHeaderCtrl@@8    00481ccc     SkinListCtrl.obj
 0002:0000fce4       ??_R1A@?0A@EA@CSkinHeaderCtrl@@8 00481ce4     SkinListCtrl.obj
 0002:0000fd00       ??_R1A@?0A@EA@CHeaderCtrl@@8 00481d00     SkinListCtrl.obj
 0002:0000fd1c       ??_R3CHeaderCtrl@@8        00481d1c     SkinListCtrl.obj
 0002:0000fd2c       ??_R2CHeaderCtrl@@8        00481d2c     SkinListCtrl.obj
 0002:0000fd40       ??_R4CSkinListCtrl@@6B@    00481d40     SkinListCtrl.obj
 0002:0000fd54       ??_R3CSkinListCtrl@@8      00481d54     SkinListCtrl.obj
 0002:0000fd64       ??_R2CSkinListCtrl@@8      00481d64     SkinListCtrl.obj
 0002:0000fd7c       ??_R1A@?0A@EA@CSkinListCtrl@@8 00481d7c     SkinListCtrl.obj
 0002:0000fd98       ??_R1A@?0A@EA@CListCtrl@@8 00481d98     SkinListCtrl.obj
 0002:0000fdb4       ??_R3CListCtrl@@8          00481db4     SkinListCtrl.obj
 0002:0000fdc4       ??_R2CListCtrl@@8          00481dc4     SkinListCtrl.obj
 0002:0000fdd8       ??_R4CPen@@6B@             00481dd8     SkinListCtrl.obj
 0002:0000fdec       ??_R3CPen@@8               00481dec     SkinListCtrl.obj
 0002:0000fdfc       ??_R2CPen@@8               00481dfc     SkinListCtrl.obj
 0002:0000fe0c       ??_R1A@?0A@EA@CPen@@8      00481e0c     SkinListCtrl.obj
 0002:0000fe28       ??_R1A@?0A@EA@CGdiObject@@8 00481e28     SkinListCtrl.obj
 0002:0000fe44       ??_R3CGdiObject@@8         00481e44     SkinListCtrl.obj
 0002:0000fe54       ??_R2CGdiObject@@8         00481e54     SkinListCtrl.obj
 0002:0000fe60       ??_R4CGdiObject@@6B@       00481e60     SkinListCtrl.obj
 0002:0000fe74       ??_R4CBrush@@6B@           00481e74     SkinListCtrl.obj
 0002:0000fe88       ??_R3CBrush@@8             00481e88     SkinListCtrl.obj
 0002:0000fe98       ??_R2CBrush@@8             00481e98     SkinListCtrl.obj
 0002:0000fea8       ??_R1A@?0A@EA@CBrush@@8    00481ea8     SkinListCtrl.obj
 0002:0000fec4       ??_R4CBitmap@@6B@          00481ec4     SkinListCtrl.obj
 0002:0000fed8       ??_R3CBitmap@@8            00481ed8     SkinListCtrl.obj
 0002:0000fee8       ??_R2CBitmap@@8            00481ee8     SkinListCtrl.obj
 0002:0000fef8       ??_R1A@?0A@EA@CBitmap@@8   00481ef8     SkinListCtrl.obj
 0002:0000ff14       ??_R4CRgn@@6B@             00481f14     SkinListCtrl.obj
 0002:0000ff28       ??_R3CRgn@@8               00481f28     SkinListCtrl.obj
 0002:0000ff38       ??_R2CRgn@@8               00481f38     SkinListCtrl.obj
 0002:0000ff48       ??_R1A@?0A@EA@CRgn@@8      00481f48     SkinListCtrl.obj
 0002:0000ff64       ??_R4CListCtrl@@6B@        00481f64     SkinListCtrl.obj
 0002:0000ff78       ??_R4CHeaderCtrl@@6B@      00481f78     SkinListCtrl.obj
 0002:0000ff8c       ??_R4NetworkController@@6B@ 00481f8c     NetworkController.obj
 0002:0000ffa0       ??_R3NetworkController@@8  00481fa0     NetworkController.obj
 0002:0000ffb0       ??_R2NetworkController@@8  00481fb0     NetworkController.obj
 0002:0000ffb8       ??_R1A@?0A@EA@NetworkController@@8 00481fb8     NetworkController.obj
 0002:0000ffd4       ??_R4Worker@@6B@           00481fd4     Worker.obj
 0002:0000ffe8       ??_R3Worker@@8             00481fe8     Worker.obj
 0002:0000fff8       ??_R2Worker@@8             00481ff8     Worker.obj
 0002:00010004       ??_R1A@?0A@EA@Worker@@8    00482004     Worker.obj
 0002:00010020       ??_R4CBTray@@6B@           00482020     BTray.obj
 0002:00010034       ??_R3CBTray@@8             00482034     BTray.obj
 0002:00010044       ??_R2CBTray@@8             00482044     BTray.obj
 0002:0001004c       ??_R1A@?0A@EA@CBTray@@8    0048204c     BTray.obj
 0002:00010068       ??_R4CComboEx@@6B@         00482068     ComboEx.obj
 0002:0001007c       ??_R3CComboEx@@8           0048207c     ComboEx.obj
 0002:0001008c       ??_R2CComboEx@@8           0048208c     ComboEx.obj
 0002:000100a4       ??_R1A@?0A@EA@CComboEx@@8  004820a4     ComboEx.obj
 0002:000100c0       ??_R1A@?0A@EA@CComboBox@@8 004820c0     ComboEx.obj
 0002:000100dc       ??_R3CComboBox@@8          004820dc     ComboEx.obj
 0002:000100ec       ??_R2CComboBox@@8          004820ec     ComboEx.obj
 0002:00010100       ??_R4CComboBox@@6B@        00482100     ComboEx.obj
 0002:00010114       ??_R4HtmlViewer@@6B@       00482114     HtmlViewer.obj
 0002:00010128       ??_R3HtmlViewer@@8         00482128     HtmlViewer.obj
 0002:00010138       ??_R2HtmlViewer@@8         00482138     HtmlViewer.obj
 0002:0001015c       ??_R1A@?0A@EA@HtmlViewer@@8 0048215c     HtmlViewer.obj
 0002:00010178       ??_R1A@?0A@EA@CHtmlView@@8 00482178     HtmlViewer.obj
 0002:00010194       ??_R3CHtmlView@@8          00482194     HtmlViewer.obj
 0002:000101a4       ??_R2CHtmlView@@8          004821a4     HtmlViewer.obj
 0002:000101c4       ??_R1A@?0A@EA@CFormView@@8 004821c4     HtmlViewer.obj
 0002:000101e0       ??_R3CFormView@@8          004821e0     HtmlViewer.obj
 0002:000101f0       ??_R2CFormView@@8          004821f0     HtmlViewer.obj
 0002:0001020c       ??_R1A@?0A@EA@CScrollView@@8 0048220c     HtmlViewer.obj
 0002:00010228       ??_R3CScrollView@@8        00482228     HtmlViewer.obj
 0002:00010238       ??_R2CScrollView@@8        00482238     HtmlViewer.obj
 0002:00010250       ??_R1A@?0A@EA@CView@@8     00482250     HtmlViewer.obj
 0002:0001026c       ??_R3CView@@8              0048226c     HtmlViewer.obj
 0002:0001027c       ??_R2CView@@8              0048227c     HtmlViewer.obj
 0002:00010290       ??_R4CLabel@@6B@           00482290     Label.obj
 0002:000102a4       ??_R3CLabel@@8             004822a4     Label.obj
 0002:000102b4       ??_R2CLabel@@8             004822b4     Label.obj
 0002:000102cc       ??_R1A@?0A@EA@CLabel@@8    004822cc     Label.obj
 0002:000102e8       ??_R4CFont@@6B@            004822e8     Label.obj
 0002:000102fc       ??_R3CFont@@8              004822fc     Label.obj
 0002:0001030c       ??_R2CFont@@8              0048230c     Label.obj
 0002:0001031c       ??_R1A@?0A@EA@CFont@@8     0048231c     Label.obj
 0002:00010338       ??_R4CRegistry@@6B@        00482338     registry.obj
 0002:0001034c       ??_R3CRegistry@@8          0048234c     registry.obj
 0002:0001035c       ??_R2CRegistry@@8          0048235c     registry.obj
